---
triple:          'arm64-apple-darwin'
binary-path:     main
relocations:
  - { offset: 0x5C, size: 0x8, addend: 0x0, symName: __ZNSt3__119piecewise_constructE, symObjAddr: 0x3B236, symBinAddr: 0x10003CAB0, symSize: 0x0 }
  - { offset: 0x19BC8, size: 0x8, addend: 0x0, symName: __ZNSt3__110__function10__not_nullB8ne180100IZN5ValueC1EdRKNS_12basic_stringIcNS_11char_traitsIcEENS_9allocatorIcEEEEEUlvE_EEbRKT_, symObjAddr: 0x13A34, symBinAddr: 0x100014D00, symSize: 0x18 }
  - { offset: 0x19BF9, size: 0x8, addend: 0x0, symName: __ZNSt3__110__function10__not_nullB8ne180100IZplRKNS_10shared_ptrI5ValueEES6_EUlvE_EEbRKT_, symObjAddr: 0x20960, symBinAddr: 0x100021C2C, symSize: 0x18 }
  - { offset: 0x19C2A, size: 0x8, addend: 0x0, symName: __ZNSt3__110__function10__not_nullB8ne180100IZmlRKNS_10shared_ptrI5ValueEES6_EUlvE_EEbRKT_, symObjAddr: 0x22B70, symBinAddr: 0x100023E3C, symSize: 0x18 }
  - { offset: 0x19C5B, size: 0x8, addend: 0x0, symName: __ZNSt3__110__function10__not_nullB8ne180100IZ4reluRKNS_6vectorINS_10shared_ptrI5ValueEENS_9allocatorIS5_EEEEEUlvE_EEbRKT_, symObjAddr: 0x2525C, symBinAddr: 0x100026528, symSize: 0x18 }
  - { offset: 0x19C8C, size: 0x8, addend: 0x0, symName: __ZNSt3__110__function10__not_nullB8ne180100IZ7dropoutRKNS_6vectorINS_10shared_ptrI5ValueEENS_9allocatorIS5_EEEEdbEUlvE_EEbRKT_, symObjAddr: 0x2726C, symBinAddr: 0x100028538, symSize: 0x18 }
  - { offset: 0x19CBD, size: 0x8, addend: 0x0, symName: __ZNSt3__110__function10__not_nullB8ne180100IZN5Value3expEvEUlvE_EEbRKT_, symObjAddr: 0x2953C, symBinAddr: 0x10002A808, symSize: 0x18 }
  - { offset: 0x19CEE, size: 0x8, addend: 0x0, symName: __ZNSt3__110__function10__not_nullB8ne180100IZdvRKNS_10shared_ptrI5ValueEES6_EUlvE_EEbRKT_, symObjAddr: 0x2B394, symBinAddr: 0x10002C660, symSize: 0x18 }
  - { offset: 0x19D1F, size: 0x8, addend: 0x0, symName: __ZNSt3__110__function10__not_nullB8ne180100IZN5Value3logEvEUlvE_EEbRKT_, symObjAddr: 0x2D4E0, symBinAddr: 0x10002E7AC, symSize: 0x18 }
  - { offset: 0x19D50, size: 0x8, addend: 0x0, symName: __ZNSt3__110__function10__not_nullB8ne180100IZngRKNS_10shared_ptrI5ValueEEEUlvE_EEbRKT_, symObjAddr: 0x2F328, symBinAddr: 0x1000305F4, symSize: 0x18 }
  - { offset: 0x19D81, size: 0x8, addend: 0x0, symName: __ZNSt3__110__function10__not_nullB8ne180100IZN5Value23build_topological_orderEvEUlPS2_E_EEbRKT_, symObjAddr: 0x33F44, symBinAddr: 0x100035210, symSize: 0x18 }
  - { offset: 0x1EDE1, size: 0x8, addend: 0x0, symName: __ZNSt3__19__shuffleB8ne180100INS_17_ClassicAlgPolicyENS_11__wrap_iterIPNS_4pairINS_6vectorINS_10shared_ptrI5ValueEENS_9allocatorIS7_EEEESA_EEEESD_RNS_23mersenne_twister_engineIjLm32ELm624ELm397ELm31ELj2567483615ELm11ELj4294967295ELm7ELj2636928640ELm15ELj4022730752ELm18ELj1812433253EEEEET0_SH_T1_OT2_, symObjAddr: 0x187B8, symBinAddr: 0x100019A84, symSize: 0x13C }
  - { offset: 0x1F4B8, size: 0x8, addend: 0x0, symName: __ZNSt3__17advanceB8ne180100IPillvEEvRT_T0_, symObjAddr: 0x1A0F8, symBinAddr: 0x10001B3C4, symSize: 0x38 }
  - { offset: 0x2B5A5, size: 0x8, addend: 0x0, symName: __ZNSt3__17advanceB8ne180100INS_11__wrap_iterIPKNS_10shared_ptrI5ValueEEEEllvEEvRT_T0_, symObjAddr: 0x317B0, symBinAddr: 0x100032A7C, symSize: 0x38 }
  - { offset: 0x2B636, size: 0x8, addend: 0x0, symName: __ZNSt3__17advanceB8ne180100INS_11__wrap_iterIPNS_10shared_ptrI5ValueEEEEllvEEvRT_T0_, symObjAddr: 0x32D00, symBinAddr: 0x100033FCC, symSize: 0x38 }
  - { offset: 0x2FA64, size: 0x8, addend: 0x0, symName: __ZNSt3__124__put_character_sequenceB8ne180100IcNS_11char_traitsIcEEEERNS_13basic_ostreamIT_T0_EES7_PKS4_m, symObjAddr: 0x37D94, symBinAddr: 0x100039060, symSize: 0x1EC }
  - { offset: 0x30F19, size: 0x8, addend: 0x0, symName: __ZNSt3__1lsB8ne180100INS_11char_traitsIcEEEERNS_13basic_ostreamIcT_EES6_PKc, symObjAddr: 0x1AC, symBinAddr: 0x100001478, symSize: 0x48 }
  - { offset: 0x30F6A, size: 0x8, addend: 0x0, symName: __ZNSt3__1lsB8ne180100IcNS_11char_traitsIcEENS_9allocatorIcEEEERNS_13basic_ostreamIT_T0_EES9_RKNS_12basic_stringIS6_S7_T1_EE, symObjAddr: 0x2CC, symBinAddr: 0x100001598, symSize: 0x4C }
  - { offset: 0x30FC2, size: 0x8, addend: 0x0, symName: __ZNSt3__14endlB8ne180100IcNS_11char_traitsIcEEEERNS_13basic_ostreamIT_T0_EES7_, symObjAddr: 0xF4C, symBinAddr: 0x100002218, symSize: 0x58 }
  - { offset: 0x31002, size: 0x8, addend: 0x0, symName: __ZNSt3__122__make_exception_guardB8ne180100INS_6vectorIiNS_9allocatorIiEEE16__destroy_vectorEEENS_28__exception_guard_exceptionsIT_EES7_, symObjAddr: 0x1D18, symBinAddr: 0x100002FE4, symSize: 0x40 }
  - { offset: 0x31037, size: 0x8, addend: 0x0, symName: __ZNSt3__119__allocate_at_leastB8ne180100INS_9allocatorIiEEEENS_19__allocation_resultINS_16allocator_traitsIT_E7pointerEEERS5_m, symObjAddr: 0x2000, symBinAddr: 0x1000032CC, symSize: 0x40 }
  - { offset: 0x3107A, size: 0x8, addend: 0x0, symName: __ZNSt3__13minB8ne180100ImEERKT_S3_S3_, symObjAddr: 0x20A4, symBinAddr: 0x100003370, symSize: 0x2C }
  - { offset: 0x312A7, size: 0x8, addend: 0x0, symName: __ZNSt3__13minB8ne180100ImNS_6__lessIvvEEEERKT_S5_S5_T0_, symObjAddr: 0x2118, symBinAddr: 0x1000033E4, symSize: 0x54 }
  - { offset: 0x31349, size: 0x8, addend: 0x0, symName: __ZNSt3__120__throw_length_errorB8ne180100EPKc, symObjAddr: 0x21BC, symBinAddr: 0x100003488, symSize: 0x64 }
  - { offset: 0x31371, size: 0x8, addend: 0x0, symName: __ZNSt3__117__libcpp_allocateB8ne180100Emm, symObjAddr: 0x2324, symBinAddr: 0x1000035F0, symSize: 0x60 }
  - { offset: 0x313CC, size: 0x8, addend: 0x0, symName: __ZNSt3__124__is_overaligned_for_newB8ne180100Em, symObjAddr: 0x2384, symBinAddr: 0x100003650, symSize: 0x20 }
  - { offset: 0x313FA, size: 0x8, addend: 0x0, symName: __ZNSt3__121__libcpp_operator_newB8ne180100IJmSt11align_val_tEEEPvDpT_, symObjAddr: 0x23A4, symBinAddr: 0x100003670, symSize: 0x2C }
  - { offset: 0x31447, size: 0x8, addend: 0x0, symName: __ZNSt3__121__libcpp_operator_newB8ne180100IJmEEEPvDpT_, symObjAddr: 0x23D0, symBinAddr: 0x10000369C, symSize: 0x24 }
  - { offset: 0x31480, size: 0x8, addend: 0x0, symName: __ZNSt3__130__uninitialized_allocator_copyB8ne180100INS_9allocatorIiEEPiS3_S3_EET2_RT_T0_T1_S4_, symObjAddr: 0x24A0, symBinAddr: 0x10000376C, symSize: 0x80 }
  - { offset: 0x3151D, size: 0x8, addend: 0x0, symName: __ZNSt3__114__unwrap_rangeB8ne180100IPiS1_EENS_4pairIT0_S3_EET_S5_, symObjAddr: 0x2590, symBinAddr: 0x10000385C, symSize: 0x60 }
  - { offset: 0x31569, size: 0x8, addend: 0x0, symName: __ZNSt3__135__uninitialized_allocator_copy_implB8ne180100INS_9allocatorIiEEiiiLPv0EEEPT2_RT_PT0_S9_S5_, symObjAddr: 0x25F0, symBinAddr: 0x1000038BC, symSize: 0x38 }
  - { offset: 0x315EB, size: 0x8, addend: 0x0, symName: __ZNSt3__113__unwrap_iterB8ne180100IPiNS_18__unwrap_iter_implIS1_Lb1EEELi0EEEDTclsrT0_8__unwrapclsr3stdE7declvalIT_EEEES5_, symObjAddr: 0x2628, symBinAddr: 0x1000038F4, symSize: 0x24 }
  - { offset: 0x3162F, size: 0x8, addend: 0x0, symName: __ZNSt3__113__rewrap_iterB8ne180100IPiS1_NS_18__unwrap_iter_implIS1_Lb1EEEEET_S4_T0_, symObjAddr: 0x264C, symBinAddr: 0x100003918, symSize: 0x3C }
  - { offset: 0x31684, size: 0x8, addend: 0x0, symName: __ZNSt3__19make_pairB8ne180100IPiS1_EENS_4pairINS_18__unwrap_ref_decayIT_E4typeENS3_IT0_E4typeEEEOS4_OS7_, symObjAddr: 0x2688, symBinAddr: 0x100003954, symSize: 0x38 }
  - { offset: 0x317D6, size: 0x8, addend: 0x0, symName: __ZNSt3__14copyB8ne180100IPiS1_EET0_T_S3_S2_, symObjAddr: 0x2730, symBinAddr: 0x1000039FC, symSize: 0x40 }
  - { offset: 0x31830, size: 0x8, addend: 0x0, symName: __ZNSt3__16__copyB8ne180100INS_17_ClassicAlgPolicyEPiS2_S2_EENS_4pairIT0_T2_EES4_T1_S5_, symObjAddr: 0x2770, symBinAddr: 0x100003A3C, symSize: 0x44 }
  - { offset: 0x3189C, size: 0x8, addend: 0x0, symName: __ZNSt3__123__dispatch_copy_or_moveB8ne180100INS_17_ClassicAlgPolicyENS_11__copy_loopIS1_EENS_14__copy_trivialEPiS5_S5_EENS_4pairIT2_T4_EES7_T3_S8_, symObjAddr: 0x27B4, symBinAddr: 0x100003A80, symSize: 0x44 }
  - { offset: 0x3191A, size: 0x8, addend: 0x0, symName: __ZNSt3__121__unwrap_and_dispatchB8ne180100INS_10__overloadINS_11__copy_loopINS_17_ClassicAlgPolicyEEENS_14__copy_trivialEEEPiS7_S7_Li0EEENS_4pairIT0_T2_EES9_T1_SA_, symObjAddr: 0x27F8, symBinAddr: 0x100003AC4, symSize: 0xB4 }
  - { offset: 0x31A66, size: 0x8, addend: 0x0, symName: __ZNSt3__114__rewrap_rangeB8ne180100IPiS1_EET_S2_T0_, symObjAddr: 0x28F4, symBinAddr: 0x100003BC0, symSize: 0x2C }
  - { offset: 0x31AB2, size: 0x8, addend: 0x0, symName: __ZNSt3__119__copy_trivial_implB8ne180100IiiEENS_4pairIPT_PT0_EES3_S3_S5_, symObjAddr: 0x2920, symBinAddr: 0x100003BEC, symSize: 0x80 }
  - { offset: 0x31B1A, size: 0x8, addend: 0x0, symName: __ZNSt3__119__constexpr_memmoveB8ne180100IiiLi0EEEPT_S2_PT0_NS_15__element_countE, symObjAddr: 0x29A0, symBinAddr: 0x100003C6C, symSize: 0x64 }
  - { offset: 0x31B88, size: 0x8, addend: 0x0, symName: __ZNSt3__19make_pairB8ne180100IRPiS1_EENS_4pairINS_18__unwrap_ref_decayIT_E4typeENS4_IT0_E4typeEEEOS5_OS8_, symObjAddr: 0x2A04, symBinAddr: 0x100003CD0, symSize: 0x38 }
  - { offset: 0x31C2A, size: 0x8, addend: 0x0, symName: __ZNSt3__112__to_addressB8ne180100IiEEPT_S2_, symObjAddr: 0x2AD0, symBinAddr: 0x100003D9C, symSize: 0x14 }
  - { offset: 0x31C60, size: 0x8, addend: 0x0, symName: __ZNSt3__119__libcpp_deallocateB8ne180100EPvmm, symObjAddr: 0x2DEC, symBinAddr: 0x1000040B8, symSize: 0x60 }
  - { offset: 0x31CC6, size: 0x8, addend: 0x0, symName: __ZNSt3__127__do_deallocate_handle_sizeB8ne180100IJSt11align_val_tEEEvPvmDpT_, symObjAddr: 0x2E4C, symBinAddr: 0x100004118, symSize: 0x30 }
  - { offset: 0x31D1A, size: 0x8, addend: 0x0, symName: __ZNSt3__127__do_deallocate_handle_sizeB8ne180100IJEEEvPvmDpT_, symObjAddr: 0x2E7C, symBinAddr: 0x100004148, symSize: 0x28 }
  - { offset: 0x31D59, size: 0x8, addend: 0x0, symName: __ZNSt3__124__libcpp_operator_deleteB8ne180100IJPvSt11align_val_tEEEvDpT_, symObjAddr: 0x2EA4, symBinAddr: 0x100004170, symSize: 0x2C }
  - { offset: 0x31DA3, size: 0x8, addend: 0x0, symName: __ZNSt3__124__libcpp_operator_deleteB8ne180100IJPvEEEvDpT_, symObjAddr: 0x2ED0, symBinAddr: 0x10000419C, symSize: 0x24 }
  - { offset: 0x32BE9, size: 0x8, addend: 0x0, symName: __ZNSt3__17getlineB8ne180100IcNS_11char_traitsIcEENS_9allocatorIcEEEERNS_13basic_istreamIT_T0_EES9_RNS_12basic_stringIS6_S7_T1_EE, symObjAddr: 0x3A24, symBinAddr: 0x100004CF0, symSize: 0x5C }
  - { offset: 0x32C4C, size: 0x8, addend: 0x0, symName: __ZNSt3__112__to_addressB8ne180100IKcEEPT_S3_, symObjAddr: 0x40A8, symBinAddr: 0x100005374, symSize: 0x14 }
  - { offset: 0x32CB4, size: 0x8, addend: 0x0, symName: __ZNSt3__17getlineB8ne180100IcNS_11char_traitsIcEENS_9allocatorIcEEEERNS_13basic_istreamIT_T0_EES9_RNS_12basic_stringIS6_S7_T1_EES6_, symObjAddr: 0x44EC, symBinAddr: 0x1000057B8, symSize: 0x238 }
  - { offset: 0x32DA5, size: 0x8, addend: 0x0, symName: __ZNSt3__19use_facetB8ne180100INS_5ctypeIcEEEERKT_RKNS_6localeE, symObjAddr: 0x4DB8, symBinAddr: 0x100006084, symSize: 0x2C }
  - { offset: 0x33272, size: 0x8, addend: 0x0, symName: __ZNSt3__17find_ifB8ne180100INS_11__wrap_iterIPcEEZN9CSVLoader4trimERNS_12basic_stringIcNS_11char_traitsIcEENS_9allocatorIcEEEEEUlhE_EET_SD_SD_T0_, symObjAddr: 0x4F84, symBinAddr: 0x100006250, symSize: 0x74 }
  - { offset: 0x332CC, size: 0x8, addend: 0x0, symName: __ZNSt3__17find_ifB8ne180100INS_16reverse_iteratorINS_11__wrap_iterIPcEEEEZN9CSVLoader4trimERNS_12basic_stringIcNS_11char_traitsIcEENS_9allocatorIcEEEEEUlhE0_EET_SF_SF_T0_, symObjAddr: 0x504C, symBinAddr: 0x100006318, symSize: 0x80 }
  - { offset: 0x33326, size: 0x8, addend: 0x0, symName: __ZNSt3__1miB8ne180100IPKcPcEEDTmicldtfp_4baseEcldtfp0_4baseEERKNS_11__wrap_iterIT_EERKNS5_IT0_EE, symObjAddr: 0x5174, symBinAddr: 0x100006440, symSize: 0x40 }
  - { offset: 0x33372, size: 0x8, addend: 0x0, symName: __ZNSt3__1miB8ne180100IPKcS2_EEDTmicldtfp_4baseEcldtfp0_4baseEERKNS_11__wrap_iterIT_EERKNS4_IT0_EE, symObjAddr: 0x51B4, symBinAddr: 0x100006480, symSize: 0x40 }
  - { offset: 0x333BE, size: 0x8, addend: 0x0, symName: __ZNSt3__1neB8ne180100IPcEEbRKNS_11__wrap_iterIT_EES6_, symObjAddr: 0x539C, symBinAddr: 0x100006668, symSize: 0x34 }
  - { offset: 0x33401, size: 0x8, addend: 0x0, symName: __ZNSt3__1eqB8ne180100IPcEEbRKNS_11__wrap_iterIT_EES6_, symObjAddr: 0x543C, symBinAddr: 0x100006708, symSize: 0x48 }
  - { offset: 0x33444, size: 0x8, addend: 0x0, symName: __ZNSt3__1neB8ne180100INS_11__wrap_iterIPcEES3_EEbRKNS_16reverse_iteratorIT_EERKNS4_IT0_EE, symObjAddr: 0x5554, symBinAddr: 0x100006820, symSize: 0x54 }
  - { offset: 0x33673, size: 0x8, addend: 0x0, symName: __ZNSt3__112__to_addressB8ne180100INS_12basic_stringIcNS_11char_traitsIcEENS_9allocatorIcEEEEEEPT_S8_, symObjAddr: 0x5F74, symBinAddr: 0x100007240, symSize: 0x14 }
  - { offset: 0x336A8, size: 0x8, addend: 0x0, symName: __ZNSt3__13maxB8ne180100ImEERKT_S3_S3_, symObjAddr: 0x63A0, symBinAddr: 0x10000766C, symSize: 0x2C }
  - { offset: 0x336EB, size: 0x8, addend: 0x0, symName: __ZNSt3__13maxB8ne180100ImNS_6__lessIvvEEEERKT_S5_S5_T0_, symObjAddr: 0x64C8, symBinAddr: 0x100007794, symSize: 0x54 }
  - { offset: 0x33745, size: 0x8, addend: 0x0, symName: __ZNSt3__119__allocate_at_leastB8ne180100INS_9allocatorINS_12basic_stringIcNS_11char_traitsIcEENS1_IcEEEEEEEENS_19__allocation_resultINS_16allocator_traitsIT_E7pointerEEERSA_m, symObjAddr: 0x6638, symBinAddr: 0x100007904, symSize: 0x40 }
  - { offset: 0x33788, size: 0x8, addend: 0x0, symName: __ZNSt3__142__uninitialized_allocator_move_if_noexceptB8ne180100INS_9allocatorINS_12basic_stringIcNS_11char_traitsIcEENS1_IcEEEEEENS_16reverse_iteratorIPS6_EESA_SA_EET2_RT_T0_T1_SB_, symObjAddr: 0x6800, symBinAddr: 0x100007ACC, symSize: 0x12C }
  - { offset: 0x33828, size: 0x8, addend: 0x0, symName: __ZNSt3__14swapB8ne180100IPNS_12basic_stringIcNS_11char_traitsIcEENS_9allocatorIcEEEEEENS_9enable_ifIXaasr21is_move_constructibleIT_EE5valuesr18is_move_assignableIS9_EE5valueEvE4typeERS9_SC_, symObjAddr: 0x6978, symBinAddr: 0x100007C44, symSize: 0x3C }
  - { offset: 0x33879, size: 0x8, addend: 0x0, symName: __ZNSt3__122__make_exception_guardB8ne180100INS_29_AllocatorDestroyRangeReverseINS_9allocatorINS_12basic_stringIcNS_11char_traitsIcEENS2_IcEEEEEENS_16reverse_iteratorIPS7_EEEEEENS_28__exception_guard_exceptionsIT_EESE_, symObjAddr: 0x69C8, symBinAddr: 0x100007C94, symSize: 0x4C }
  - { offset: 0x338AF, size: 0x8, addend: 0x0, symName: __ZNSt3__1neB8ne180100IPNS_12basic_stringIcNS_11char_traitsIcEENS_9allocatorIcEEEES7_EEbRKNS_16reverse_iteratorIT_EERKNS8_IT0_EE, symObjAddr: 0x6A58, symBinAddr: 0x100007D24, symSize: 0x48 }
  - { offset: 0x338FB, size: 0x8, addend: 0x0, symName: __ZNSt3__112__to_addressB8ne180100INS_16reverse_iteratorIPNS_12basic_stringIcNS_11char_traitsIcEENS_9allocatorIcEEEEEEvEEu7__decayIDTclsr19__to_address_helperIT_EE6__callclsr3stdE7declvalIRKSA_EEEEESC_, symObjAddr: 0x6AD4, symBinAddr: 0x100007DA0, symSize: 0x24 }
  - { offset: 0x3395C, size: 0x8, addend: 0x0, symName: __ZNSt3__119__allocator_destroyB8ne180100INS_9allocatorINS_12basic_stringIcNS_11char_traitsIcEENS1_IcEEEEEENS_16reverse_iteratorINS8_IPS6_EEEESB_EEvRT_T0_T1_, symObjAddr: 0x6EF0, symBinAddr: 0x1000081BC, symSize: 0x70 }
  - { offset: 0x339C1, size: 0x8, addend: 0x0, symName: __ZNSt3__1neB8ne180100INS_16reverse_iteratorIPNS_12basic_stringIcNS_11char_traitsIcEENS_9allocatorIcEEEEEES9_EEbRKNS1_IT_EERKNS1_IT0_EE, symObjAddr: 0x6F9C, symBinAddr: 0x100008268, symSize: 0x60 }
  - { offset: 0x33A0D, size: 0x8, addend: 0x0, symName: __ZNSt3__112__to_addressB8ne180100INS_16reverse_iteratorINS1_IPNS_12basic_stringIcNS_11char_traitsIcEENS_9allocatorIcEEEEEEEEvEEu7__decayIDTclsr19__to_address_helperIT_EE6__callclsr3stdE7declvalIRKSB_EEEEESD_, symObjAddr: 0x7028, symBinAddr: 0x1000082F4, symSize: 0x24 }
  - { offset: 0x33A6D, size: 0x8, addend: 0x0, symName: __ZNSt3__112__to_addressB8ne180100INS_6vectorINS_12basic_stringIcNS_11char_traitsIcEENS_9allocatorIcEEEENS5_IS7_EEEEEEPT_SB_, symObjAddr: 0x7750, symBinAddr: 0x100008A1C, symSize: 0x14 }
  - { offset: 0x33AA2, size: 0x8, addend: 0x0, symName: __ZNSt3__119__allocate_at_leastB8ne180100INS_9allocatorINS_6vectorINS_12basic_stringIcNS_11char_traitsIcEENS1_IcEEEENS1_IS7_EEEEEEEENS_19__allocation_resultINS_16allocator_traitsIT_E7pointerEEERSD_m, symObjAddr: 0x7F24, symBinAddr: 0x1000091F0, symSize: 0x40 }
  - { offset: 0x33AE5, size: 0x8, addend: 0x0, symName: __ZNSt3__142__uninitialized_allocator_move_if_noexceptB8ne180100INS_9allocatorINS_6vectorINS_12basic_stringIcNS_11char_traitsIcEENS1_IcEEEENS1_IS7_EEEEEENS_16reverse_iteratorIPS9_EESD_SD_EET2_RT_T0_T1_SE_, symObjAddr: 0x80EC, symBinAddr: 0x1000093B8, symSize: 0x12C }
  - { offset: 0x33B85, size: 0x8, addend: 0x0, symName: __ZNSt3__14swapB8ne180100IPNS_6vectorINS_12basic_stringIcNS_11char_traitsIcEENS_9allocatorIcEEEENS5_IS7_EEEEEENS_9enable_ifIXaasr21is_move_constructibleIT_EE5valuesr18is_move_assignableISC_EE5valueEvE4typeERSC_SF_, symObjAddr: 0x8264, symBinAddr: 0x100009530, symSize: 0x3C }
  - { offset: 0x33BD6, size: 0x8, addend: 0x0, symName: __ZNSt3__122__make_exception_guardB8ne180100INS_29_AllocatorDestroyRangeReverseINS_9allocatorINS_6vectorINS_12basic_stringIcNS_11char_traitsIcEENS2_IcEEEENS2_IS8_EEEEEENS_16reverse_iteratorIPSA_EEEEEENS_28__exception_guard_exceptionsIT_EESH_, symObjAddr: 0x82B4, symBinAddr: 0x100009580, symSize: 0x4C }
  - { offset: 0x33C0C, size: 0x8, addend: 0x0, symName: __ZNSt3__1neB8ne180100IPNS_6vectorINS_12basic_stringIcNS_11char_traitsIcEENS_9allocatorIcEEEENS5_IS7_EEEESA_EEbRKNS_16reverse_iteratorIT_EERKNSB_IT0_EE, symObjAddr: 0x8344, symBinAddr: 0x100009610, symSize: 0x48 }
  - { offset: 0x33C58, size: 0x8, addend: 0x0, symName: __ZNSt3__112__to_addressB8ne180100INS_16reverse_iteratorIPNS_6vectorINS_12basic_stringIcNS_11char_traitsIcEENS_9allocatorIcEEEENS6_IS8_EEEEEEvEEu7__decayIDTclsr19__to_address_helperIT_EE6__callclsr3stdE7declvalIRKSD_EEEEESF_, symObjAddr: 0x838C, symBinAddr: 0x100009658, symSize: 0x24 }
  - { offset: 0x33CB9, size: 0x8, addend: 0x0, symName: __ZNSt3__119__allocator_destroyB8ne180100INS_9allocatorINS_6vectorINS_12basic_stringIcNS_11char_traitsIcEENS1_IcEEEENS1_IS7_EEEEEENS_16reverse_iteratorINSB_IPS9_EEEESE_EEvRT_T0_T1_, symObjAddr: 0x863C, symBinAddr: 0x100009908, symSize: 0x70 }
  - { offset: 0x33D1E, size: 0x8, addend: 0x0, symName: __ZNSt3__1neB8ne180100INS_16reverse_iteratorIPNS_6vectorINS_12basic_stringIcNS_11char_traitsIcEENS_9allocatorIcEEEENS6_IS8_EEEEEESC_EEbRKNS1_IT_EERKNS1_IT0_EE, symObjAddr: 0x86E8, symBinAddr: 0x1000099B4, symSize: 0x60 }
  - { offset: 0x33D6A, size: 0x8, addend: 0x0, symName: __ZNSt3__112__to_addressB8ne180100INS_16reverse_iteratorINS1_IPNS_6vectorINS_12basic_stringIcNS_11char_traitsIcEENS_9allocatorIcEEEENS6_IS8_EEEEEEEEvEEu7__decayIDTclsr19__to_address_helperIT_EE6__callclsr3stdE7declvalIRKSE_EEEEESG_, symObjAddr: 0x8774, symBinAddr: 0x100009A40, symSize: 0x24 }
  - { offset: 0x33DCA, size: 0x8, addend: 0x0, symName: __ZNSt3__1eqB8ne180100ERKNS_19__hash_map_iteratorINS_15__hash_iteratorIPNS_11__hash_nodeINS_17__hash_value_typeINS_12basic_stringIcNS_11char_traitsIcEENS_9allocatorIcEEEEdEEPvEEEEEESH_, symObjAddr: 0x97C4, symBinAddr: 0x10000AA90, symSize: 0x30 }
  - { offset: 0x348D3, size: 0x8, addend: 0x0, symName: __ZNSt3__1plB8ne180100IcNS_11char_traitsIcEENS_9allocatorIcEEEENS_12basic_stringIT_T0_T1_EEOS9_PKS6_, symObjAddr: 0x986C, symBinAddr: 0x10000AB38, symSize: 0x40 }
  - { offset: 0x3492B, size: 0x8, addend: 0x0, symName: __ZNSt3__1neB8ne180100IPKNS_12basic_stringIcNS_11char_traitsIcEENS_9allocatorIcEEEEEEbRKNS_11__wrap_iterIT_EESD_, symObjAddr: 0x9C80, symBinAddr: 0x10000AF4C, symSize: 0x34 }
  - { offset: 0x3496E, size: 0x8, addend: 0x0, symName: __ZNSt3__1eqB8ne180100IPKNS_12basic_stringIcNS_11char_traitsIcEENS_9allocatorIcEEEEEEbRKNS_11__wrap_iterIT_EESD_, symObjAddr: 0xA3BC, symBinAddr: 0x10000B688, symSize: 0x48 }
  - { offset: 0x349B1, size: 0x8, addend: 0x0, symName: __ZNSt3__112__to_addressB8ne180100IdEEPT_S2_, symObjAddr: 0xA7DC, symBinAddr: 0x10000BAA8, symSize: 0x14 }
  - { offset: 0x349E6, size: 0x8, addend: 0x0, symName: __ZNSt3__119__allocate_at_leastB8ne180100INS_9allocatorIdEEEENS_19__allocation_resultINS_16allocator_traitsIT_E7pointerEEERS5_m, symObjAddr: 0xAE00, symBinAddr: 0x10000C0CC, symSize: 0x40 }
  - { offset: 0x34A29, size: 0x8, addend: 0x0, symName: __ZNSt3__142__uninitialized_allocator_move_if_noexceptB8ne180100INS_9allocatorIdEENS_16reverse_iteratorIPdEES5_dvEET1_RT_T0_S9_S6_, symObjAddr: 0xAFC4, symBinAddr: 0x10000C290, symSize: 0x78 }
  - { offset: 0x34AA7, size: 0x8, addend: 0x0, symName: __ZNSt3__14swapB8ne180100IPdEENS_9enable_ifIXaasr21is_move_constructibleIT_EE5valuesr18is_move_assignableIS3_EE5valueEvE4typeERS3_S6_, symObjAddr: 0xB088, symBinAddr: 0x10000C354, symSize: 0x3C }
  - { offset: 0x34AF8, size: 0x8, addend: 0x0, symName: __ZNSt3__14moveB8ne180100INS_16reverse_iteratorIPdEES3_EET0_T_S5_S4_, symObjAddr: 0xB0D8, symBinAddr: 0x10000C3A4, symSize: 0x78 }
  - { offset: 0x34B52, size: 0x8, addend: 0x0, symName: __ZNSt3__16__moveB8ne180100INS_17_ClassicAlgPolicyENS_16reverse_iteratorIPdEES4_S4_EENS_4pairIT0_T2_EES6_T1_S7_, symObjAddr: 0xB150, symBinAddr: 0x10000C41C, symSize: 0x64 }
  - { offset: 0x34BBE, size: 0x8, addend: 0x0, symName: __ZNSt3__123__dispatch_copy_or_moveB8ne180100INS_17_ClassicAlgPolicyENS_11__move_loopIS1_EENS_14__move_trivialENS_16reverse_iteratorIPdEES7_S7_EENS_4pairIT2_T4_EES9_T3_SA_, symObjAddr: 0xB1B4, symBinAddr: 0x10000C480, symSize: 0x64 }
  - { offset: 0x34C3C, size: 0x8, addend: 0x0, symName: __ZNSt3__121__unwrap_and_dispatchB8ne180100INS_10__overloadINS_11__move_loopINS_17_ClassicAlgPolicyEEENS_14__move_trivialEEENS_16reverse_iteratorIPdEES9_S9_Li0EEENS_4pairIT0_T2_EESB_T1_SC_, symObjAddr: 0xB218, symBinAddr: 0x10000C4E4, symSize: 0x12C }
  - { offset: 0x34CCC, size: 0x8, addend: 0x0, symName: __ZNSt3__114__unwrap_rangeB8ne180100INS_16reverse_iteratorIPdEES3_EENS_4pairIT0_S5_EET_S7_, symObjAddr: 0xB344, symBinAddr: 0x10000C610, symSize: 0x84 }
  - { offset: 0x34E47, size: 0x8, addend: 0x0, symName: __ZNSt3__113__unwrap_iterB8ne180100INS_16reverse_iteratorIPdEENS_18__unwrap_iter_implIS3_Lb0EEELi0EEEDTclsrT0_8__unwrapclsr3stdE7declvalIT_EEEES7_, symObjAddr: 0xB468, symBinAddr: 0x10000C734, symSize: 0x44 }
  - { offset: 0x34E8B, size: 0x8, addend: 0x0, symName: __ZNSt3__19make_pairB8ne180100INS_16reverse_iteratorIPdEES3_EENS_4pairINS_18__unwrap_ref_decayIT_E4typeENS5_IT0_E4typeEEEOS6_OS9_, symObjAddr: 0xB4AC, symBinAddr: 0x10000C778, symSize: 0x38 }
  - { offset: 0x34EDA, size: 0x8, addend: 0x0, symName: __ZNSt3__114__rewrap_rangeB8ne180100INS_16reverse_iteratorIPdEES3_EET_S4_T0_, symObjAddr: 0xB4E4, symBinAddr: 0x10000C7B0, symSize: 0x5C }
  - { offset: 0x34F26, size: 0x8, addend: 0x0, symName: __ZNSt3__113__rewrap_iterB8ne180100INS_16reverse_iteratorIPdEES3_NS_18__unwrap_iter_implIS3_Lb0EEEEET_S6_T0_, symObjAddr: 0xB540, symBinAddr: 0x10000C80C, symSize: 0x74 }
  - { offset: 0x34F7B, size: 0x8, addend: 0x0, symName: __ZNSt3__1neB8ne180100IPdS1_EEbRKNS_16reverse_iteratorIT_EERKNS2_IT0_EE, symObjAddr: 0xB5B4, symBinAddr: 0x10000C880, symSize: 0x48 }
  - { offset: 0x35124, size: 0x8, addend: 0x0, symName: __ZNSt3__1eqB8ne180100ERKNS_15__hash_iteratorIPNS_11__hash_nodeINS_17__hash_value_typeINS_12basic_stringIcNS_11char_traitsIcEENS_9allocatorIcEEEEdEEPvEEEESF_, symObjAddr: 0xB9F8, symBinAddr: 0x10000CCC4, symSize: 0x30 }
  - { offset: 0x35161, size: 0x8, addend: 0x0, symName: __ZNSt3__116__constrain_hashB8ne180100Emm, symObjAddr: 0xBC88, symBinAddr: 0x10000CF54, symSize: 0x98 }
  - { offset: 0x3519B, size: 0x8, addend: 0x0, symName: __ZNSt3__116__do_string_hashB8ne180100IPKcEEmT_S3_, symObjAddr: 0xBF14, symBinAddr: 0x10000D1E0, symSize: 0x3C }
  - { offset: 0x351E1, size: 0x8, addend: 0x0, symName: __ZNSt3__110__loadwordB8ne180100ImEET_PKv, symObjAddr: 0xC910, symBinAddr: 0x10000DBDC, symSize: 0x20 }
  - { offset: 0x35224, size: 0x8, addend: 0x0, symName: __ZNSt3__14swapB8ne180100ImEENS_9enable_ifIXaasr21is_move_constructibleIT_EE5valuesr18is_move_assignableIS2_EE5valueEvE4typeERS2_S5_, symObjAddr: 0xCACC, symBinAddr: 0x10000DD98, symSize: 0x3C }
  - { offset: 0x35275, size: 0x8, addend: 0x0, symName: __ZNSt3__110__loadwordB8ne180100IjEET_PKv, symObjAddr: 0xCB5C, symBinAddr: 0x10000DE28, symSize: 0x20 }
  - { offset: 0x352B8, size: 0x8, addend: 0x0, symName: __ZNSt3__1eqB8ne180100INS_9allocatorIcEEEEbRKNS_12basic_stringIcNS_11char_traitsIcEET_EES9_, symObjAddr: 0xCE4C, symBinAddr: 0x10000E118, symSize: 0x148 }
  - { offset: 0x3532B, size: 0x8, addend: 0x0, symName: __ZNSt3__17launderB8ne180100IKNS_4pairIKNS_12basic_stringIcNS_11char_traitsIcEENS_9allocatorIcEEEEdEEEEPT_SC_, symObjAddr: 0xCFC8, symBinAddr: 0x10000E294, symSize: 0x24 }
  - { offset: 0x35363, size: 0x8, addend: 0x0, symName: __ZNSt3__19__launderB8ne180100IKNS_4pairIKNS_12basic_stringIcNS_11char_traitsIcEENS_9allocatorIcEEEEdEEEEPT_SC_, symObjAddr: 0xCFEC, symBinAddr: 0x10000E2B8, symSize: 0x14 }
  - { offset: 0x35404, size: 0x8, addend: 0x0, symName: __ZNSt3__116forward_as_tupleB8ne180100IJRKNS_12basic_stringIcNS_11char_traitsIcEENS_9allocatorIcEEEEEEENS_5tupleIJDpOT_EEESC_, symObjAddr: 0xD6E0, symBinAddr: 0x10000E9AC, symSize: 0x2C }
  - { offset: 0x3543E, size: 0x8, addend: 0x0, symName: __ZNSt3__116forward_as_tupleB8ne180100IJEEENS_5tupleIJDpOT_EEES4_, symObjAddr: 0xD70C, symBinAddr: 0x10000E9D8, symSize: 0x4 }
  - { offset: 0x35462, size: 0x8, addend: 0x0, symName: __ZNSt3__116__is_hash_power2B8ne180100Em, symObjAddr: 0xD92C, symBinAddr: 0x10000EBF8, symSize: 0x50 }
  - { offset: 0x35493, size: 0x8, addend: 0x0, symName: __ZNSt3__16__math4ceilB8ne180100Ef, symObjAddr: 0xD97C, symBinAddr: 0x10000EC48, symSize: 0x18 }
  - { offset: 0x35522, size: 0x8, addend: 0x0, symName: __ZNSt3__114__construct_atB8ne180100INS_11__hash_nodeINS_17__hash_value_typeINS_12basic_stringIcNS_11char_traitsIcEENS_9allocatorIcEEEEdEEPvEEJDnRmEPSB_EEPT_SF_DpOT0_, symObjAddr: 0xDBB0, symBinAddr: 0x10000EE7C, symSize: 0x40 }
  - { offset: 0x35594, size: 0x8, addend: 0x0, symName: __ZNSt3__13getB8ne180100ILm0EJRKNS_12basic_stringIcNS_11char_traitsIcEENS_9allocatorIcEEEEEEERNS_13tuple_elementIXT_ENS_5tupleIJDpT0_EEEE4typeERSD_, symObjAddr: 0xE09C, symBinAddr: 0x10000F368, symSize: 0x24 }
  - { offset: 0x355D7, size: 0x8, addend: 0x0, symName: __ZNSt3__116__next_hash_pow2B8ne180100Em, symObjAddr: 0xE5B4, symBinAddr: 0x10000F880, symSize: 0x6C }
  - { offset: 0x35603, size: 0x8, addend: 0x0, symName: __ZNSt3__112__libcpp_clzB8ne180100Em, symObjAddr: 0xE95C, symBinAddr: 0x10000FC28, symSize: 0x1C }
  - { offset: 0x3562F, size: 0x8, addend: 0x0, symName: __ZNSt3__112__destroy_atB8ne180100INS_11__hash_nodeINS_17__hash_value_typeINS_12basic_stringIcNS_11char_traitsIcEENS_9allocatorIcEEEEdEEPvEELi0EEEvPT_, symObjAddr: 0xEB38, symBinAddr: 0x10000FE04, symSize: 0x24 }
  - { offset: 0x35666, size: 0x8, addend: 0x0, symName: __ZNSt3__112__destroy_atB8ne180100INS_4pairIKNS_12basic_stringIcNS_11char_traitsIcEENS_9allocatorIcEEEEdEELi0EEEvPT_, symObjAddr: 0xEB90, symBinAddr: 0x10000FE5C, symSize: 0x24 }
  - { offset: 0x356F4, size: 0x8, addend: 0x0, symName: __ZNSt3__17launderB8ne180100INS_4pairIKNS_12basic_stringIcNS_11char_traitsIcEENS_9allocatorIcEEEEdEEEEPT_SB_, symObjAddr: 0xEDCC, symBinAddr: 0x100010098, symSize: 0x24 }
  - { offset: 0x3572C, size: 0x8, addend: 0x0, symName: __ZNSt3__19__launderB8ne180100INS_4pairIKNS_12basic_stringIcNS_11char_traitsIcEENS_9allocatorIcEEEEdEEEEPT_SB_, symObjAddr: 0xEDF0, symBinAddr: 0x1000100BC, symSize: 0x14 }
  - { offset: 0x35763, size: 0x8, addend: 0x0, symName: __ZNSt3__112__to_addressB8ne180100INS_6vectorIdNS_9allocatorIdEEEEEEPT_S6_, symObjAddr: 0xF074, symBinAddr: 0x100010340, symSize: 0x14 }
  - { offset: 0x35798, size: 0x8, addend: 0x0, symName: __ZNSt3__122__make_exception_guardB8ne180100INS_6vectorIdNS_9allocatorIdEEE16__destroy_vectorEEENS_28__exception_guard_exceptionsIT_EES7_, symObjAddr: 0xF358, symBinAddr: 0x100010624, symSize: 0x40 }
  - { offset: 0x357CD, size: 0x8, addend: 0x0, symName: __ZNSt3__130__uninitialized_allocator_copyB8ne180100INS_9allocatorIdEEPdS3_S3_EET2_RT_T0_T1_S4_, symObjAddr: 0xF5C4, symBinAddr: 0x100010890, symSize: 0x80 }
  - { offset: 0x3586A, size: 0x8, addend: 0x0, symName: __ZNSt3__114__unwrap_rangeB8ne180100IPdS1_EENS_4pairIT0_S3_EET_S5_, symObjAddr: 0xF644, symBinAddr: 0x100010910, symSize: 0x60 }
  - { offset: 0x358B6, size: 0x8, addend: 0x0, symName: __ZNSt3__135__uninitialized_allocator_copy_implB8ne180100INS_9allocatorIdEEdddLPv0EEEPT2_RT_PT0_S9_S5_, symObjAddr: 0xF6A4, symBinAddr: 0x100010970, symSize: 0x38 }
  - { offset: 0x35938, size: 0x8, addend: 0x0, symName: __ZNSt3__113__unwrap_iterB8ne180100IPdNS_18__unwrap_iter_implIS1_Lb1EEELi0EEEDTclsrT0_8__unwrapclsr3stdE7declvalIT_EEEES5_, symObjAddr: 0xF6DC, symBinAddr: 0x1000109A8, symSize: 0x24 }
  - { offset: 0x3597C, size: 0x8, addend: 0x0, symName: __ZNSt3__113__rewrap_iterB8ne180100IPdS1_NS_18__unwrap_iter_implIS1_Lb1EEEEET_S4_T0_, symObjAddr: 0xF700, symBinAddr: 0x1000109CC, symSize: 0x3C }
  - { offset: 0x359D1, size: 0x8, addend: 0x0, symName: __ZNSt3__19make_pairB8ne180100IPdS1_EENS_4pairINS_18__unwrap_ref_decayIT_E4typeENS3_IT0_E4typeEEEOS4_OS7_, symObjAddr: 0xF73C, symBinAddr: 0x100010A08, symSize: 0x38 }
  - { offset: 0x35B23, size: 0x8, addend: 0x0, symName: __ZNSt3__14copyB8ne180100IPdS1_EET0_T_S3_S2_, symObjAddr: 0xF7E4, symBinAddr: 0x100010AB0, symSize: 0x40 }
  - { offset: 0x35B7D, size: 0x8, addend: 0x0, symName: __ZNSt3__16__copyB8ne180100INS_17_ClassicAlgPolicyEPdS2_S2_EENS_4pairIT0_T2_EES4_T1_S5_, symObjAddr: 0xF824, symBinAddr: 0x100010AF0, symSize: 0x44 }
  - { offset: 0x35BE9, size: 0x8, addend: 0x0, symName: __ZNSt3__123__dispatch_copy_or_moveB8ne180100INS_17_ClassicAlgPolicyENS_11__copy_loopIS1_EENS_14__copy_trivialEPdS5_S5_EENS_4pairIT2_T4_EES7_T3_S8_, symObjAddr: 0xF868, symBinAddr: 0x100010B34, symSize: 0x44 }
  - { offset: 0x35C67, size: 0x8, addend: 0x0, symName: __ZNSt3__121__unwrap_and_dispatchB8ne180100INS_10__overloadINS_11__copy_loopINS_17_ClassicAlgPolicyEEENS_14__copy_trivialEEEPdS7_S7_Li0EEENS_4pairIT0_T2_EES9_T1_SA_, symObjAddr: 0xF8AC, symBinAddr: 0x100010B78, symSize: 0xB4 }
  - { offset: 0x35CF5, size: 0x8, addend: 0x0, symName: __ZNSt3__114__rewrap_rangeB8ne180100IPdS1_EET_S2_T0_, symObjAddr: 0xF9A8, symBinAddr: 0x100010C74, symSize: 0x2C }
  - { offset: 0x35D41, size: 0x8, addend: 0x0, symName: __ZNSt3__119__copy_trivial_implB8ne180100IddEENS_4pairIPT_PT0_EES3_S3_S5_, symObjAddr: 0xF9D4, symBinAddr: 0x100010CA0, symSize: 0x80 }
  - { offset: 0x35DA9, size: 0x8, addend: 0x0, symName: __ZNSt3__119__constexpr_memmoveB8ne180100IddLi0EEEPT_S2_PT0_NS_15__element_countE, symObjAddr: 0xFA54, symBinAddr: 0x100010D20, symSize: 0x64 }
  - { offset: 0x35E17, size: 0x8, addend: 0x0, symName: __ZNSt3__19make_pairB8ne180100IRPdS1_EENS_4pairINS_18__unwrap_ref_decayIT_E4typeENS4_IT0_E4typeEEEOS5_OS8_, symObjAddr: 0xFAB8, symBinAddr: 0x100010D84, symSize: 0x38 }
  - { offset: 0x35EB9, size: 0x8, addend: 0x0, symName: __ZNSt3__119__allocate_at_leastB8ne180100INS_9allocatorINS_6vectorIdNS1_IdEEEEEEEENS_19__allocation_resultINS_16allocator_traitsIT_E7pointerEEERS8_m, symObjAddr: 0x102F0, symBinAddr: 0x1000115BC, symSize: 0x40 }
  - { offset: 0x35EFC, size: 0x8, addend: 0x0, symName: __ZNSt3__142__uninitialized_allocator_move_if_noexceptB8ne180100INS_9allocatorINS_6vectorIdNS1_IdEEEEEENS_16reverse_iteratorIPS4_EES8_S8_EET2_RT_T0_T1_S9_, symObjAddr: 0x104B8, symBinAddr: 0x100011784, symSize: 0x12C }
  - { offset: 0x35F9C, size: 0x8, addend: 0x0, symName: __ZNSt3__14swapB8ne180100IPNS_6vectorIdNS_9allocatorIdEEEEEENS_9enable_ifIXaasr21is_move_constructibleIT_EE5valuesr18is_move_assignableIS7_EE5valueEvE4typeERS7_SA_, symObjAddr: 0x10630, symBinAddr: 0x1000118FC, symSize: 0x3C }
  - { offset: 0x35FED, size: 0x8, addend: 0x0, symName: __ZNSt3__122__make_exception_guardB8ne180100INS_29_AllocatorDestroyRangeReverseINS_9allocatorINS_6vectorIdNS2_IdEEEEEENS_16reverse_iteratorIPS5_EEEEEENS_28__exception_guard_exceptionsIT_EESC_, symObjAddr: 0x10680, symBinAddr: 0x10001194C, symSize: 0x4C }
  - { offset: 0x36023, size: 0x8, addend: 0x0, symName: __ZNSt3__1neB8ne180100IPNS_6vectorIdNS_9allocatorIdEEEES5_EEbRKNS_16reverse_iteratorIT_EERKNS6_IT0_EE, symObjAddr: 0x10710, symBinAddr: 0x1000119DC, symSize: 0x48 }
  - { offset: 0x3606F, size: 0x8, addend: 0x0, symName: __ZNSt3__112__to_addressB8ne180100INS_16reverse_iteratorIPNS_6vectorIdNS_9allocatorIdEEEEEEvEEu7__decayIDTclsr19__to_address_helperIT_EE6__callclsr3stdE7declvalIRKS8_EEEEESA_, symObjAddr: 0x1078C, symBinAddr: 0x100011A58, symSize: 0x24 }
  - { offset: 0x360D0, size: 0x8, addend: 0x0, symName: __ZNSt3__119__allocator_destroyB8ne180100INS_9allocatorINS_6vectorIdNS1_IdEEEEEENS_16reverse_iteratorINS6_IPS4_EEEES9_EEvRT_T0_T1_, symObjAddr: 0x10B64, symBinAddr: 0x100011E30, symSize: 0x70 }
  - { offset: 0x36135, size: 0x8, addend: 0x0, symName: __ZNSt3__1neB8ne180100INS_16reverse_iteratorIPNS_6vectorIdNS_9allocatorIdEEEEEES7_EEbRKNS1_IT_EERKNS1_IT0_EE, symObjAddr: 0x10C10, symBinAddr: 0x100011EDC, symSize: 0x60 }
  - { offset: 0x36181, size: 0x8, addend: 0x0, symName: __ZNSt3__112__to_addressB8ne180100INS_16reverse_iteratorINS1_IPNS_6vectorIdNS_9allocatorIdEEEEEEEEvEEu7__decayIDTclsr19__to_address_helperIT_EE6__callclsr3stdE7declvalIRKS9_EEEEESB_, symObjAddr: 0x10C9C, symBinAddr: 0x100011F68, symSize: 0x24 }
  - { offset: 0x361E1, size: 0x8, addend: 0x0, symName: __ZNSt3__1neB8ne180100IPKNS_6vectorIdNS_9allocatorIdEEEEEEbRKNS_11__wrap_iterIT_EESB_, symObjAddr: 0x11388, symBinAddr: 0x100012654, symSize: 0x34 }
  - { offset: 0x36224, size: 0x8, addend: 0x0, symName: __ZNSt3__111make_sharedB8ne180100I5ValueJRKdEvEENS_10shared_ptrIT_EEDpOT0_, symObjAddr: 0x114B8, symBinAddr: 0x100012784, symSize: 0x40 }
  - { offset: 0x36267, size: 0x8, addend: 0x0, symName: __ZNSt3__1eqB8ne180100IPKNS_6vectorIdNS_9allocatorIdEEEEEEbRKNS_11__wrap_iterIT_EESB_, symObjAddr: 0x1180C, symBinAddr: 0x100012AD8, symSize: 0x48 }
  - { offset: 0x362AA, size: 0x8, addend: 0x0, symName: __ZNSt3__112__to_addressB8ne180100INS_10shared_ptrI5ValueEEEEPT_S5_, symObjAddr: 0x11C2C, symBinAddr: 0x100012EF8, symSize: 0x14 }
  - { offset: 0x362DF, size: 0x8, addend: 0x0, symName: __ZNSt3__119__allocate_at_leastB8ne180100INS_9allocatorINS_10shared_ptrI5ValueEEEEEENS_19__allocation_resultINS_16allocator_traitsIT_E7pointerEEERS8_m, symObjAddr: 0x122A4, symBinAddr: 0x100013570, symSize: 0x40 }
  - { offset: 0x36322, size: 0x8, addend: 0x0, symName: __ZNSt3__142__uninitialized_allocator_move_if_noexceptB8ne180100INS_9allocatorINS_10shared_ptrI5ValueEEEENS_16reverse_iteratorIPS4_EES8_S8_EET2_RT_T0_T1_S9_, symObjAddr: 0x12468, symBinAddr: 0x100013734, symSize: 0x12C }
  - { offset: 0x363C2, size: 0x8, addend: 0x0, symName: __ZNSt3__14swapB8ne180100IPNS_10shared_ptrI5ValueEEEENS_9enable_ifIXaasr21is_move_constructibleIT_EE5valuesr18is_move_assignableIS6_EE5valueEvE4typeERS6_S9_, symObjAddr: 0x125E0, symBinAddr: 0x1000138AC, symSize: 0x3C }
  - { offset: 0x36413, size: 0x8, addend: 0x0, symName: __ZNSt3__122__make_exception_guardB8ne180100INS_29_AllocatorDestroyRangeReverseINS_9allocatorINS_10shared_ptrI5ValueEEEENS_16reverse_iteratorIPS5_EEEEEENS_28__exception_guard_exceptionsIT_EESC_, symObjAddr: 0x12630, symBinAddr: 0x1000138FC, symSize: 0x4C }
  - { offset: 0x36449, size: 0x8, addend: 0x0, symName: __ZNSt3__1neB8ne180100IPNS_10shared_ptrI5ValueEES4_EEbRKNS_16reverse_iteratorIT_EERKNS5_IT0_EE, symObjAddr: 0x126C0, symBinAddr: 0x10001398C, symSize: 0x48 }
  - { offset: 0x36495, size: 0x8, addend: 0x0, symName: __ZNSt3__112__to_addressB8ne180100INS_16reverse_iteratorIPNS_10shared_ptrI5ValueEEEEvEEu7__decayIDTclsr19__to_address_helperIT_EE6__callclsr3stdE7declvalIRKS7_EEEEES9_, symObjAddr: 0x12708, symBinAddr: 0x1000139D4, symSize: 0x24 }
  - { offset: 0x364F6, size: 0x8, addend: 0x0, symName: __ZNSt3__119__allocator_destroyB8ne180100INS_9allocatorINS_10shared_ptrI5ValueEEEENS_16reverse_iteratorINS6_IPS4_EEEES9_EEvRT_T0_T1_, symObjAddr: 0x129B8, symBinAddr: 0x100013C84, symSize: 0x70 }
  - { offset: 0x3655B, size: 0x8, addend: 0x0, symName: __ZNSt3__1neB8ne180100INS_16reverse_iteratorIPNS_10shared_ptrI5ValueEEEES6_EEbRKNS1_IT_EERKNS1_IT0_EE, symObjAddr: 0x12A64, symBinAddr: 0x100013D30, symSize: 0x60 }
  - { offset: 0x365A7, size: 0x8, addend: 0x0, symName: __ZNSt3__112__to_addressB8ne180100INS_16reverse_iteratorINS1_IPNS_10shared_ptrI5ValueEEEEEEvEEu7__decayIDTclsr19__to_address_helperIT_EE6__callclsr3stdE7declvalIRKS8_EEEEESA_, symObjAddr: 0x12AF0, symBinAddr: 0x100013DBC, symSize: 0x24 }
  - { offset: 0x36607, size: 0x8, addend: 0x0, symName: __ZNSt3__115allocate_sharedB8ne180100I5ValueNS_9allocatorIS1_EEJRKdEvEENS_10shared_ptrIT_EERKT0_DpOT1_, symObjAddr: 0x12EF4, symBinAddr: 0x1000141C0, symSize: 0x98 }
  - { offset: 0x36C3C, size: 0x8, addend: 0x0, symName: __ZNSt3__116forward_as_tupleB8ne180100IJZN5ValueC1EdRKNS_12basic_stringIcNS_11char_traitsIcEENS_9allocatorIcEEEEEUlvE_EEENS_5tupleIJDpOT_EEESE_, symObjAddr: 0x13FA4, symBinAddr: 0x100015270, symSize: 0x2C }
  - { offset: 0x36C75, size: 0x8, addend: 0x0, symName: __ZNSt3__116forward_as_tupleB8ne180100IJNS_9allocatorIZN5ValueC1EdRKNS_12basic_stringIcNS_11char_traitsIcEENS1_IcEEEEEUlvE_EEEEENS_5tupleIJDpOT_EEESF_, symObjAddr: 0x13FD0, symBinAddr: 0x10001529C, symSize: 0x2C }
  - { offset: 0x36CD8, size: 0x8, addend: 0x0, symName: __ZNSt3__13getB8ne180100ILm0EJOZN5ValueC1EdRKNS_12basic_stringIcNS_11char_traitsIcEENS_9allocatorIcEEEEEUlvE_EEERNS_13tuple_elementIXT_ENS_5tupleIJDpT0_EEEE4typeERSG_, symObjAddr: 0x142DC, symBinAddr: 0x1000155A8, symSize: 0x24 }
  - { offset: 0x36D1A, size: 0x8, addend: 0x0, symName: __ZNSt3__13getB8ne180100ILm0EJONS_9allocatorIZN5ValueC1EdRKNS_12basic_stringIcNS_11char_traitsIcEENS1_IcEEEEEUlvE_EEEEERNS_13tuple_elementIXT_ENS_5tupleIJDpT0_EEEE4typeERSH_, symObjAddr: 0x14318, symBinAddr: 0x1000155E4, symSize: 0x24 }
  - { offset: 0x37238, size: 0x8, addend: 0x0, symName: __ZNSt3__116forward_as_tupleB8ne180100IJRKZN5ValueC1EdRKNS_12basic_stringIcNS_11char_traitsIcEENS_9allocatorIcEEEEEUlvE_EEENS_5tupleIJDpOT_EEESG_, symObjAddr: 0x148A4, symBinAddr: 0x100015B70, symSize: 0x2C }
  - { offset: 0x37286, size: 0x8, addend: 0x0, symName: __ZNSt3__13getB8ne180100ILm0EJRKZN5ValueC1EdRKNS_12basic_stringIcNS_11char_traitsIcEENS_9allocatorIcEEEEEUlvE_EEERNS_13tuple_elementIXT_ENS_5tupleIJDpT0_EEEE4typeERSH_, symObjAddr: 0x14A88, symBinAddr: 0x100015D54, symSize: 0x24 }
  - { offset: 0x372C8, size: 0x8, addend: 0x0, symName: __ZNSt3__116forward_as_tupleB8ne180100IJRKNS_9allocatorIZN5ValueC1EdRKNS_12basic_stringIcNS_11char_traitsIcEENS1_IcEEEEEUlvE_EEEEENS_5tupleIJDpOT_EEESH_, symObjAddr: 0x14DDC, symBinAddr: 0x1000160A8, symSize: 0x2C }
  - { offset: 0x37316, size: 0x8, addend: 0x0, symName: __ZNSt3__13getB8ne180100ILm0EJRKNS_9allocatorIZN5ValueC1EdRKNS_12basic_stringIcNS_11char_traitsIcEENS1_IcEEEEEUlvE_EEEEERNS_13tuple_elementIXT_ENS_5tupleIJDpT0_EEEE4typeERSI_, symObjAddr: 0x14FC0, symBinAddr: 0x10001628C, symSize: 0x24 }
  - { offset: 0x3749B, size: 0x8, addend: 0x0, symName: __ZNSt3__18__invokeB8ne180100IRZN5ValueC1EdRKNS_12basic_stringIcNS_11char_traitsIcEENS_9allocatorIcEEEEEUlvE_JEEEDTclclsr3stdE7declvalIT_EEspclsr3stdE7declvalIT0_EEEEOSC_DpOSD_, symObjAddr: 0x1507C, symBinAddr: 0x100016348, symSize: 0x24 }
  - { offset: 0x37506, size: 0x8, addend: 0x0, symName: __ZNSt3__121__libcpp_relaxed_loadB8ne180100IlEET_PKS1_, symObjAddr: 0x1577C, symBinAddr: 0x100016A48, symSize: 0x20 }
  - { offset: 0x3753B, size: 0x8, addend: 0x0, symName: __ZNSt3__134__libcpp_atomic_refcount_incrementB8ne180100IlEET_RS1_, symObjAddr: 0x15858, symBinAddr: 0x100016B24, symSize: 0x30 }
  - { offset: 0x37570, size: 0x8, addend: 0x0, symName: __ZNSt3__14swapB8ne180100IP5ValueEENS_9enable_ifIXaasr21is_move_constructibleIT_EE5valuesr18is_move_assignableIS4_EE5valueEvE4typeERS4_S7_, symObjAddr: 0x15998, symBinAddr: 0x100016C64, symSize: 0x3C }
  - { offset: 0x375C1, size: 0x8, addend: 0x0, symName: __ZNSt3__14swapB8ne180100IPNS_19__shared_weak_countEEENS_9enable_ifIXaasr21is_move_constructibleIT_EE5valuesr18is_move_assignableIS4_EE5valueEvE4typeERS4_S7_, symObjAddr: 0x159D4, symBinAddr: 0x100016CA0, symSize: 0x3C }
  - { offset: 0x37612, size: 0x8, addend: 0x0, symName: __ZNSt3__134__libcpp_atomic_refcount_decrementB8ne180100IlEET_RS1_, symObjAddr: 0x15C24, symBinAddr: 0x100016EF0, symSize: 0x30 }
  - { offset: 0x37647, size: 0x8, addend: 0x0, symName: __ZNSt3__112__to_addressB8ne180100INS_4pairINS_6vectorINS_10shared_ptrI5ValueEENS_9allocatorIS5_EEEES8_EEEEPT_SB_, symObjAddr: 0x15EDC, symBinAddr: 0x1000171A8, symSize: 0x14 }
  - { offset: 0x3767C, size: 0x8, addend: 0x0, symName: __ZNSt3__122__make_exception_guardB8ne180100INS_6vectorINS_10shared_ptrI5ValueEENS_9allocatorIS4_EEE16__destroy_vectorEEENS_28__exception_guard_exceptionsIT_EESA_, symObjAddr: 0x16274, symBinAddr: 0x100017540, symSize: 0x40 }
  - { offset: 0x376B1, size: 0x8, addend: 0x0, symName: __ZNSt3__130__uninitialized_allocator_copyB8ne180100INS_9allocatorINS_10shared_ptrI5ValueEEEEPS4_S6_S6_EET2_RT_T0_T1_S7_, symObjAddr: 0x164E0, symBinAddr: 0x1000177AC, symSize: 0x80 }
  - { offset: 0x3774E, size: 0x8, addend: 0x0, symName: __ZNSt3__114__unwrap_rangeB8ne180100IPNS_10shared_ptrI5ValueEES4_EENS_4pairIT0_S6_EET_S8_, symObjAddr: 0x16560, symBinAddr: 0x10001782C, symSize: 0x60 }
  - { offset: 0x3779A, size: 0x8, addend: 0x0, symName: __ZNSt3__135__uninitialized_allocator_copy_implB8ne180100INS_9allocatorINS_10shared_ptrI5ValueEEEEPS4_S6_S6_EET2_RT_T0_T1_S7_, symObjAddr: 0x165C0, symBinAddr: 0x10001788C, symSize: 0xF4 }
  - { offset: 0x37838, size: 0x8, addend: 0x0, symName: __ZNSt3__113__unwrap_iterB8ne180100IPNS_10shared_ptrI5ValueEENS_18__unwrap_iter_implIS4_Lb1EEELi0EEEDTclsrT0_8__unwrapclsr3stdE7declvalIT_EEEES8_, symObjAddr: 0x166B4, symBinAddr: 0x100017980, symSize: 0x24 }
  - { offset: 0x3787C, size: 0x8, addend: 0x0, symName: __ZNSt3__113__rewrap_iterB8ne180100IPNS_10shared_ptrI5ValueEES4_NS_18__unwrap_iter_implIS4_Lb1EEEEET_S7_T0_, symObjAddr: 0x166D8, symBinAddr: 0x1000179A4, symSize: 0x3C }
  - { offset: 0x378D1, size: 0x8, addend: 0x0, symName: __ZNSt3__19make_pairB8ne180100IPNS_10shared_ptrI5ValueEES4_EENS_4pairINS_18__unwrap_ref_decayIT_E4typeENS6_IT0_E4typeEEEOS7_OSA_, symObjAddr: 0x16714, symBinAddr: 0x1000179E0, symSize: 0x38 }
  - { offset: 0x379F4, size: 0x8, addend: 0x0, symName: __ZNSt3__122__make_exception_guardB8ne180100INS_29_AllocatorDestroyRangeReverseINS_9allocatorINS_10shared_ptrI5ValueEEEEPS5_EEEENS_28__exception_guard_exceptionsIT_EESA_, symObjAddr: 0x167BC, symBinAddr: 0x100017A88, symSize: 0x4C }
  - { offset: 0x37A2B, size: 0x8, addend: 0x0, symName: __ZNSt3__119__allocator_destroyB8ne180100INS_9allocatorINS_10shared_ptrI5ValueEEEENS_16reverse_iteratorIPS4_EES8_EEvRT_T0_T1_, symObjAddr: 0x16AF0, symBinAddr: 0x100017DBC, symSize: 0x70 }
  - { offset: 0x37AE1, size: 0x8, addend: 0x0, symName: __ZNSt3__119__allocate_at_leastB8ne180100INS_9allocatorINS_4pairINS_6vectorINS_10shared_ptrI5ValueEENS1_IS6_EEEES8_EEEEEENS_19__allocation_resultINS_16allocator_traitsIT_E7pointerEEERSD_m, symObjAddr: 0x172C8, symBinAddr: 0x100018594, symSize: 0x40 }
  - { offset: 0x37B24, size: 0x8, addend: 0x0, symName: __ZNSt3__142__uninitialized_allocator_move_if_noexceptB8ne180100INS_9allocatorINS_4pairINS_6vectorINS_10shared_ptrI5ValueEENS1_IS6_EEEES8_EEEENS_16reverse_iteratorIPS9_EESD_SD_EET2_RT_T0_T1_SE_, symObjAddr: 0x17490, symBinAddr: 0x10001875C, symSize: 0x12C }
  - { offset: 0x37BC4, size: 0x8, addend: 0x0, symName: __ZNSt3__14swapB8ne180100IPNS_4pairINS_6vectorINS_10shared_ptrI5ValueEENS_9allocatorIS5_EEEES8_EEEENS_9enable_ifIXaasr21is_move_constructibleIT_EE5valuesr18is_move_assignableISC_EE5valueEvE4typeERSC_SF_, symObjAddr: 0x17608, symBinAddr: 0x1000188D4, symSize: 0x3C }
  - { offset: 0x37C15, size: 0x8, addend: 0x0, symName: __ZNSt3__122__make_exception_guardB8ne180100INS_29_AllocatorDestroyRangeReverseINS_9allocatorINS_4pairINS_6vectorINS_10shared_ptrI5ValueEENS2_IS7_EEEES9_EEEENS_16reverse_iteratorIPSA_EEEEEENS_28__exception_guard_exceptionsIT_EESH_, symObjAddr: 0x17658, symBinAddr: 0x100018924, symSize: 0x4C }
  - { offset: 0x37C4B, size: 0x8, addend: 0x0, symName: __ZNSt3__1neB8ne180100IPNS_4pairINS_6vectorINS_10shared_ptrI5ValueEENS_9allocatorIS5_EEEES8_EESA_EEbRKNS_16reverse_iteratorIT_EERKNSB_IT0_EE, symObjAddr: 0x176E8, symBinAddr: 0x1000189B4, symSize: 0x48 }
  - { offset: 0x37C97, size: 0x8, addend: 0x0, symName: __ZNSt3__112__to_addressB8ne180100INS_16reverse_iteratorIPNS_4pairINS_6vectorINS_10shared_ptrI5ValueEENS_9allocatorIS6_EEEES9_EEEEvEEu7__decayIDTclsr19__to_address_helperIT_EE6__callclsr3stdE7declvalIRKSD_EEEEESF_, symObjAddr: 0x17764, symBinAddr: 0x100018A30, symSize: 0x24 }
  - { offset: 0x37CF8, size: 0x8, addend: 0x0, symName: __ZNSt3__119__allocator_destroyB8ne180100INS_9allocatorINS_4pairINS_6vectorINS_10shared_ptrI5ValueEENS1_IS6_EEEES8_EEEENS_16reverse_iteratorINSB_IPS9_EEEESE_EEvRT_T0_T1_, symObjAddr: 0x17BB8, symBinAddr: 0x100018E84, symSize: 0x70 }
  - { offset: 0x37D5D, size: 0x8, addend: 0x0, symName: __ZNSt3__1neB8ne180100INS_16reverse_iteratorIPNS_4pairINS_6vectorINS_10shared_ptrI5ValueEENS_9allocatorIS6_EEEES9_EEEESC_EEbRKNS1_IT_EERKNS1_IT0_EE, symObjAddr: 0x17C64, symBinAddr: 0x100018F30, symSize: 0x60 }
  - { offset: 0x37DA9, size: 0x8, addend: 0x0, symName: __ZNSt3__112__to_addressB8ne180100INS_16reverse_iteratorINS1_IPNS_4pairINS_6vectorINS_10shared_ptrI5ValueEENS_9allocatorIS6_EEEES9_EEEEEEvEEu7__decayIDTclsr19__to_address_helperIT_EE6__callclsr3stdE7declvalIRKSE_EEEEESG_, symObjAddr: 0x17CF0, symBinAddr: 0x100018FBC, symSize: 0x24 }
  - { offset: 0x37EEE, size: 0x8, addend: 0x0, symName: __ZNSt3__17shuffleB8ne180100INS_11__wrap_iterIPNS_4pairINS_6vectorINS_10shared_ptrI5ValueEENS_9allocatorIS6_EEEES9_EEEERNS_23mersenne_twister_engineIjLm32ELm624ELm397ELm31ELj2567483615ELm11ELj4294967295ELm7ELj2636928640ELm15ELj4022730752ELm18ELj1812433253EEEEEvT_SG_OT0_, symObjAddr: 0x186C4, symBinAddr: 0x100019990, symSize: 0x48 }
  - { offset: 0x37F44, size: 0x8, addend: 0x0, symName: __ZNSt3__1miB8ne180100IPNS_4pairINS_6vectorINS_10shared_ptrI5ValueEENS_9allocatorIS5_EEEES8_EESA_EEDTmicldtfp_4baseEcldtfp0_4baseEERKNS_11__wrap_iterIT_EERKNSC_IT0_EE, symObjAddr: 0x18914, symBinAddr: 0x100019BE0, symSize: 0x48 }
  - { offset: 0x37F90, size: 0x8, addend: 0x0, symName: __ZNSt3__1ltB8ne180100IPNS_4pairINS_6vectorINS_10shared_ptrI5ValueEENS_9allocatorIS5_EEEES8_EEEEbRKNS_11__wrap_iterIT_EESF_, symObjAddr: 0x189B8, symBinAddr: 0x100019C84, symSize: 0x48 }
  - { offset: 0x37FD3, size: 0x8, addend: 0x0, symName: __ZNSt3__113__countl_zeroB8ne180100ImEEiT_, symObjAddr: 0x18D70, symBinAddr: 0x10001A03C, symSize: 0x54 }
  - { offset: 0x38008, size: 0x8, addend: 0x0, symName: __ZNSt3__19iter_swapB8ne180100INS_11__wrap_iterIPNS_4pairINS_6vectorINS_10shared_ptrI5ValueEENS_9allocatorIS6_EEEES9_EEEESC_EEvT_T0_, symObjAddr: 0x19420, symBinAddr: 0x10001A6EC, symSize: 0x50 }
  - { offset: 0x38051, size: 0x8, addend: 0x0, symName: __ZNSt3__14swapB8ne180100INS_6vectorINS_10shared_ptrI5ValueEENS_9allocatorIS4_EEEES7_Li0EEEvRNS_4pairIT_T0_EESC_, symObjAddr: 0x19470, symBinAddr: 0x10001A73C, symSize: 0x2C }
  - { offset: 0x380A3, size: 0x8, addend: 0x0, symName: __ZNSt3__14swapB8ne180100INS_10shared_ptrI5ValueEENS_9allocatorIS3_EEEEvRNS_6vectorIT_T0_EESA_, symObjAddr: 0x194F8, symBinAddr: 0x10001A7C4, symSize: 0x2C }
  - { offset: 0x380EF, size: 0x8, addend: 0x0, symName: __ZNSt3__116__swap_allocatorB8ne180100INS_9allocatorINS_10shared_ptrI5ValueEEEEEEvRT_S7_NS_17integral_constantIbLb0EEE, symObjAddr: 0x195A8, symBinAddr: 0x10001A874, symSize: 0x14 }
  - { offset: 0x38130, size: 0x8, addend: 0x0, symName: __ZNSt3__1neB8ne180100IPKiEEbRKNS_11__wrap_iterIT_EES7_, symObjAddr: 0x198E4, symBinAddr: 0x10001ABB0, symSize: 0x34 }
  - { offset: 0x38173, size: 0x8, addend: 0x0, symName: __ZNSt3__111make_sharedB8ne180100I6LinearJRiS2_EvEENS_10shared_ptrIT_EEDpOT0_, symObjAddr: 0x199C0, symBinAddr: 0x10001AC8C, symSize: 0x48 }
  - { offset: 0x381CA, size: 0x8, addend: 0x0, symName: __ZNSt3__18distanceB8ne180100IPiEENS_15iterator_traitsIT_E15difference_typeES3_S3_, symObjAddr: 0x19F04, symBinAddr: 0x10001B1D0, symSize: 0x2C }
  - { offset: 0x3820D, size: 0x8, addend: 0x0, symName: __ZNSt3__14nextB8ne180100IPiLi0EEET_S2_NS_15iterator_traitsIS2_E15difference_typeE, symObjAddr: 0x19F30, symBinAddr: 0x10001B1FC, symSize: 0x34 }
  - { offset: 0x38256, size: 0x8, addend: 0x0, symName: __ZNSt3__121__convert_to_integralB8ne180100El, symObjAddr: 0x1A130, symBinAddr: 0x10001B3FC, symSize: 0x14 }
  - { offset: 0x38283, size: 0x8, addend: 0x0, symName: __ZNSt3__19__advanceB8ne180100IPiEEvRT_NS_15iterator_traitsIS2_E15difference_typeENS_26random_access_iterator_tagE, symObjAddr: 0x1A144, symBinAddr: 0x10001B410, symSize: 0x28 }
  - { offset: 0x382CC, size: 0x8, addend: 0x0, symName: __ZNSt3__110__distanceB8ne180100IPiEENS_15iterator_traitsIT_E15difference_typeES3_S3_NS_26random_access_iterator_tagE, symObjAddr: 0x1A1C4, symBinAddr: 0x10001B490, symSize: 0x28 }
  - { offset: 0x38319, size: 0x8, addend: 0x0, symName: __ZNSt3__1eqB8ne180100IPKiEEbRKNS_11__wrap_iterIT_EES7_, symObjAddr: 0x1A270, symBinAddr: 0x10001B53C, symSize: 0x48 }
  - { offset: 0x3835C, size: 0x8, addend: 0x0, symName: __ZNSt3__112__to_addressB8ne180100INS_10shared_ptrI6LinearEEEEPT_S5_, symObjAddr: 0x1A540, symBinAddr: 0x10001B80C, symSize: 0x14 }
  - { offset: 0x38391, size: 0x8, addend: 0x0, symName: __ZNSt3__119__allocate_at_leastB8ne180100INS_9allocatorINS_10shared_ptrI6LinearEEEEEENS_19__allocation_resultINS_16allocator_traitsIT_E7pointerEEERS8_m, symObjAddr: 0x1ABE0, symBinAddr: 0x10001BEAC, symSize: 0x40 }
  - { offset: 0x383D4, size: 0x8, addend: 0x0, symName: __ZNSt3__142__uninitialized_allocator_move_if_noexceptB8ne180100INS_9allocatorINS_10shared_ptrI6LinearEEEENS_16reverse_iteratorIPS4_EES8_S8_EET2_RT_T0_T1_S9_, symObjAddr: 0x1ADA4, symBinAddr: 0x10001C070, symSize: 0x12C }
  - { offset: 0x38474, size: 0x8, addend: 0x0, symName: __ZNSt3__14swapB8ne180100IPNS_10shared_ptrI6LinearEEEENS_9enable_ifIXaasr21is_move_constructibleIT_EE5valuesr18is_move_assignableIS6_EE5valueEvE4typeERS6_S9_, symObjAddr: 0x1AF1C, symBinAddr: 0x10001C1E8, symSize: 0x3C }
  - { offset: 0x384C5, size: 0x8, addend: 0x0, symName: __ZNSt3__122__make_exception_guardB8ne180100INS_29_AllocatorDestroyRangeReverseINS_9allocatorINS_10shared_ptrI6LinearEEEENS_16reverse_iteratorIPS5_EEEEEENS_28__exception_guard_exceptionsIT_EESC_, symObjAddr: 0x1AF6C, symBinAddr: 0x10001C238, symSize: 0x4C }
  - { offset: 0x384FB, size: 0x8, addend: 0x0, symName: __ZNSt3__1neB8ne180100IPNS_10shared_ptrI6LinearEES4_EEbRKNS_16reverse_iteratorIT_EERKNS5_IT0_EE, symObjAddr: 0x1AFFC, symBinAddr: 0x10001C2C8, symSize: 0x48 }
  - { offset: 0x38547, size: 0x8, addend: 0x0, symName: __ZNSt3__112__to_addressB8ne180100INS_16reverse_iteratorIPNS_10shared_ptrI6LinearEEEEvEEu7__decayIDTclsr19__to_address_helperIT_EE6__callclsr3stdE7declvalIRKS7_EEEEES9_, symObjAddr: 0x1B044, symBinAddr: 0x10001C310, symSize: 0x24 }
  - { offset: 0x385A8, size: 0x8, addend: 0x0, symName: __ZNSt3__119__allocator_destroyB8ne180100INS_9allocatorINS_10shared_ptrI6LinearEEEENS_16reverse_iteratorINS6_IPS4_EEEES9_EEvRT_T0_T1_, symObjAddr: 0x1B2F4, symBinAddr: 0x10001C5C0, symSize: 0x70 }
  - { offset: 0x3860D, size: 0x8, addend: 0x0, symName: __ZNSt3__1neB8ne180100INS_16reverse_iteratorIPNS_10shared_ptrI6LinearEEEES6_EEbRKNS1_IT_EERKNS1_IT0_EE, symObjAddr: 0x1B3A0, symBinAddr: 0x10001C66C, symSize: 0x60 }
  - { offset: 0x38659, size: 0x8, addend: 0x0, symName: __ZNSt3__112__to_addressB8ne180100INS_16reverse_iteratorINS1_IPNS_10shared_ptrI6LinearEEEEEEvEEu7__decayIDTclsr19__to_address_helperIT_EE6__callclsr3stdE7declvalIRKS8_EEEEESA_, symObjAddr: 0x1B42C, symBinAddr: 0x10001C6F8, symSize: 0x24 }
  - { offset: 0x386B9, size: 0x8, addend: 0x0, symName: __ZNSt3__115allocate_sharedB8ne180100I6LinearNS_9allocatorIS1_EEJRiS4_EvEENS_10shared_ptrIT_EERKT0_DpOT1_, symObjAddr: 0x1B830, symBinAddr: 0x10001CAFC, symSize: 0xA0 }
  - { offset: 0x38CBB, size: 0x8, addend: 0x0, symName: __ZNSt3__111make_sharedB8ne180100I5ValueJdRA2_KcEvEENS_10shared_ptrIT_EEDpOT0_, symObjAddr: 0x1C26C, symBinAddr: 0x10001D538, symSize: 0x48 }
  - { offset: 0x38D12, size: 0x8, addend: 0x0, symName: __ZNSt3__115allocate_sharedB8ne180100I5ValueNS_9allocatorIS1_EEJdRA2_KcEvEENS_10shared_ptrIT_EERKT0_DpOT1_, symObjAddr: 0x1C594, symBinAddr: 0x10001D860, symSize: 0xA0 }
  - { offset: 0x38D9F, size: 0x8, addend: 0x0, symName: __ZNSt3__118generate_canonicalB8ne180100IdLm53ENS_23mersenne_twister_engineIjLm32ELm624ELm397ELm31ELj2567483615ELm11ELj4294967295ELm7ELj2636928640ELm15ELj4022730752ELm18ELj1812433253EEEEET_RT1_, symObjAddr: 0x1C894, symBinAddr: 0x10001DB60, symSize: 0x114 }
  - { offset: 0x38E65, size: 0x8, addend: 0x0, symName: __ZNSt3__112__to_addressB8ne180100INS_6vectorINS_10shared_ptrI5ValueEENS_9allocatorIS4_EEEEEEPT_S9_, symObjAddr: 0x1CC20, symBinAddr: 0x10001DEEC, symSize: 0x14 }
  - { offset: 0x38E9A, size: 0x8, addend: 0x0, symName: __ZNSt3__119__allocate_at_leastB8ne180100INS_9allocatorINS_6vectorINS_10shared_ptrI5ValueEENS1_IS5_EEEEEEEENS_19__allocation_resultINS_16allocator_traitsIT_E7pointerEEERSB_m, symObjAddr: 0x1D264, symBinAddr: 0x10001E530, symSize: 0x40 }
  - { offset: 0x38EDD, size: 0x8, addend: 0x0, symName: __ZNSt3__142__uninitialized_allocator_move_if_noexceptB8ne180100INS_9allocatorINS_6vectorINS_10shared_ptrI5ValueEENS1_IS5_EEEEEENS_16reverse_iteratorIPS7_EESB_SB_EET2_RT_T0_T1_SC_, symObjAddr: 0x1D42C, symBinAddr: 0x10001E6F8, symSize: 0x12C }
  - { offset: 0x38F7D, size: 0x8, addend: 0x0, symName: __ZNSt3__14swapB8ne180100IPNS_6vectorINS_10shared_ptrI5ValueEENS_9allocatorIS4_EEEEEENS_9enable_ifIXaasr21is_move_constructibleIT_EE5valuesr18is_move_assignableISA_EE5valueEvE4typeERSA_SD_, symObjAddr: 0x1D5A4, symBinAddr: 0x10001E870, symSize: 0x3C }
  - { offset: 0x38FCE, size: 0x8, addend: 0x0, symName: __ZNSt3__122__make_exception_guardB8ne180100INS_29_AllocatorDestroyRangeReverseINS_9allocatorINS_6vectorINS_10shared_ptrI5ValueEENS2_IS6_EEEEEENS_16reverse_iteratorIPS8_EEEEEENS_28__exception_guard_exceptionsIT_EESF_, symObjAddr: 0x1D5F4, symBinAddr: 0x10001E8C0, symSize: 0x4C }
  - { offset: 0x39004, size: 0x8, addend: 0x0, symName: __ZNSt3__1neB8ne180100IPNS_6vectorINS_10shared_ptrI5ValueEENS_9allocatorIS4_EEEES8_EEbRKNS_16reverse_iteratorIT_EERKNS9_IT0_EE, symObjAddr: 0x1D684, symBinAddr: 0x10001E950, symSize: 0x48 }
  - { offset: 0x39050, size: 0x8, addend: 0x0, symName: __ZNSt3__112__to_addressB8ne180100INS_16reverse_iteratorIPNS_6vectorINS_10shared_ptrI5ValueEENS_9allocatorIS5_EEEEEEvEEu7__decayIDTclsr19__to_address_helperIT_EE6__callclsr3stdE7declvalIRKSB_EEEEESD_, symObjAddr: 0x1D700, symBinAddr: 0x10001E9CC, symSize: 0x24 }
  - { offset: 0x390B1, size: 0x8, addend: 0x0, symName: __ZNSt3__119__allocator_destroyB8ne180100INS_9allocatorINS_6vectorINS_10shared_ptrI5ValueEENS1_IS5_EEEEEENS_16reverse_iteratorINS9_IPS7_EEEESC_EEvRT_T0_T1_, symObjAddr: 0x1D9E0, symBinAddr: 0x10001ECAC, symSize: 0x70 }
  - { offset: 0x39116, size: 0x8, addend: 0x0, symName: __ZNSt3__1neB8ne180100INS_16reverse_iteratorIPNS_6vectorINS_10shared_ptrI5ValueEENS_9allocatorIS5_EEEEEESA_EEbRKNS1_IT_EERKNS1_IT0_EE, symObjAddr: 0x1DA8C, symBinAddr: 0x10001ED58, symSize: 0x60 }
  - { offset: 0x39162, size: 0x8, addend: 0x0, symName: __ZNSt3__112__to_addressB8ne180100INS_16reverse_iteratorINS1_IPNS_6vectorINS_10shared_ptrI5ValueEENS_9allocatorIS5_EEEEEEEEvEEu7__decayIDTclsr19__to_address_helperIT_EE6__callclsr3stdE7declvalIRKSC_EEEEESE_, symObjAddr: 0x1DB18, symBinAddr: 0x10001EDE4, symSize: 0x24 }
  - { offset: 0x391F5, size: 0x8, addend: 0x0, symName: __ZNSt3__111make_sharedB8ne180100I5ValueJdEvEENS_10shared_ptrIT_EEDpOT0_, symObjAddr: 0x1FD88, symBinAddr: 0x100021054, symSize: 0x40 }
  - { offset: 0x39238, size: 0x8, addend: 0x0, symName: __ZNSt3__115allocate_sharedB8ne180100I5ValueNS_9allocatorIS1_EEJdEvEENS_10shared_ptrIT_EERKT0_DpOT1_, symObjAddr: 0x1FF50, symBinAddr: 0x10002121C, symSize: 0x98 }
  - { offset: 0x392B1, size: 0x8, addend: 0x0, symName: __ZNSt3__1eqB8ne180100IPNS_10shared_ptrI5ValueEEEEbRKNS_11__wrap_iterIT_EES9_, symObjAddr: 0x20194, symBinAddr: 0x100021460, symSize: 0x48 }
  - { offset: 0x392F4, size: 0x8, addend: 0x0, symName: __ZNSt3__14findB8ne180100INS_11__wrap_iterIPNS_10shared_ptrI5ValueEEEES4_EET_S7_S7_RKT0_, symObjAddr: 0x201DC, symBinAddr: 0x1000214A8, symSize: 0x78 }
  - { offset: 0x3935C, size: 0x8, addend: 0x0, symName: __ZNSt3__113__rewrap_iterB8ne180100INS_11__wrap_iterIPNS_10shared_ptrI5ValueEEEES5_NS_18__unwrap_iter_implIS6_Lb1EEEEET_S9_T0_, symObjAddr: 0x202CC, symBinAddr: 0x100021598, symSize: 0x4C }
  - { offset: 0x393B1, size: 0x8, addend: 0x0, symName: __ZNSt3__111__find_implB8ne180100IPNS_10shared_ptrI5ValueEES4_S3_NS_10__identityEEET_S6_T0_RKT1_RT2_, symObjAddr: 0x20318, symBinAddr: 0x1000215E4, symSize: 0x7C }
  - { offset: 0x3942B, size: 0x8, addend: 0x0, symName: __ZNSt3__113__unwrap_iterB8ne180100INS_11__wrap_iterIPNS_10shared_ptrI5ValueEEEENS_18__unwrap_iter_implIS6_Lb1EEELi0EEEDTclsrT0_8__unwrapclsr3stdE7declvalIT_EEEESA_, symObjAddr: 0x20394, symBinAddr: 0x100021660, symSize: 0x2C }
  - { offset: 0x394C2, size: 0x8, addend: 0x0, symName: __ZNSt3__112__to_addressB8ne180100INS_11__wrap_iterIPNS_10shared_ptrI5ValueEEEEvEEu7__decayIDTclsr19__to_address_helperIT_EE6__callclsr3stdE7declvalIRKS7_EEEEES9_, symObjAddr: 0x20458, symBinAddr: 0x100021724, symSize: 0x24 }
  - { offset: 0x3959E, size: 0x8, addend: 0x0, symName: __ZNSt3__1eqB8ne180100I5ValueS1_EEbRKNS_10shared_ptrIT_EERKNS2_IT0_EE, symObjAddr: 0x20500, symBinAddr: 0x1000217CC, symSize: 0x48 }
  - { offset: 0x395ED, size: 0x8, addend: 0x0, symName: __ZNSt3__18__invokeB8ne180100IRNS_10__identityEJRNS_10shared_ptrI5ValueEEEEEDTclclsr3stdE7declvalIT_EEspclsr3stdE7declvalIT0_EEEEOS7_DpOS8_, symObjAddr: 0x20548, symBinAddr: 0x100021814, symSize: 0x2C }
  - { offset: 0x39CAA, size: 0x8, addend: 0x0, symName: __ZNSt3__116forward_as_tupleB8ne180100IJZplRKNS_10shared_ptrI5ValueEES5_EUlvE_EEENS_5tupleIJDpOT_EEESA_, symObjAddr: 0x2113C, symBinAddr: 0x100022408, symSize: 0x2C }
  - { offset: 0x39CE3, size: 0x8, addend: 0x0, symName: __ZNSt3__116forward_as_tupleB8ne180100IJNS_9allocatorIZplRKNS_10shared_ptrI5ValueEES6_EUlvE_EEEEENS_5tupleIJDpOT_EEESC_, symObjAddr: 0x21168, symBinAddr: 0x100022434, symSize: 0x2C }
  - { offset: 0x39D46, size: 0x8, addend: 0x0, symName: __ZNSt3__13getB8ne180100ILm0EJOZplRKNS_10shared_ptrI5ValueEES5_EUlvE_EEERNS_13tuple_elementIXT_ENS_5tupleIJDpT0_EEEE4typeERSC_, symObjAddr: 0x214D4, symBinAddr: 0x1000227A0, symSize: 0x24 }
  - { offset: 0x39D88, size: 0x8, addend: 0x0, symName: __ZNSt3__13getB8ne180100ILm0EJONS_9allocatorIZplRKNS_10shared_ptrI5ValueEES6_EUlvE_EEEEERNS_13tuple_elementIXT_ENS_5tupleIJDpT0_EEEE4typeERSE_, symObjAddr: 0x21510, symBinAddr: 0x1000227DC, symSize: 0x24 }
  - { offset: 0x39F4E, size: 0x8, addend: 0x0, symName: __ZNSt3__116forward_as_tupleB8ne180100IJRKZplRKNS_10shared_ptrI5ValueEES5_EUlvE_EEENS_5tupleIJDpOT_EEESC_, symObjAddr: 0x219D0, symBinAddr: 0x100022C9C, symSize: 0x2C }
  - { offset: 0x39F9C, size: 0x8, addend: 0x0, symName: __ZNSt3__13getB8ne180100ILm0EJRKZplRKNS_10shared_ptrI5ValueEES5_EUlvE_EEERNS_13tuple_elementIXT_ENS_5tupleIJDpT0_EEEE4typeERSD_, symObjAddr: 0x21BC0, symBinAddr: 0x100022E8C, symSize: 0x24 }
  - { offset: 0x39FDE, size: 0x8, addend: 0x0, symName: __ZNSt3__116forward_as_tupleB8ne180100IJRKNS_9allocatorIZplRKNS_10shared_ptrI5ValueEES6_EUlvE_EEEEENS_5tupleIJDpOT_EEESE_, symObjAddr: 0x21FA8, symBinAddr: 0x100023274, symSize: 0x2C }
  - { offset: 0x3A02C, size: 0x8, addend: 0x0, symName: __ZNSt3__13getB8ne180100ILm0EJRKNS_9allocatorIZplRKNS_10shared_ptrI5ValueEES6_EUlvE_EEEEERNS_13tuple_elementIXT_ENS_5tupleIJDpT0_EEEE4typeERSF_, symObjAddr: 0x221B4, symBinAddr: 0x100023480, symSize: 0x24 }
  - { offset: 0x3A06F, size: 0x8, addend: 0x0, symName: __ZNSt3__18__invokeB8ne180100IRZplRKNS_10shared_ptrI5ValueEES5_EUlvE_JEEEDTclclsr3stdE7declvalIT_EEspclsr3stdE7declvalIT0_EEEEOS8_DpOS9_, symObjAddr: 0x22284, symBinAddr: 0x100023550, symSize: 0x24 }
  - { offset: 0x3A0A7, size: 0x8, addend: 0x0, symName: __ZNSt3__14swapB8ne180100IPNS_10__function6__baseIFvvEEEEENS_9enable_ifIXaasr21is_move_constructibleIT_EE5valuesr18is_move_assignableIS7_EE5valueEvE4typeERS7_SA_, symObjAddr: 0x22720, symBinAddr: 0x1000239EC, symSize: 0x3C }
  - { offset: 0x3A72C, size: 0x8, addend: 0x0, symName: __ZNSt3__116forward_as_tupleB8ne180100IJZmlRKNS_10shared_ptrI5ValueEES5_EUlvE_EEENS_5tupleIJDpOT_EEESA_, symObjAddr: 0x2334C, symBinAddr: 0x100024618, symSize: 0x2C }
  - { offset: 0x3A765, size: 0x8, addend: 0x0, symName: __ZNSt3__116forward_as_tupleB8ne180100IJNS_9allocatorIZmlRKNS_10shared_ptrI5ValueEES6_EUlvE_EEEEENS_5tupleIJDpOT_EEESC_, symObjAddr: 0x23378, symBinAddr: 0x100024644, symSize: 0x2C }
  - { offset: 0x3A7C8, size: 0x8, addend: 0x0, symName: __ZNSt3__13getB8ne180100ILm0EJOZmlRKNS_10shared_ptrI5ValueEES5_EUlvE_EEERNS_13tuple_elementIXT_ENS_5tupleIJDpT0_EEEE4typeERSC_, symObjAddr: 0x236E4, symBinAddr: 0x1000249B0, symSize: 0x24 }
  - { offset: 0x3A80A, size: 0x8, addend: 0x0, symName: __ZNSt3__13getB8ne180100ILm0EJONS_9allocatorIZmlRKNS_10shared_ptrI5ValueEES6_EUlvE_EEEEERNS_13tuple_elementIXT_ENS_5tupleIJDpT0_EEEE4typeERSE_, symObjAddr: 0x23720, symBinAddr: 0x1000249EC, symSize: 0x24 }
  - { offset: 0x3A9D0, size: 0x8, addend: 0x0, symName: __ZNSt3__116forward_as_tupleB8ne180100IJRKZmlRKNS_10shared_ptrI5ValueEES5_EUlvE_EEENS_5tupleIJDpOT_EEESC_, symObjAddr: 0x23BE0, symBinAddr: 0x100024EAC, symSize: 0x2C }
  - { offset: 0x3AA1E, size: 0x8, addend: 0x0, symName: __ZNSt3__13getB8ne180100ILm0EJRKZmlRKNS_10shared_ptrI5ValueEES5_EUlvE_EEERNS_13tuple_elementIXT_ENS_5tupleIJDpT0_EEEE4typeERSD_, symObjAddr: 0x23DD0, symBinAddr: 0x10002509C, symSize: 0x24 }
  - { offset: 0x3AA60, size: 0x8, addend: 0x0, symName: __ZNSt3__116forward_as_tupleB8ne180100IJRKNS_9allocatorIZmlRKNS_10shared_ptrI5ValueEES6_EUlvE_EEEEENS_5tupleIJDpOT_EEESE_, symObjAddr: 0x241B8, symBinAddr: 0x100025484, symSize: 0x2C }
  - { offset: 0x3AAAE, size: 0x8, addend: 0x0, symName: __ZNSt3__13getB8ne180100ILm0EJRKNS_9allocatorIZmlRKNS_10shared_ptrI5ValueEES6_EUlvE_EEEEERNS_13tuple_elementIXT_ENS_5tupleIJDpT0_EEEE4typeERSF_, symObjAddr: 0x243C4, symBinAddr: 0x100025690, symSize: 0x24 }
  - { offset: 0x3AAF1, size: 0x8, addend: 0x0, symName: __ZNSt3__18__invokeB8ne180100IRZmlRKNS_10shared_ptrI5ValueEES5_EUlvE_JEEEDTclclsr3stdE7declvalIT_EEspclsr3stdE7declvalIT0_EEEEOS8_DpOS9_, symObjAddr: 0x24494, symBinAddr: 0x100025760, symSize: 0x24 }
  - { offset: 0x3AB29, size: 0x8, addend: 0x0, symName: __ZNSt3__1neB8ne180100IPKNS_10shared_ptrI5ValueEEEEbRKNS_11__wrap_iterIT_EESA_, symObjAddr: 0x24ACC, symBinAddr: 0x100025D98, symSize: 0x34 }
  - { offset: 0x3AB6C, size: 0x8, addend: 0x0, symName: __ZNSt3__111make_sharedB8ne180100I5ValueJRdEvEENS_10shared_ptrIT_EEDpOT0_, symObjAddr: 0x24B18, symBinAddr: 0x100025DE4, symSize: 0x40 }
  - { offset: 0x3ABAF, size: 0x8, addend: 0x0, symName: __ZNSt3__1eqB8ne180100IPKNS_10shared_ptrI5ValueEEEEbRKNS_11__wrap_iterIT_EESA_, symObjAddr: 0x24CE8, symBinAddr: 0x100025FB4, symSize: 0x48 }
  - { offset: 0x3ABF2, size: 0x8, addend: 0x0, symName: __ZNSt3__115allocate_sharedB8ne180100I5ValueNS_9allocatorIS1_EEJRdEvEENS_10shared_ptrIT_EERKT0_DpOT1_, symObjAddr: 0x24D48, symBinAddr: 0x100026014, symSize: 0x98 }
  - { offset: 0x3B29F, size: 0x8, addend: 0x0, symName: __ZNSt3__116forward_as_tupleB8ne180100IJZ4reluRKNS_6vectorINS_10shared_ptrI5ValueEENS_9allocatorIS4_EEEEEUlvE_EEENS_5tupleIJDpOT_EEESE_, symObjAddr: 0x25A30, symBinAddr: 0x100026CFC, symSize: 0x2C }
  - { offset: 0x3B2D8, size: 0x8, addend: 0x0, symName: __ZNSt3__116forward_as_tupleB8ne180100IJNS_9allocatorIZ4reluRKNS_6vectorINS_10shared_ptrI5ValueEENS1_IS5_EEEEEUlvE_EEEEENS_5tupleIJDpOT_EEESF_, symObjAddr: 0x25A5C, symBinAddr: 0x100026D28, symSize: 0x2C }
  - { offset: 0x3B33B, size: 0x8, addend: 0x0, symName: __ZNSt3__13getB8ne180100ILm0EJOZ4reluRKNS_6vectorINS_10shared_ptrI5ValueEENS_9allocatorIS4_EEEEEUlvE_EEERNS_13tuple_elementIXT_ENS_5tupleIJDpT0_EEEE4typeERSG_, symObjAddr: 0x25DC8, symBinAddr: 0x100027094, symSize: 0x24 }
  - { offset: 0x3B37D, size: 0x8, addend: 0x0, symName: __ZNSt3__13getB8ne180100ILm0EJONS_9allocatorIZ4reluRKNS_6vectorINS_10shared_ptrI5ValueEENS1_IS5_EEEEEUlvE_EEEEERNS_13tuple_elementIXT_ENS_5tupleIJDpT0_EEEE4typeERSH_, symObjAddr: 0x25E04, symBinAddr: 0x1000270D0, symSize: 0x24 }
  - { offset: 0x3B543, size: 0x8, addend: 0x0, symName: __ZNSt3__116forward_as_tupleB8ne180100IJRKZ4reluRKNS_6vectorINS_10shared_ptrI5ValueEENS_9allocatorIS4_EEEEEUlvE_EEENS_5tupleIJDpOT_EEESG_, symObjAddr: 0x262C4, symBinAddr: 0x100027590, symSize: 0x2C }
  - { offset: 0x3B591, size: 0x8, addend: 0x0, symName: __ZNSt3__13getB8ne180100ILm0EJRKZ4reluRKNS_6vectorINS_10shared_ptrI5ValueEENS_9allocatorIS4_EEEEEUlvE_EEERNS_13tuple_elementIXT_ENS_5tupleIJDpT0_EEEE4typeERSH_, symObjAddr: 0x264B4, symBinAddr: 0x100027780, symSize: 0x24 }
  - { offset: 0x3B5D3, size: 0x8, addend: 0x0, symName: __ZNSt3__116forward_as_tupleB8ne180100IJRKNS_9allocatorIZ4reluRKNS_6vectorINS_10shared_ptrI5ValueEENS1_IS5_EEEEEUlvE_EEEEENS_5tupleIJDpOT_EEESH_, symObjAddr: 0x26888, symBinAddr: 0x100027B54, symSize: 0x2C }
  - { offset: 0x3B621, size: 0x8, addend: 0x0, symName: __ZNSt3__13getB8ne180100ILm0EJRKNS_9allocatorIZ4reluRKNS_6vectorINS_10shared_ptrI5ValueEENS1_IS5_EEEEEUlvE_EEEEERNS_13tuple_elementIXT_ENS_5tupleIJDpT0_EEEE4typeERSI_, symObjAddr: 0x26A94, symBinAddr: 0x100027D60, symSize: 0x24 }
  - { offset: 0x3B664, size: 0x8, addend: 0x0, symName: __ZNSt3__18__invokeB8ne180100IRZ4reluRKNS_6vectorINS_10shared_ptrI5ValueEENS_9allocatorIS4_EEEEEUlvE_JEEEDTclclsr3stdE7declvalIT_EEspclsr3stdE7declvalIT0_EEEEOSC_DpOSD_, symObjAddr: 0x26B64, symBinAddr: 0x100027E30, symSize: 0x24 }
  - { offset: 0x3BCD0, size: 0x8, addend: 0x0, symName: __ZNSt3__116forward_as_tupleB8ne180100IJZ7dropoutRKNS_6vectorINS_10shared_ptrI5ValueEENS_9allocatorIS4_EEEEdbEUlvE_EEENS_5tupleIJDpOT_EEESE_, symObjAddr: 0x27A40, symBinAddr: 0x100028D0C, symSize: 0x2C }
  - { offset: 0x3BD09, size: 0x8, addend: 0x0, symName: __ZNSt3__116forward_as_tupleB8ne180100IJNS_9allocatorIZ7dropoutRKNS_6vectorINS_10shared_ptrI5ValueEENS1_IS5_EEEEdbEUlvE_EEEEENS_5tupleIJDpOT_EEESF_, symObjAddr: 0x27A6C, symBinAddr: 0x100028D38, symSize: 0x2C }
  - { offset: 0x3BD6C, size: 0x8, addend: 0x0, symName: __ZNSt3__13getB8ne180100ILm0EJOZ7dropoutRKNS_6vectorINS_10shared_ptrI5ValueEENS_9allocatorIS4_EEEEdbEUlvE_EEERNS_13tuple_elementIXT_ENS_5tupleIJDpT0_EEEE4typeERSG_, symObjAddr: 0x27DD8, symBinAddr: 0x1000290A4, symSize: 0x24 }
  - { offset: 0x3BDAE, size: 0x8, addend: 0x0, symName: __ZNSt3__13getB8ne180100ILm0EJONS_9allocatorIZ7dropoutRKNS_6vectorINS_10shared_ptrI5ValueEENS1_IS5_EEEEdbEUlvE_EEEEERNS_13tuple_elementIXT_ENS_5tupleIJDpT0_EEEE4typeERSH_, symObjAddr: 0x27E14, symBinAddr: 0x1000290E0, symSize: 0x24 }
  - { offset: 0x3BF74, size: 0x8, addend: 0x0, symName: __ZNSt3__116forward_as_tupleB8ne180100IJRKZ7dropoutRKNS_6vectorINS_10shared_ptrI5ValueEENS_9allocatorIS4_EEEEdbEUlvE_EEENS_5tupleIJDpOT_EEESG_, symObjAddr: 0x282D4, symBinAddr: 0x1000295A0, symSize: 0x2C }
  - { offset: 0x3BFC2, size: 0x8, addend: 0x0, symName: __ZNSt3__13getB8ne180100ILm0EJRKZ7dropoutRKNS_6vectorINS_10shared_ptrI5ValueEENS_9allocatorIS4_EEEEdbEUlvE_EEERNS_13tuple_elementIXT_ENS_5tupleIJDpT0_EEEE4typeERSH_, symObjAddr: 0x284C4, symBinAddr: 0x100029790, symSize: 0x24 }
  - { offset: 0x3C004, size: 0x8, addend: 0x0, symName: __ZNSt3__116forward_as_tupleB8ne180100IJRKNS_9allocatorIZ7dropoutRKNS_6vectorINS_10shared_ptrI5ValueEENS1_IS5_EEEEdbEUlvE_EEEEENS_5tupleIJDpOT_EEESH_, symObjAddr: 0x288A8, symBinAddr: 0x100029B74, symSize: 0x2C }
  - { offset: 0x3C052, size: 0x8, addend: 0x0, symName: __ZNSt3__13getB8ne180100ILm0EJRKNS_9allocatorIZ7dropoutRKNS_6vectorINS_10shared_ptrI5ValueEENS1_IS5_EEEEdbEUlvE_EEEEERNS_13tuple_elementIXT_ENS_5tupleIJDpT0_EEEE4typeERSI_, symObjAddr: 0x28AB4, symBinAddr: 0x100029D80, symSize: 0x24 }
  - { offset: 0x3C095, size: 0x8, addend: 0x0, symName: __ZNSt3__18__invokeB8ne180100IRZ7dropoutRKNS_6vectorINS_10shared_ptrI5ValueEENS_9allocatorIS4_EEEEdbEUlvE_JEEEDTclclsr3stdE7declvalIT_EEspclsr3stdE7declvalIT0_EEEEOSC_DpOSD_, symObjAddr: 0x28B84, symBinAddr: 0x100029E50, symSize: 0x24 }
  - { offset: 0x3C0CE, size: 0x8, addend: 0x0, symName: __ZNSt3__120__throw_bad_weak_ptrB8ne180100Ev, symObjAddr: 0x291A8, symBinAddr: 0x10002A474, symSize: 0x38 }
  - { offset: 0x3C7A0, size: 0x8, addend: 0x0, symName: __ZNSt3__116forward_as_tupleB8ne180100IJZN5Value3expEvEUlvE_EEENS_5tupleIJDpOT_EEES6_, symObjAddr: 0x29D10, symBinAddr: 0x10002AFDC, symSize: 0x2C }
  - { offset: 0x3C7D9, size: 0x8, addend: 0x0, symName: __ZNSt3__116forward_as_tupleB8ne180100IJNS_9allocatorIZN5Value3expEvEUlvE_EEEEENS_5tupleIJDpOT_EEES8_, symObjAddr: 0x29D3C, symBinAddr: 0x10002B008, symSize: 0x2C }
  - { offset: 0x3C83C, size: 0x8, addend: 0x0, symName: __ZNSt3__13getB8ne180100ILm0EJOZN5Value3expEvEUlvE_EEERNS_13tuple_elementIXT_ENS_5tupleIJDpT0_EEEE4typeERS8_, symObjAddr: 0x2A0A8, symBinAddr: 0x10002B374, symSize: 0x24 }
  - { offset: 0x3C87E, size: 0x8, addend: 0x0, symName: __ZNSt3__13getB8ne180100ILm0EJONS_9allocatorIZN5Value3expEvEUlvE_EEEEERNS_13tuple_elementIXT_ENS_5tupleIJDpT0_EEEE4typeERSA_, symObjAddr: 0x2A0E4, symBinAddr: 0x10002B3B0, symSize: 0x24 }
  - { offset: 0x3CA44, size: 0x8, addend: 0x0, symName: __ZNSt3__116forward_as_tupleB8ne180100IJRKZN5Value3expEvEUlvE_EEENS_5tupleIJDpOT_EEES8_, symObjAddr: 0x2A5A4, symBinAddr: 0x10002B870, symSize: 0x2C }
  - { offset: 0x3CA92, size: 0x8, addend: 0x0, symName: __ZNSt3__13getB8ne180100ILm0EJRKZN5Value3expEvEUlvE_EEERNS_13tuple_elementIXT_ENS_5tupleIJDpT0_EEEE4typeERS9_, symObjAddr: 0x2A794, symBinAddr: 0x10002BA60, symSize: 0x24 }
  - { offset: 0x3CAD4, size: 0x8, addend: 0x0, symName: __ZNSt3__116forward_as_tupleB8ne180100IJRKNS_9allocatorIZN5Value3expEvEUlvE_EEEEENS_5tupleIJDpOT_EEESA_, symObjAddr: 0x2AB68, symBinAddr: 0x10002BE34, symSize: 0x2C }
  - { offset: 0x3CB22, size: 0x8, addend: 0x0, symName: __ZNSt3__13getB8ne180100ILm0EJRKNS_9allocatorIZN5Value3expEvEUlvE_EEEEERNS_13tuple_elementIXT_ENS_5tupleIJDpT0_EEEE4typeERSB_, symObjAddr: 0x2AD74, symBinAddr: 0x10002C040, symSize: 0x24 }
  - { offset: 0x3CB65, size: 0x8, addend: 0x0, symName: __ZNSt3__18__invokeB8ne180100IRZN5Value3expEvEUlvE_JEEEDTclclsr3stdE7declvalIT_EEspclsr3stdE7declvalIT0_EEEEOS4_DpOS5_, symObjAddr: 0x2AE44, symBinAddr: 0x10002C110, symSize: 0x24 }
  - { offset: 0x3D1D1, size: 0x8, addend: 0x0, symName: __ZNSt3__116forward_as_tupleB8ne180100IJZdvRKNS_10shared_ptrI5ValueEES5_EUlvE_EEENS_5tupleIJDpOT_EEESA_, symObjAddr: 0x2BB70, symBinAddr: 0x10002CE3C, symSize: 0x2C }
  - { offset: 0x3D20A, size: 0x8, addend: 0x0, symName: __ZNSt3__116forward_as_tupleB8ne180100IJNS_9allocatorIZdvRKNS_10shared_ptrI5ValueEES6_EUlvE_EEEEENS_5tupleIJDpOT_EEESC_, symObjAddr: 0x2BB9C, symBinAddr: 0x10002CE68, symSize: 0x2C }
  - { offset: 0x3D26D, size: 0x8, addend: 0x0, symName: __ZNSt3__13getB8ne180100ILm0EJOZdvRKNS_10shared_ptrI5ValueEES5_EUlvE_EEERNS_13tuple_elementIXT_ENS_5tupleIJDpT0_EEEE4typeERSC_, symObjAddr: 0x2BF08, symBinAddr: 0x10002D1D4, symSize: 0x24 }
  - { offset: 0x3D2AF, size: 0x8, addend: 0x0, symName: __ZNSt3__13getB8ne180100ILm0EJONS_9allocatorIZdvRKNS_10shared_ptrI5ValueEES6_EUlvE_EEEEERNS_13tuple_elementIXT_ENS_5tupleIJDpT0_EEEE4typeERSE_, symObjAddr: 0x2BF44, symBinAddr: 0x10002D210, symSize: 0x24 }
  - { offset: 0x3D475, size: 0x8, addend: 0x0, symName: __ZNSt3__116forward_as_tupleB8ne180100IJRKZdvRKNS_10shared_ptrI5ValueEES5_EUlvE_EEENS_5tupleIJDpOT_EEESC_, symObjAddr: 0x2C404, symBinAddr: 0x10002D6D0, symSize: 0x2C }
  - { offset: 0x3D4C3, size: 0x8, addend: 0x0, symName: __ZNSt3__13getB8ne180100ILm0EJRKZdvRKNS_10shared_ptrI5ValueEES5_EUlvE_EEERNS_13tuple_elementIXT_ENS_5tupleIJDpT0_EEEE4typeERSD_, symObjAddr: 0x2C5F4, symBinAddr: 0x10002D8C0, symSize: 0x24 }
  - { offset: 0x3D505, size: 0x8, addend: 0x0, symName: __ZNSt3__116forward_as_tupleB8ne180100IJRKNS_9allocatorIZdvRKNS_10shared_ptrI5ValueEES6_EUlvE_EEEEENS_5tupleIJDpOT_EEESE_, symObjAddr: 0x2C9DC, symBinAddr: 0x10002DCA8, symSize: 0x2C }
  - { offset: 0x3D553, size: 0x8, addend: 0x0, symName: __ZNSt3__13getB8ne180100ILm0EJRKNS_9allocatorIZdvRKNS_10shared_ptrI5ValueEES6_EUlvE_EEEEERNS_13tuple_elementIXT_ENS_5tupleIJDpT0_EEEE4typeERSF_, symObjAddr: 0x2CBE8, symBinAddr: 0x10002DEB4, symSize: 0x24 }
  - { offset: 0x3D596, size: 0x8, addend: 0x0, symName: __ZNSt3__18__invokeB8ne180100IRZdvRKNS_10shared_ptrI5ValueEES5_EUlvE_JEEEDTclclsr3stdE7declvalIT_EEspclsr3stdE7declvalIT0_EEEEOS8_DpOS9_, symObjAddr: 0x2CCB8, symBinAddr: 0x10002DF84, symSize: 0x24 }
  - { offset: 0x3DC02, size: 0x8, addend: 0x0, symName: __ZNSt3__116forward_as_tupleB8ne180100IJZN5Value3logEvEUlvE_EEENS_5tupleIJDpOT_EEES6_, symObjAddr: 0x2DCB4, symBinAddr: 0x10002EF80, symSize: 0x2C }
  - { offset: 0x3DC3B, size: 0x8, addend: 0x0, symName: __ZNSt3__116forward_as_tupleB8ne180100IJNS_9allocatorIZN5Value3logEvEUlvE_EEEEENS_5tupleIJDpOT_EEES8_, symObjAddr: 0x2DCE0, symBinAddr: 0x10002EFAC, symSize: 0x2C }
  - { offset: 0x3DC9E, size: 0x8, addend: 0x0, symName: __ZNSt3__13getB8ne180100ILm0EJOZN5Value3logEvEUlvE_EEERNS_13tuple_elementIXT_ENS_5tupleIJDpT0_EEEE4typeERS8_, symObjAddr: 0x2E04C, symBinAddr: 0x10002F318, symSize: 0x24 }
  - { offset: 0x3DCE0, size: 0x8, addend: 0x0, symName: __ZNSt3__13getB8ne180100ILm0EJONS_9allocatorIZN5Value3logEvEUlvE_EEEEERNS_13tuple_elementIXT_ENS_5tupleIJDpT0_EEEE4typeERSA_, symObjAddr: 0x2E088, symBinAddr: 0x10002F354, symSize: 0x24 }
  - { offset: 0x3DEA6, size: 0x8, addend: 0x0, symName: __ZNSt3__116forward_as_tupleB8ne180100IJRKZN5Value3logEvEUlvE_EEENS_5tupleIJDpOT_EEES8_, symObjAddr: 0x2E548, symBinAddr: 0x10002F814, symSize: 0x2C }
  - { offset: 0x3DEF4, size: 0x8, addend: 0x0, symName: __ZNSt3__13getB8ne180100ILm0EJRKZN5Value3logEvEUlvE_EEERNS_13tuple_elementIXT_ENS_5tupleIJDpT0_EEEE4typeERS9_, symObjAddr: 0x2E738, symBinAddr: 0x10002FA04, symSize: 0x24 }
  - { offset: 0x3DF36, size: 0x8, addend: 0x0, symName: __ZNSt3__116forward_as_tupleB8ne180100IJRKNS_9allocatorIZN5Value3logEvEUlvE_EEEEENS_5tupleIJDpOT_EEESA_, symObjAddr: 0x2EB0C, symBinAddr: 0x10002FDD8, symSize: 0x2C }
  - { offset: 0x3DF84, size: 0x8, addend: 0x0, symName: __ZNSt3__13getB8ne180100ILm0EJRKNS_9allocatorIZN5Value3logEvEUlvE_EEEEERNS_13tuple_elementIXT_ENS_5tupleIJDpT0_EEEE4typeERSB_, symObjAddr: 0x2ED18, symBinAddr: 0x10002FFE4, symSize: 0x24 }
  - { offset: 0x3DFC7, size: 0x8, addend: 0x0, symName: __ZNSt3__18__invokeB8ne180100IRZN5Value3logEvEUlvE_JEEEDTclclsr3stdE7declvalIT_EEspclsr3stdE7declvalIT0_EEEEOS4_DpOS5_, symObjAddr: 0x2EDE8, symBinAddr: 0x1000300B4, symSize: 0x24 }
  - { offset: 0x3E633, size: 0x8, addend: 0x0, symName: __ZNSt3__116forward_as_tupleB8ne180100IJZngRKNS_10shared_ptrI5ValueEEEUlvE_EEENS_5tupleIJDpOT_EEESA_, symObjAddr: 0x2FAFC, symBinAddr: 0x100030DC8, symSize: 0x2C }
  - { offset: 0x3E66C, size: 0x8, addend: 0x0, symName: __ZNSt3__116forward_as_tupleB8ne180100IJNS_9allocatorIZngRKNS_10shared_ptrI5ValueEEEUlvE_EEEEENS_5tupleIJDpOT_EEESC_, symObjAddr: 0x2FB28, symBinAddr: 0x100030DF4, symSize: 0x2C }
  - { offset: 0x3E6CF, size: 0x8, addend: 0x0, symName: __ZNSt3__13getB8ne180100ILm0EJOZngRKNS_10shared_ptrI5ValueEEEUlvE_EEERNS_13tuple_elementIXT_ENS_5tupleIJDpT0_EEEE4typeERSC_, symObjAddr: 0x2FE94, symBinAddr: 0x100031160, symSize: 0x24 }
  - { offset: 0x3E711, size: 0x8, addend: 0x0, symName: __ZNSt3__13getB8ne180100ILm0EJONS_9allocatorIZngRKNS_10shared_ptrI5ValueEEEUlvE_EEEEERNS_13tuple_elementIXT_ENS_5tupleIJDpT0_EEEE4typeERSE_, symObjAddr: 0x2FED0, symBinAddr: 0x10003119C, symSize: 0x24 }
  - { offset: 0x3E8D7, size: 0x8, addend: 0x0, symName: __ZNSt3__116forward_as_tupleB8ne180100IJRKZngRKNS_10shared_ptrI5ValueEEEUlvE_EEENS_5tupleIJDpOT_EEESC_, symObjAddr: 0x30390, symBinAddr: 0x10003165C, symSize: 0x2C }
  - { offset: 0x3E925, size: 0x8, addend: 0x0, symName: __ZNSt3__13getB8ne180100ILm0EJRKZngRKNS_10shared_ptrI5ValueEEEUlvE_EEERNS_13tuple_elementIXT_ENS_5tupleIJDpT0_EEEE4typeERSD_, symObjAddr: 0x30580, symBinAddr: 0x10003184C, symSize: 0x24 }
  - { offset: 0x3E967, size: 0x8, addend: 0x0, symName: __ZNSt3__116forward_as_tupleB8ne180100IJRKNS_9allocatorIZngRKNS_10shared_ptrI5ValueEEEUlvE_EEEEENS_5tupleIJDpOT_EEESE_, symObjAddr: 0x30954, symBinAddr: 0x100031C20, symSize: 0x2C }
  - { offset: 0x3E9B5, size: 0x8, addend: 0x0, symName: __ZNSt3__13getB8ne180100ILm0EJRKNS_9allocatorIZngRKNS_10shared_ptrI5ValueEEEUlvE_EEEEERNS_13tuple_elementIXT_ENS_5tupleIJDpT0_EEEE4typeERSF_, symObjAddr: 0x30B60, symBinAddr: 0x100031E2C, symSize: 0x24 }
  - { offset: 0x3E9F8, size: 0x8, addend: 0x0, symName: __ZNSt3__18__invokeB8ne180100IRZngRKNS_10shared_ptrI5ValueEEEUlvE_JEEEDTclclsr3stdE7declvalIT_EEspclsr3stdE7declvalIT0_EEEEOS8_DpOS9_, symObjAddr: 0x30C30, symBinAddr: 0x100031EFC, symSize: 0x24 }
  - { offset: 0x3EA30, size: 0x8, addend: 0x0, symName: __ZNSt3__1neB8ne180100IPKNS_10shared_ptrI6LinearEEEEbRKNS_11__wrap_iterIT_EESA_, symObjAddr: 0x30DF8, symBinAddr: 0x1000320C4, symSize: 0x34 }
  - { offset: 0x3EA73, size: 0x8, addend: 0x0, symName: __ZNSt3__1eqB8ne180100IPKNS_10shared_ptrI6LinearEEEEbRKNS_11__wrap_iterIT_EESA_, symObjAddr: 0x3114C, symBinAddr: 0x100032418, symSize: 0x48 }
  - { offset: 0x3EAB6, size: 0x8, addend: 0x0, symName: __ZNSt3__1neB8ne180100IPKNS_6vectorINS_10shared_ptrI5ValueEENS_9allocatorIS4_EEEEEEbRKNS_11__wrap_iterIT_EESE_, symObjAddr: 0x3120C, symBinAddr: 0x1000324D8, symSize: 0x34 }
  - { offset: 0x3EAF9, size: 0x8, addend: 0x0, symName: __ZNSt3__1eqB8ne180100IPKNS_6vectorINS_10shared_ptrI5ValueEENS_9allocatorIS4_EEEEEEbRKNS_11__wrap_iterIT_EESE_, symObjAddr: 0x31380, symBinAddr: 0x10003264C, symSize: 0x48 }
  - { offset: 0x3EB3C, size: 0x8, addend: 0x0, symName: __ZNSt3__18distanceB8ne180100INS_11__wrap_iterIPKNS_10shared_ptrI5ValueEEEEEENS_15iterator_traitsIT_E15difference_typeES9_S9_, symObjAddr: 0x316F0, symBinAddr: 0x1000329BC, symSize: 0x3C }
  - { offset: 0x3EB7F, size: 0x8, addend: 0x0, symName: __ZNSt3__1miB8ne180100IPKNS_10shared_ptrI5ValueEEPS3_EEDTmicldtfp_4baseEcldtfp0_4baseEERKNS_11__wrap_iterIT_EERKNS8_IT0_EE, symObjAddr: 0x3172C, symBinAddr: 0x1000329F8, symSize: 0x48 }
  - { offset: 0x3EBCB, size: 0x8, addend: 0x0, symName: __ZNSt3__14nextB8ne180100INS_11__wrap_iterIPKNS_10shared_ptrI5ValueEEEELi0EEET_S8_NS_15iterator_traitsIS8_E15difference_typeE, symObjAddr: 0x31774, symBinAddr: 0x100032A40, symSize: 0x3C }
  - { offset: 0x3EC14, size: 0x8, addend: 0x0, symName: __ZNSt3__14copyB8ne180100INS_11__wrap_iterIPKNS_10shared_ptrI5ValueEEEEPS4_EET0_T_SA_S9_, symObjAddr: 0x319B0, symBinAddr: 0x100032C7C, symSize: 0x50 }
  - { offset: 0x3EC6E, size: 0x8, addend: 0x0, symName: __ZNSt3__19__advanceB8ne180100INS_11__wrap_iterIPKNS_10shared_ptrI5ValueEEEEEEvRT_NS_15iterator_traitsIS8_E15difference_typeENS_26random_access_iterator_tagE, symObjAddr: 0x31C1C, symBinAddr: 0x100032EE8, symSize: 0x2C }
  - { offset: 0x3ECB7, size: 0x8, addend: 0x0, symName: __ZNSt3__130__uninitialized_allocator_copyB8ne180100INS_9allocatorINS_10shared_ptrI5ValueEEEENS_11__wrap_iterIPKS4_EES9_PS4_EET2_RT_T0_T1_SB_, symObjAddr: 0x31C70, symBinAddr: 0x100032F3C, symSize: 0x90 }
  - { offset: 0x3ED54, size: 0x8, addend: 0x0, symName: __ZNSt3__114__unwrap_rangeB8ne180100INS_11__wrap_iterIPKNS_10shared_ptrI5ValueEEEES6_EENS_4pairIT0_S9_EET_SB_, symObjAddr: 0x31D00, symBinAddr: 0x100032FCC, symSize: 0x70 }
  - { offset: 0x3EDA0, size: 0x8, addend: 0x0, symName: __ZNSt3__135__uninitialized_allocator_copy_implB8ne180100INS_9allocatorINS_10shared_ptrI5ValueEEEEPKS4_S7_PS4_EET2_RT_T0_T1_S9_, symObjAddr: 0x31D70, symBinAddr: 0x10003303C, symSize: 0xF4 }
  - { offset: 0x3EE3E, size: 0x8, addend: 0x0, symName: __ZNSt3__19make_pairB8ne180100IPKNS_10shared_ptrI5ValueEES5_EENS_4pairINS_18__unwrap_ref_decayIT_E4typeENS7_IT0_E4typeEEEOS8_OSB_, symObjAddr: 0x31E64, symBinAddr: 0x100033130, symSize: 0x38 }
  - { offset: 0x3EE8D, size: 0x8, addend: 0x0, symName: __ZNSt3__113__unwrap_iterB8ne180100INS_11__wrap_iterIPKNS_10shared_ptrI5ValueEEEENS_18__unwrap_iter_implIS7_Lb1EEELi0EEEDTclsrT0_8__unwrapclsr3stdE7declvalIT_EEEESB_, symObjAddr: 0x31E9C, symBinAddr: 0x100033168, symSize: 0x2C }
  - { offset: 0x3EFF8, size: 0x8, addend: 0x0, symName: __ZNSt3__112__to_addressB8ne180100INS_11__wrap_iterIPKNS_10shared_ptrI5ValueEEEEvEEu7__decayIDTclsr19__to_address_helperIT_EE6__callclsr3stdE7declvalIRKS8_EEEEESA_, symObjAddr: 0x31F60, symBinAddr: 0x10003322C, symSize: 0x24 }
  - { offset: 0x3F0D4, size: 0x8, addend: 0x0, symName: __ZNSt3__112__to_addressB8ne180100IKNS_10shared_ptrI5ValueEEEEPT_S6_, symObjAddr: 0x31FE0, symBinAddr: 0x1000332AC, symSize: 0x14 }
  - { offset: 0x3F109, size: 0x8, addend: 0x0, symName: __ZNSt3__113move_backwardB8ne180100IPNS_10shared_ptrI5ValueEES4_EET0_T_S6_S5_, symObjAddr: 0x31FF4, symBinAddr: 0x1000332C0, symSize: 0x40 }
  - { offset: 0x3F163, size: 0x8, addend: 0x0, symName: __ZNSt3__115__move_backwardB8ne180100INS_17_ClassicAlgPolicyEPNS_10shared_ptrI5ValueEES5_S5_EENS_4pairIT0_T2_EES7_T1_S8_, symObjAddr: 0x32034, symBinAddr: 0x100033300, symSize: 0x44 }
  - { offset: 0x3F1CF, size: 0x8, addend: 0x0, symName: __ZNSt3__123__dispatch_copy_or_moveB8ne180100INS_17_ClassicAlgPolicyENS_20__move_backward_loopIS1_EENS_23__move_backward_trivialEPNS_10shared_ptrI5ValueEES8_S8_EENS_4pairIT2_T4_EESA_T3_SB_, symObjAddr: 0x32078, symBinAddr: 0x100033344, symSize: 0x44 }
  - { offset: 0x3F24D, size: 0x8, addend: 0x0, symName: __ZNSt3__121__unwrap_and_dispatchB8ne180100INS_10__overloadINS_20__move_backward_loopINS_17_ClassicAlgPolicyEEENS_23__move_backward_trivialEEEPNS_10shared_ptrI5ValueEESA_SA_Li0EEENS_4pairIT0_T2_EESC_T1_SD_, symObjAddr: 0x320BC, symBinAddr: 0x100033388, symSize: 0xB4 }
  - { offset: 0x3F32D, size: 0x8, addend: 0x0, symName: __ZNSt3__114__rewrap_rangeB8ne180100IPNS_10shared_ptrI5ValueEES4_EET_S5_T0_, symObjAddr: 0x32214, symBinAddr: 0x1000334E0, symSize: 0x2C }
  - { offset: 0x3F384, size: 0x8, addend: 0x0, symName: __ZNSt3__16__copyB8ne180100INS_17_ClassicAlgPolicyENS_11__wrap_iterIPKNS_10shared_ptrI5ValueEEEES8_PS5_EENS_4pairIT0_T2_EESB_T1_SC_, symObjAddr: 0x32284, symBinAddr: 0x100033550, symSize: 0x54 }
  - { offset: 0x3F3F0, size: 0x8, addend: 0x0, symName: __ZNSt3__123__dispatch_copy_or_moveB8ne180100INS_17_ClassicAlgPolicyENS_11__copy_loopIS1_EENS_14__copy_trivialENS_11__wrap_iterIPKNS_10shared_ptrI5ValueEEEESB_PS8_EENS_4pairIT2_T4_EESE_T3_SF_, symObjAddr: 0x322D8, symBinAddr: 0x1000335A4, symSize: 0x54 }
  - { offset: 0x3F46E, size: 0x8, addend: 0x0, symName: __ZNSt3__121__unwrap_and_dispatchB8ne180100INS_10__overloadINS_11__copy_loopINS_17_ClassicAlgPolicyEEENS_14__copy_trivialEEENS_11__wrap_iterIPKNS_10shared_ptrI5ValueEEEESD_PSA_Li0EEENS_4pairIT0_T2_EESG_T1_SH_, symObjAddr: 0x3232C, symBinAddr: 0x1000335F8, symSize: 0xCC }
  - { offset: 0x3F661, size: 0x8, addend: 0x0, symName: __ZNSt3__19make_pairB8ne180100INS_11__wrap_iterIPKNS_10shared_ptrI5ValueEEEEPS4_EENS_4pairINS_18__unwrap_ref_decayIT_E4typeENSA_IT0_E4typeEEEOSB_OSE_, symObjAddr: 0x32480, symBinAddr: 0x10003374C, symSize: 0x38 }
  - { offset: 0x3F6B0, size: 0x8, addend: 0x0, symName: __ZNSt3__114__rewrap_rangeB8ne180100INS_11__wrap_iterIPKNS_10shared_ptrI5ValueEEEES6_EET_S8_T0_, symObjAddr: 0x324B8, symBinAddr: 0x100033784, symSize: 0x3C }
  - { offset: 0x3F6FC, size: 0x8, addend: 0x0, symName: __ZNSt3__19make_pairB8ne180100IPKNS_10shared_ptrI5ValueEEPS3_EENS_4pairINS_18__unwrap_ref_decayIT_E4typeENS8_IT0_E4typeEEEOS9_OSC_, symObjAddr: 0x32544, symBinAddr: 0x100033810, symSize: 0x38 }
  - { offset: 0x3F81F, size: 0x8, addend: 0x0, symName: __ZNSt3__113__rewrap_iterB8ne180100INS_11__wrap_iterIPKNS_10shared_ptrI5ValueEEEES6_NS_18__unwrap_iter_implIS7_Lb1EEEEET_SA_T0_, symObjAddr: 0x3265C, symBinAddr: 0x100033928, symSize: 0x4C }
  - { offset: 0x3F874, size: 0x8, addend: 0x0, symName: __ZNSt3__142__uninitialized_allocator_move_if_noexceptB8ne180100INS_9allocatorINS_10shared_ptrI5ValueEEEEPS4_S6_S6_EET2_RT_T0_T1_S7_, symObjAddr: 0x3280C, symBinAddr: 0x100033AD8, symSize: 0xF4 }
  - { offset: 0x3F912, size: 0x8, addend: 0x0, symName: __ZNSt3__110__distanceB8ne180100INS_11__wrap_iterIPKNS_10shared_ptrI5ValueEEEEEENS_15iterator_traitsIT_E15difference_typeES9_S9_NS_26random_access_iterator_tagE, symObjAddr: 0x32900, symBinAddr: 0x100033BCC, symSize: 0x30 }
  - { offset: 0x3F95F, size: 0x8, addend: 0x0, symName: __ZNSt3__1miB8ne180100IPKNS_10shared_ptrI5ValueEES5_EEDTmicldtfp_4baseEcldtfp0_4baseEERKNS_11__wrap_iterIT_EERKNS7_IT0_EE, symObjAddr: 0x32930, symBinAddr: 0x100033BFC, symSize: 0x48 }
  - { offset: 0x3F9AB, size: 0x8, addend: 0x0, symName: __ZNSt3__18distanceB8ne180100INS_11__wrap_iterIPNS_10shared_ptrI5ValueEEEEEENS_15iterator_traitsIT_E15difference_typeES8_S8_, symObjAddr: 0x32C88, symBinAddr: 0x100033F54, symSize: 0x3C }
  - { offset: 0x3F9EE, size: 0x8, addend: 0x0, symName: __ZNSt3__14nextB8ne180100INS_11__wrap_iterIPNS_10shared_ptrI5ValueEEEELi0EEET_S7_NS_15iterator_traitsIS7_E15difference_typeE, symObjAddr: 0x32CC4, symBinAddr: 0x100033F90, symSize: 0x3C }
  - { offset: 0x3FA37, size: 0x8, addend: 0x0, symName: __ZNSt3__14copyB8ne180100INS_11__wrap_iterIPNS_10shared_ptrI5ValueEEEES5_EET0_T_S8_S7_, symObjAddr: 0x32DD4, symBinAddr: 0x1000340A0, symSize: 0x50 }
  - { offset: 0x3FA91, size: 0x8, addend: 0x0, symName: __ZNSt3__19__advanceB8ne180100INS_11__wrap_iterIPNS_10shared_ptrI5ValueEEEEEEvRT_NS_15iterator_traitsIS7_E15difference_typeENS_26random_access_iterator_tagE, symObjAddr: 0x32EF4, symBinAddr: 0x1000341C0, symSize: 0x2C }
  - { offset: 0x3FADA, size: 0x8, addend: 0x0, symName: __ZNSt3__130__uninitialized_allocator_copyB8ne180100INS_9allocatorINS_10shared_ptrI5ValueEEEENS_11__wrap_iterIPS4_EES8_S7_EET2_RT_T0_T1_S9_, symObjAddr: 0x32F20, symBinAddr: 0x1000341EC, symSize: 0x90 }
  - { offset: 0x3FB77, size: 0x8, addend: 0x0, symName: __ZNSt3__114__unwrap_rangeB8ne180100INS_11__wrap_iterIPNS_10shared_ptrI5ValueEEEES5_EENS_4pairIT0_S8_EET_SA_, symObjAddr: 0x32FB0, symBinAddr: 0x10003427C, symSize: 0x70 }
  - { offset: 0x3FBC3, size: 0x8, addend: 0x0, symName: __ZNSt3__16__copyB8ne180100INS_17_ClassicAlgPolicyENS_11__wrap_iterIPNS_10shared_ptrI5ValueEEEES7_S6_EENS_4pairIT0_T2_EES9_T1_SA_, symObjAddr: 0x33020, symBinAddr: 0x1000342EC, symSize: 0x54 }
  - { offset: 0x3FC2F, size: 0x8, addend: 0x0, symName: __ZNSt3__123__dispatch_copy_or_moveB8ne180100INS_17_ClassicAlgPolicyENS_11__copy_loopIS1_EENS_14__copy_trivialENS_11__wrap_iterIPNS_10shared_ptrI5ValueEEEESA_S9_EENS_4pairIT2_T4_EESC_T3_SD_, symObjAddr: 0x33074, symBinAddr: 0x100034340, symSize: 0x54 }
  - { offset: 0x3FCAD, size: 0x8, addend: 0x0, symName: __ZNSt3__121__unwrap_and_dispatchB8ne180100INS_10__overloadINS_11__copy_loopINS_17_ClassicAlgPolicyEEENS_14__copy_trivialEEENS_11__wrap_iterIPNS_10shared_ptrI5ValueEEEESC_SB_Li0EEENS_4pairIT0_T2_EESE_T1_SF_, symObjAddr: 0x330C8, symBinAddr: 0x100034394, symSize: 0xCC }
  - { offset: 0x3FD3B, size: 0x8, addend: 0x0, symName: __ZNSt3__19make_pairB8ne180100INS_11__wrap_iterIPNS_10shared_ptrI5ValueEEEES5_EENS_4pairINS_18__unwrap_ref_decayIT_E4typeENS8_IT0_E4typeEEEOS9_OSC_, symObjAddr: 0x3321C, symBinAddr: 0x1000344E8, symSize: 0x38 }
  - { offset: 0x3FD8A, size: 0x8, addend: 0x0, symName: __ZNSt3__114__rewrap_rangeB8ne180100INS_11__wrap_iterIPNS_10shared_ptrI5ValueEEEES5_EET_S7_T0_, symObjAddr: 0x33254, symBinAddr: 0x100034520, symSize: 0x3C }
  - { offset: 0x3FEAA, size: 0x8, addend: 0x0, symName: __ZNSt3__110__distanceB8ne180100INS_11__wrap_iterIPNS_10shared_ptrI5ValueEEEEEENS_15iterator_traitsIT_E15difference_typeES8_S8_NS_26random_access_iterator_tagE, symObjAddr: 0x33338, symBinAddr: 0x100034604, symSize: 0x30 }
  - { offset: 0x3FEF7, size: 0x8, addend: 0x0, symName: __ZNSt3__1miB8ne180100IPNS_10shared_ptrI5ValueEES4_EEDTmicldtfp_4baseEcldtfp0_4baseEERKNS_11__wrap_iterIT_EERKNS6_IT0_EE, symObjAddr: 0x33368, symBinAddr: 0x100034634, symSize: 0x48 }
  - { offset: 0x3FF43, size: 0x8, addend: 0x0, symName: __ZNSt3__1neB8ne180100INS_11__wrap_iterIPNS_10shared_ptrI5ValueEEEES6_EEbRKNS_16reverse_iteratorIT_EERKNS7_IT0_EE, symObjAddr: 0x33570, symBinAddr: 0x10003483C, symSize: 0x54 }
  - { offset: 0x405CE, size: 0x8, addend: 0x0, symName: __ZNSt3__116forward_as_tupleB8ne180100IJZN5Value23build_topological_orderEvEUlPS1_E_EEENS_5tupleIJDpOT_EEES7_, symObjAddr: 0x34770, symBinAddr: 0x100035A3C, symSize: 0x2C }
  - { offset: 0x40607, size: 0x8, addend: 0x0, symName: __ZNSt3__116forward_as_tupleB8ne180100IJNS_9allocatorIZN5Value23build_topological_orderEvEUlPS2_E_EEEEENS_5tupleIJDpOT_EEES9_, symObjAddr: 0x3479C, symBinAddr: 0x100035A68, symSize: 0x2C }
  - { offset: 0x4066A, size: 0x8, addend: 0x0, symName: __ZNSt3__13getB8ne180100ILm0EJOZN5Value23build_topological_orderEvEUlPS1_E_EEERNS_13tuple_elementIXT_ENS_5tupleIJDpT0_EEEE4typeERS9_, symObjAddr: 0x34ABC, symBinAddr: 0x100035D88, symSize: 0x24 }
  - { offset: 0x406AC, size: 0x8, addend: 0x0, symName: __ZNSt3__13getB8ne180100ILm0EJONS_9allocatorIZN5Value23build_topological_orderEvEUlPS2_E_EEEEERNS_13tuple_elementIXT_ENS_5tupleIJDpT0_EEEE4typeERSB_, symObjAddr: 0x34AF8, symBinAddr: 0x100035DC4, symSize: 0x24 }
  - { offset: 0x40872, size: 0x8, addend: 0x0, symName: __ZNSt3__116forward_as_tupleB8ne180100IJRKZN5Value23build_topological_orderEvEUlPS1_E_EEENS_5tupleIJDpOT_EEES9_, symObjAddr: 0x34EEC, symBinAddr: 0x1000361B8, symSize: 0x2C }
  - { offset: 0x408C0, size: 0x8, addend: 0x0, symName: __ZNSt3__13getB8ne180100ILm0EJRKZN5Value23build_topological_orderEvEUlPS1_E_EEERNS_13tuple_elementIXT_ENS_5tupleIJDpT0_EEEE4typeERSA_, symObjAddr: 0x350E4, symBinAddr: 0x1000363B0, symSize: 0x24 }
  - { offset: 0x40902, size: 0x8, addend: 0x0, symName: __ZNSt3__116forward_as_tupleB8ne180100IJRKNS_9allocatorIZN5Value23build_topological_orderEvEUlPS2_E_EEEEENS_5tupleIJDpOT_EEESB_, symObjAddr: 0x35438, symBinAddr: 0x100036704, symSize: 0x2C }
  - { offset: 0x40950, size: 0x8, addend: 0x0, symName: __ZNSt3__13getB8ne180100ILm0EJRKNS_9allocatorIZN5Value23build_topological_orderEvEUlPS2_E_EEEEERNS_13tuple_elementIXT_ENS_5tupleIJDpT0_EEEE4typeERSC_, symObjAddr: 0x3561C, symBinAddr: 0x1000368E8, symSize: 0x24 }
  - { offset: 0x40993, size: 0x8, addend: 0x0, symName: __ZNSt3__18__invokeB8ne180100IRZN5Value23build_topological_orderEvEUlPS1_E_JS2_EEEDTclclsr3stdE7declvalIT_EEspclsr3stdE7declvalIT0_EEEEOS5_DpOS6_, symObjAddr: 0x356E8, symBinAddr: 0x1000369B4, symSize: 0x30 }
  - { offset: 0x409E1, size: 0x8, addend: 0x0, symName: __ZNSt3__1eqB8ne180100ERKNS_21__hash_const_iteratorIPNS_11__hash_nodeIP5ValuePvEEEES9_, symObjAddr: 0x35894, symBinAddr: 0x100036B60, symSize: 0x30 }
  - { offset: 0x40A1E, size: 0x8, addend: 0x0, symName: __ZNSt3__1neB8ne180100IPNS_10shared_ptrI5ValueEEEEbRKNS_11__wrap_iterIT_EES9_, symObjAddr: 0x35988, symBinAddr: 0x100036C54, symSize: 0x34 }
  - { offset: 0x40AB2, size: 0x8, addend: 0x0, symName: __ZNSt3__114__construct_atB8ne180100INS_11__hash_nodeIP5ValuePvEEJDnRmEPS5_EEPT_S9_DpOT0_, symObjAddr: 0x3683C, symBinAddr: 0x100037B08, symSize: 0x40 }
  - { offset: 0x40B18, size: 0x8, addend: 0x0, symName: __ZNSt3__112__destroy_atB8ne180100INS_11__hash_nodeIP5ValuePvEELi0EEEvPT_, symObjAddr: 0x375D0, symBinAddr: 0x10003889C, symSize: 0x24 }
  - { offset: 0x40B50, size: 0x8, addend: 0x0, symName: __ZNSt3__112__destroy_atB8ne180100IP5ValueLi0EEEvPT_, symObjAddr: 0x37628, symBinAddr: 0x1000388F4, symSize: 0x10 }
  - { offset: 0x40B88, size: 0x8, addend: 0x0, symName: __ZNSt3__125__throw_bad_function_callB8ne180100Ev, symObjAddr: 0x3784C, symBinAddr: 0x100038B18, symSize: 0x38 }
  - { offset: 0x40C08, size: 0x8, addend: 0x0, symName: __ZNSt3__116__pad_and_outputB8ne180100IcNS_11char_traitsIcEEEENS_19ostreambuf_iteratorIT_T0_EES6_PKS4_S8_S8_RNS_8ios_baseES4_, symObjAddr: 0x37FD0, symBinAddr: 0x10003929C, symSize: 0x240 }
  - { offset: 0x40CD7, size: 0x8, addend: 0x0, symName: __ZNSt3__112__to_addressB8ne180100IcEEPT_S2_, symObjAddr: 0x384A0, symBinAddr: 0x10003976C, symSize: 0x14 }
  - { offset: 0x40D0C, size: 0x8, addend: 0x0, symName: __ZNSt3__118__constexpr_strlenB8ne180100EPKc, symObjAddr: 0x38508, symBinAddr: 0x1000397D4, symSize: 0x24 }
  - { offset: 0x40D38, size: 0x8, addend: 0x0, symName: __ZNSt3__130__uninitialized_allocator_copyB8ne180100INS_9allocatorIiEEPKiS4_PiEET2_RT_T0_T1_S6_, symObjAddr: 0x38A88, symBinAddr: 0x100039D54, symSize: 0x80 }
  - { offset: 0x40DD5, size: 0x8, addend: 0x0, symName: __ZNSt3__114__unwrap_rangeB8ne180100IPKiS2_EENS_4pairIT0_S4_EET_S6_, symObjAddr: 0x38B08, symBinAddr: 0x100039DD4, symSize: 0x60 }
  - { offset: 0x40E21, size: 0x8, addend: 0x0, symName: __ZNSt3__135__uninitialized_allocator_copy_implB8ne180100INS_9allocatorIiEEKiiiLPv0EEEPT2_RT_PT0_SA_S6_, symObjAddr: 0x38B68, symBinAddr: 0x100039E34, symSize: 0x38 }
  - { offset: 0x40EA3, size: 0x8, addend: 0x0, symName: __ZNSt3__19make_pairB8ne180100IPKiS2_EENS_4pairINS_18__unwrap_ref_decayIT_E4typeENS4_IT0_E4typeEEEOS5_OS8_, symObjAddr: 0x38BA0, symBinAddr: 0x100039E6C, symSize: 0x38 }
  - { offset: 0x40EF2, size: 0x8, addend: 0x0, symName: __ZNSt3__113__unwrap_iterB8ne180100IPKiNS_18__unwrap_iter_implIS2_Lb1EEELi0EEEDTclsrT0_8__unwrapclsr3stdE7declvalIT_EEEES6_, symObjAddr: 0x38BD8, symBinAddr: 0x100039EA4, symSize: 0x24 }
  - { offset: 0x4105D, size: 0x8, addend: 0x0, symName: __ZNSt3__112__to_addressB8ne180100IKiEEPT_S3_, symObjAddr: 0x38C90, symBinAddr: 0x100039F5C, symSize: 0x14 }
  - { offset: 0x41092, size: 0x8, addend: 0x0, symName: __ZNSt3__14copyB8ne180100IPKiPiEET0_T_S5_S4_, symObjAddr: 0x38CA4, symBinAddr: 0x100039F70, symSize: 0x40 }
  - { offset: 0x410EC, size: 0x8, addend: 0x0, symName: __ZNSt3__16__copyB8ne180100INS_17_ClassicAlgPolicyEPKiS3_PiEENS_4pairIT0_T2_EES6_T1_S7_, symObjAddr: 0x38CE4, symBinAddr: 0x100039FB0, symSize: 0x44 }
  - { offset: 0x41158, size: 0x8, addend: 0x0, symName: __ZNSt3__123__dispatch_copy_or_moveB8ne180100INS_17_ClassicAlgPolicyENS_11__copy_loopIS1_EENS_14__copy_trivialEPKiS6_PiEENS_4pairIT2_T4_EES9_T3_SA_, symObjAddr: 0x38D28, symBinAddr: 0x100039FF4, symSize: 0x44 }
  - { offset: 0x411D6, size: 0x8, addend: 0x0, symName: __ZNSt3__121__unwrap_and_dispatchB8ne180100INS_10__overloadINS_11__copy_loopINS_17_ClassicAlgPolicyEEENS_14__copy_trivialEEEPKiS8_PiLi0EEENS_4pairIT0_T2_EESB_T1_SC_, symObjAddr: 0x38D6C, symBinAddr: 0x10003A038, symSize: 0xB4 }
  - { offset: 0x41367, size: 0x8, addend: 0x0, symName: __ZNSt3__19make_pairB8ne180100IPKiPiEENS_4pairINS_18__unwrap_ref_decayIT_E4typeENS5_IT0_E4typeEEEOS6_OS9_, symObjAddr: 0x38E68, symBinAddr: 0x10003A134, symSize: 0x38 }
  - { offset: 0x413B6, size: 0x8, addend: 0x0, symName: __ZNSt3__114__rewrap_rangeB8ne180100IPKiS2_EET_S3_T0_, symObjAddr: 0x38EA0, symBinAddr: 0x10003A16C, symSize: 0x2C }
  - { offset: 0x41402, size: 0x8, addend: 0x0, symName: __ZNSt3__119__copy_trivial_implB8ne180100IKiiEENS_4pairIPT_PT0_EES4_S4_S6_, symObjAddr: 0x38ECC, symBinAddr: 0x10003A198, symSize: 0x80 }
  - { offset: 0x4146A, size: 0x8, addend: 0x0, symName: __ZNSt3__119__constexpr_memmoveB8ne180100IiKiLi0EEEPT_S3_PT0_NS_15__element_countE, symObjAddr: 0x38F4C, symBinAddr: 0x10003A218, symSize: 0x64 }
  - { offset: 0x414D8, size: 0x8, addend: 0x0, symName: __ZNSt3__19make_pairB8ne180100IRPKiPiEENS_4pairINS_18__unwrap_ref_decayIT_E4typeENS6_IT0_E4typeEEEOS7_OSA_, symObjAddr: 0x38FB0, symBinAddr: 0x10003A27C, symSize: 0x38 }
  - { offset: 0x41527, size: 0x8, addend: 0x0, symName: __ZNSt3__113__rewrap_iterB8ne180100IPKiS2_NS_18__unwrap_iter_implIS2_Lb1EEEEET_S5_T0_, symObjAddr: 0x390C8, symBinAddr: 0x10003A394, symSize: 0x3C }
  - { offset: 0x43467, size: 0x8, addend: 0x0, symName: __ZSt28__throw_bad_array_new_lengthB8ne180100v, symObjAddr: 0x22F0, symBinAddr: 0x1000035BC, symSize: 0x34 }
  - { offset: 0x441FE, size: 0x8, addend: 0x0, symName: __ZNSt3__16vectorINS_12basic_stringIcNS_11char_traitsIcEENS_9allocatorIcEEEENS4_IS6_EEE26__swap_out_circular_bufferERNS_14__split_bufferIS6_RS7_EE, symObjAddr: 0x61A8, symBinAddr: 0x100007474, symSize: 0x110 }
  - { offset: 0x44442, size: 0x8, addend: 0x0, symName: __ZNSt3__16vectorINS0_INS_12basic_stringIcNS_11char_traitsIcEENS_9allocatorIcEEEENS4_IS6_EEEENS4_IS8_EEE26__swap_out_circular_bufferERNS_14__split_bufferIS8_RS9_EE, symObjAddr: 0x7B14, symBinAddr: 0x100008DE0, symSize: 0x110 }
  - { offset: 0x446D2, size: 0x8, addend: 0x0, symName: __ZNSt3__16vectorIdNS_9allocatorIdEEE26__swap_out_circular_bufferERNS_14__split_bufferIdRS2_EE, symObjAddr: 0xAA00, symBinAddr: 0x10000BCCC, symSize: 0x110 }
  - { offset: 0x44EC2, size: 0x8, addend: 0x0, symName: __ZNSt3__16vectorINS0_IdNS_9allocatorIdEEEENS1_IS3_EEE26__swap_out_circular_bufferERNS_14__split_bufferIS3_RS4_EE, symObjAddr: 0xFEE0, symBinAddr: 0x1000111AC, symSize: 0x110 }
  - { offset: 0x453A3, size: 0x8, addend: 0x0, symName: __ZNSt3__16vectorINS_10shared_ptrI5ValueEENS_9allocatorIS3_EEE26__swap_out_circular_bufferERNS_14__split_bufferIS3_RS5_EE, symObjAddr: 0x11EA4, symBinAddr: 0x100013170, symSize: 0x110 }
  - { offset: 0x454EE, size: 0x8, addend: 0x0, symName: __ZN5ValueC2EdRKNSt3__112basic_stringIcNS0_11char_traitsIcEENS0_9allocatorIcEEEE, symObjAddr: 0x136E8, symBinAddr: 0x1000149B4, symSize: 0xC4 }
  - { offset: 0x457A0, size: 0x8, addend: 0x0, symName: __ZNSt3__110shared_ptrI5ValueE18__enable_weak_thisB8ne180100IS1_S1_vEEvPKNS_23enable_shared_from_thisIT_EEPT0_, symObjAddr: 0x15594, symBinAddr: 0x100016860, symSize: 0x7C }
  - { offset: 0x45A44, size: 0x8, addend: 0x0, symName: __ZNSt3__16vectorINS_4pairINS0_INS_10shared_ptrI5ValueEENS_9allocatorIS4_EEEES7_EENS5_IS8_EEE26__swap_out_circular_bufferERNS_14__split_bufferIS8_RS9_EE, symObjAddr: 0x16EB8, symBinAddr: 0x100018184, symSize: 0x110 }
  - { offset: 0x45B43, size: 0x8, addend: 0x0, symName: __ZNSt3__124uniform_int_distributionIlEclINS_23mersenne_twister_engineIjLm32ELm624ELm397ELm31ELj2567483615ELm11ELj4294967295ELm7ELj2636928640ELm15ELj4022730752ELm18ELj1812433253EEEEElRT_RKNS1_10param_typeE, symObjAddr: 0x18A00, symBinAddr: 0x100019CCC, symSize: 0x174 }
  - { offset: 0x46020, size: 0x8, addend: 0x0, symName: __ZNSt3__16vectorINS_10shared_ptrI6LinearEENS_9allocatorIS3_EEE26__swap_out_circular_bufferERNS_14__split_bufferIS3_RS5_EE, symObjAddr: 0x1A7E0, symBinAddr: 0x10001BAAC, symSize: 0x110 }
  - { offset: 0x46171, size: 0x8, addend: 0x0, symName: __ZNSt3__16vectorINS0_INS_10shared_ptrI5ValueEENS_9allocatorIS3_EEEENS4_IS6_EEE26__swap_out_circular_bufferERNS_14__split_bufferIS6_RS7_EE, symObjAddr: 0x1CE54, symBinAddr: 0x10001E120, symSize: 0x110 }
  - { offset: 0x4621B, size: 0x8, addend: 0x0, symName: __ZplRKNSt3__110shared_ptrI5ValueEES4_, symObjAddr: 0x1F9A8, symBinAddr: 0x100020C74, symSize: 0x148 }
  - { offset: 0x4651C, size: 0x8, addend: 0x0, symName: __ZmlRKNSt3__110shared_ptrI5ValueEES4_, symObjAddr: 0x1FAF0, symBinAddr: 0x100020DBC, symSize: 0x1B8 }
  - { offset: 0x46826, size: 0x8, addend: 0x0, symName: __Z4reluRKNSt3__16vectorINS_10shared_ptrI5ValueEENS_9allocatorIS3_EEEE, symObjAddr: 0x1F2F4, symBinAddr: 0x1000205C0, symSize: 0x1DC }
  - { offset: 0x46BA1, size: 0x8, addend: 0x0, symName: __Z7dropoutRKNSt3__16vectorINS_10shared_ptrI5ValueEENS_9allocatorIS3_EEEEdb, symObjAddr: 0x1F4D0, symBinAddr: 0x10002079C, symSize: 0x294 }
  - { offset: 0x46F55, size: 0x8, addend: 0x0, symName: __ZN5Value3expEv, symObjAddr: 0x28D1C, symBinAddr: 0x100029FE8, symSize: 0x14C }
  - { offset: 0x47235, size: 0x8, addend: 0x0, symName: __ZdvRKNSt3__110shared_ptrI5ValueEES4_, symObjAddr: 0x28E68, symBinAddr: 0x10002A134, symSize: 0x148 }
  - { offset: 0x47540, size: 0x8, addend: 0x0, symName: __ZN5Value3logEv, symObjAddr: 0x2CECC, symBinAddr: 0x10002E198, symSize: 0x14C }
  - { offset: 0x47820, size: 0x8, addend: 0x0, symName: __ZngRKNSt3__110shared_ptrI5ValueEE, symObjAddr: 0x2D018, symBinAddr: 0x10002E2E4, symSize: 0x10C }
  - { offset: 0x47B0F, size: 0x8, addend: 0x0, symName: __ZNSt3__16vectorINS_10shared_ptrI5ValueEENS_9allocatorIS3_EEE26__swap_out_circular_bufferERNS_14__split_bufferIS3_RS5_EEPS3_, symObjAddr: 0x31AD0, symBinAddr: 0x100032D9C, symSize: 0x14C }
  - { offset: 0x47B70, size: 0x8, addend: 0x0, symName: __ZN5Value23build_topological_orderEv, symObjAddr: 0x333EC, symBinAddr: 0x1000346B8, symSize: 0x140 }
  - { offset: 0x485BA, size: 0x8, addend: 0x0, symName: __Z12format_shapemm, symObjAddr: 0x0, symBinAddr: 0x1000012CC, symSize: 0xC8 }
  - { offset: 0x48660, size: 0x8, addend: 0x0, symName: __ZNSt3__119basic_ostringstreamIcNS_11char_traitsIcEENS_9allocatorIcEEEC1B8ne180100Ev, symObjAddr: 0xC8, symBinAddr: 0x100001394, symSize: 0xE4 }
  - { offset: 0x4868A, size: 0x8, addend: 0x0, symName: __ZNKSt3__119basic_ostringstreamIcNS_11char_traitsIcEENS_9allocatorIcEEE3strB8ne180100Ev, symObjAddr: 0x1F4, symBinAddr: 0x1000014C0, symSize: 0x30 }
  - { offset: 0x486B6, size: 0x8, addend: 0x0, symName: __ZNSt3__119basic_ostringstreamIcNS_11char_traitsIcEENS_9allocatorIcEEED1Ev, symObjAddr: 0x224, symBinAddr: 0x1000014F0, symSize: 0x40 }
  - { offset: 0x486E2, size: 0x8, addend: 0x0, symName: __Z14display_headerRKNSt3__112basic_stringIcNS_11char_traitsIcEENS_9allocatorIcEEEE, symObjAddr: 0x264, symBinAddr: 0x100001530, symSize: 0x68 }
  - { offset: 0x4870A, size: 0x8, addend: 0x0, symName: __Z14display_shapesRKNSt3__112basic_stringIcNS_11char_traitsIcEENS_9allocatorIcEEEEmm, symObjAddr: 0x318, symBinAddr: 0x1000015E4, symSize: 0x88 }
  - { offset: 0x4874E, size: 0x8, addend: 0x0, symName: __Z26validate_dataset_and_modelRKNSt3__16vectorINS_4pairINS0_INS_10shared_ptrI5ValueEENS_9allocatorIS4_EEEES7_EENS5_IS8_EEEERK3MLPd, symObjAddr: 0x3A0, symBinAddr: 0x10000166C, symSize: 0x670 }
  - { offset: 0x48837, size: 0x8, addend: 0x0, symName: __ZNKSt3__16vectorINS_4pairINS0_INS_10shared_ptrI5ValueEENS_9allocatorIS4_EEEES7_EENS5_IS8_EEE5emptyB8ne180100Ev, symObjAddr: 0xA10, symBinAddr: 0x100001CDC, symSize: 0x28 }
  - { offset: 0x48863, size: 0x8, addend: 0x0, symName: __ZNSt3__112basic_stringIcNS_11char_traitsIcEENS_9allocatorIcEEEC1B8ne180100ILi0EEEPKc, symObjAddr: 0xA38, symBinAddr: 0x100001D04, symSize: 0x34 }
  - { offset: 0x4897E, size: 0x8, addend: 0x0, symName: __ZNK3MLP10input_sizeEv, symObjAddr: 0xA6C, symBinAddr: 0x100001D38, symSize: 0x18 }
  - { offset: 0x489A4, size: 0x8, addend: 0x0, symName: __ZNK3MLP11output_sizeEv, symObjAddr: 0xA84, symBinAddr: 0x100001D50, symSize: 0x28 }
  - { offset: 0x489CA, size: 0x8, addend: 0x0, symName: __ZNKSt3__16vectorINS_4pairINS0_INS_10shared_ptrI5ValueEENS_9allocatorIS4_EEEES7_EENS5_IS8_EEE4sizeB8ne180100Ev, symObjAddr: 0xAAC, symBinAddr: 0x100001D78, symSize: 0x28 }
  - { offset: 0x489EF, size: 0x8, addend: 0x0, symName: __Z14log_model_infoRKNSt3__16vectorIiNS_9allocatorIiEEEEmmmmd, symObjAddr: 0xAD4, symBinAddr: 0x100001DA0, symSize: 0x23C }
  - { offset: 0x48A7A, size: 0x8, addend: 0x0, symName: __ZNK3MLP15get_layer_sizesEv, symObjAddr: 0xD10, symBinAddr: 0x100001FDC, symSize: 0x3C }
  - { offset: 0x48AA0, size: 0x8, addend: 0x0, symName: __ZNSt3__16vectorIiNS_9allocatorIiEEED1B8ne180100Ev, symObjAddr: 0xD4C, symBinAddr: 0x100002018, symSize: 0x2C }
  - { offset: 0x48ACA, size: 0x8, addend: 0x0, symName: __ZNKSt3__16vectorINS_4pairINS0_INS_10shared_ptrI5ValueEENS_9allocatorIS4_EEEES7_EENS5_IS8_EEEixB8ne180100Em, symObjAddr: 0xD78, symBinAddr: 0x100002044, symSize: 0x2C }
  - { offset: 0x48B01, size: 0x8, addend: 0x0, symName: __ZNKSt3__16vectorINS_10shared_ptrI5ValueEENS_9allocatorIS3_EEE4sizeB8ne180100Ev, symObjAddr: 0xDA4, symBinAddr: 0x100002070, symSize: 0x28 }
  - { offset: 0x48B27, size: 0x8, addend: 0x0, symName: __ZNKSt3__16vectorINS_10shared_ptrI5ValueEENS_9allocatorIS3_EEEixB8ne180100Em, symObjAddr: 0xDCC, symBinAddr: 0x100002098, symSize: 0x24 }
  - { offset: 0x48B5E, size: 0x8, addend: 0x0, symName: __ZNKSt3__110shared_ptrI5ValueEcvbB8ne180100Ev, symObjAddr: 0xDF0, symBinAddr: 0x1000020BC, symSize: 0x30 }
  - { offset: 0x48B84, size: 0x8, addend: 0x0, symName: __ZNKSt3__16vectorIiNS_9allocatorIiEEE4sizeB8ne180100Ev, symObjAddr: 0xE20, symBinAddr: 0x1000020EC, symSize: 0x28 }
  - { offset: 0x48BAA, size: 0x8, addend: 0x0, symName: __ZNKSt3__16vectorIiNS_9allocatorIiEEEixB8ne180100Em, symObjAddr: 0xE48, symBinAddr: 0x100002114, symSize: 0x24 }
  - { offset: 0x48BE5, size: 0x8, addend: 0x0, symName: __ZN12microgradCpp17epic_failure_exitERKNSt3__112basic_stringIcNS0_11char_traitsIcEENS0_9allocatorIcEEEE, symObjAddr: 0xE6C, symBinAddr: 0x100002138, symSize: 0xB4 }
  - { offset: 0x48C30, size: 0x8, addend: 0x0, symName: __ZNSt3__113basic_ostreamIcNS_11char_traitsIcEEElsB8ne180100EPFRS3_S4_E, symObjAddr: 0xF20, symBinAddr: 0x1000021EC, symSize: 0x2C }
  - { offset: 0x48C64, size: 0x8, addend: 0x0, symName: _main, symObjAddr: 0xFA4, symBinAddr: 0x100002270, symSize: 0x180 }
  - { offset: 0x48CC7, size: 0x8, addend: 0x0, symName: __Z8get_irisv, symObjAddr: 0x1124, symBinAddr: 0x1000023F0, symSize: 0x24 }
  - { offset: 0x48CE4, size: 0x8, addend: 0x0, symName: __Z7shuffleRNSt3__16vectorINS_4pairINS0_INS_10shared_ptrI5ValueEENS_9allocatorIS4_EEEES7_EENS5_IS8_EEEE, symObjAddr: 0x1148, symBinAddr: 0x100002414, symSize: 0xB4 }
  - { offset: 0x48D29, size: 0x8, addend: 0x0, symName: __ZNSt3__16vectorIiNS_9allocatorIiEEEC1B8ne180100ESt16initializer_listIiE, symObjAddr: 0x11FC, symBinAddr: 0x1000024C8, symSize: 0x3C }
  - { offset: 0x48D64, size: 0x8, addend: 0x0, symName: __ZN3MLPC1EiRKNSt3__16vectorIiNS0_9allocatorIiEEEE, symObjAddr: 0x1238, symBinAddr: 0x100002504, symSize: 0x3C }
  - { offset: 0x48DA9, size: 0x8, addend: 0x0, symName: __Z10train_evalRKNSt3__16vectorINS_4pairINS0_INS_10shared_ptrI5ValueEENS_9allocatorIS4_EEEES7_EENS5_IS8_EEEEdR3MLPdi, symObjAddr: 0x1274, symBinAddr: 0x100002540, symSize: 0x6A8 }
  - { offset: 0x48F86, size: 0x8, addend: 0x0, symName: __ZN3MLPD1Ev, symObjAddr: 0x191C, symBinAddr: 0x100002BE8, symSize: 0x2C }
  - { offset: 0x48FB2, size: 0x8, addend: 0x0, symName: __ZNSt3__16vectorINS_4pairINS0_INS_10shared_ptrI5ValueEENS_9allocatorIS4_EEEES7_EENS5_IS8_EEED1B8ne180100Ev, symObjAddr: 0x1948, symBinAddr: 0x100002C14, symSize: 0x2C }
  - { offset: 0x48FDC, size: 0x8, addend: 0x0, symName: __ZNSt3__119basic_ostringstreamIcNS_11char_traitsIcEENS_9allocatorIcEEED2Ev, symObjAddr: 0x1974, symBinAddr: 0x100002C40, symSize: 0x64 }
  - { offset: 0x49016, size: 0x8, addend: 0x0, symName: __ZTv0_n24_NSt3__119basic_ostringstreamIcNS_11char_traitsIcEENS_9allocatorIcEEED1Ev, symObjAddr: 0x19D8, symBinAddr: 0x100002CA4, symSize: 0x28 }
  - { offset: 0x49033, size: 0x8, addend: 0x0, symName: __ZNSt3__115basic_stringbufIcNS_11char_traitsIcEENS_9allocatorIcEEED1Ev, symObjAddr: 0x1A00, symBinAddr: 0x100002CCC, symSize: 0x2C }
  - { offset: 0x49060, size: 0x8, addend: 0x0, symName: __ZNSt3__115basic_stringbufIcNS_11char_traitsIcEENS_9allocatorIcEEED2Ev, symObjAddr: 0x1A2C, symBinAddr: 0x100002CF8, symSize: 0x48 }
  - { offset: 0x4908D, size: 0x8, addend: 0x0, symName: __ZNSt3__16vectorIiNS_9allocatorIiEEEC1ERKS3_, symObjAddr: 0x1A74, symBinAddr: 0x100002D40, symSize: 0x34 }
  - { offset: 0x490C8, size: 0x8, addend: 0x0, symName: __ZNSt3__16vectorIiNS_9allocatorIiEEEC2ERKS3_, symObjAddr: 0x1AA8, symBinAddr: 0x100002D74, symSize: 0x94 }
  - { offset: 0x4910E, size: 0x8, addend: 0x0, symName: __ZNSt3__116allocator_traitsINS_9allocatorIiEEE37select_on_container_copy_constructionB8ne180100IS2_vvEES2_RKS2_, symObjAddr: 0x1B3C, symBinAddr: 0x100002E08, symSize: 0x10 }
  - { offset: 0x4913D, size: 0x8, addend: 0x0, symName: __ZNKSt3__16vectorIiNS_9allocatorIiEEE7__allocB8ne180100Ev, symObjAddr: 0x1B4C, symBinAddr: 0x100002E18, symSize: 0x28 }
  - { offset: 0x4916F, size: 0x8, addend: 0x0, symName: __ZNSt3__117__compressed_pairIPiNS_9allocatorIiEEEC1B8ne180100IDnS3_EEOT_OT0_, symObjAddr: 0x1B74, symBinAddr: 0x100002E40, symSize: 0x3C }
  - { offset: 0x491C7, size: 0x8, addend: 0x0, symName: __ZNSt3__16vectorIiNS_9allocatorIiEEE16__init_with_sizeB8ne180100IPiS5_EEvT_T0_m, symObjAddr: 0x1BB0, symBinAddr: 0x100002E7C, symSize: 0xB8 }
  - { offset: 0x4923B, size: 0x8, addend: 0x0, symName: __ZNKSt3__117__compressed_pairIPiNS_9allocatorIiEEE6secondB8ne180100Ev, symObjAddr: 0x1C68, symBinAddr: 0x100002F34, symSize: 0x24 }
  - { offset: 0x49261, size: 0x8, addend: 0x0, symName: __ZNKSt3__122__compressed_pair_elemINS_9allocatorIiEELi1ELb1EE5__getB8ne180100Ev, symObjAddr: 0x1C8C, symBinAddr: 0x100002F58, symSize: 0x14 }
  - { offset: 0x49287, size: 0x8, addend: 0x0, symName: __ZNSt3__117__compressed_pairIPiNS_9allocatorIiEEEC2B8ne180100IDnS3_EEOT_OT0_, symObjAddr: 0x1CA0, symBinAddr: 0x100002F6C, symSize: 0x44 }
  - { offset: 0x492DF, size: 0x8, addend: 0x0, symName: __ZNSt3__122__compressed_pair_elemIPiLi0ELb0EEC2B8ne180100IDnvEEOT_, symObjAddr: 0x1CE4, symBinAddr: 0x100002FB0, symSize: 0x1C }
  - { offset: 0x49321, size: 0x8, addend: 0x0, symName: __ZNSt3__122__compressed_pair_elemINS_9allocatorIiEELi1ELb1EEC2B8ne180100IS2_vEEOT_, symObjAddr: 0x1D00, symBinAddr: 0x100002FCC, symSize: 0x18 }
  - { offset: 0x49363, size: 0x8, addend: 0x0, symName: __ZNSt3__16vectorIiNS_9allocatorIiEEE16__destroy_vectorC1B8ne180100ERS3_, symObjAddr: 0x1D58, symBinAddr: 0x100003024, symSize: 0x34 }
  - { offset: 0x4939C, size: 0x8, addend: 0x0, symName: __ZNSt3__16vectorIiNS_9allocatorIiEEE11__vallocateB8ne180100Em, symObjAddr: 0x1D8C, symBinAddr: 0x100003058, symSize: 0xAC }
  - { offset: 0x493E0, size: 0x8, addend: 0x0, symName: __ZNSt3__16vectorIiNS_9allocatorIiEEE18__construct_at_endIPiS5_EEvT_T0_m, symObjAddr: 0x1E38, symBinAddr: 0x100003104, symSize: 0x8C }
  - { offset: 0x49456, size: 0x8, addend: 0x0, symName: __ZNSt3__128__exception_guard_exceptionsINS_6vectorIiNS_9allocatorIiEEE16__destroy_vectorEE10__completeB8ne180100Ev, symObjAddr: 0x1EC4, symBinAddr: 0x100003190, symSize: 0x1C }
  - { offset: 0x4947C, size: 0x8, addend: 0x0, symName: __ZNSt3__128__exception_guard_exceptionsINS_6vectorIiNS_9allocatorIiEEE16__destroy_vectorEED1B8ne180100Ev, symObjAddr: 0x1EE0, symBinAddr: 0x1000031AC, symSize: 0x2C }
  - { offset: 0x494A6, size: 0x8, addend: 0x0, symName: __ZNSt3__128__exception_guard_exceptionsINS_6vectorIiNS_9allocatorIiEEE16__destroy_vectorEEC1B8ne180100ES5_, symObjAddr: 0x1F0C, symBinAddr: 0x1000031D8, symSize: 0x34 }
  - { offset: 0x494DE, size: 0x8, addend: 0x0, symName: __ZNSt3__128__exception_guard_exceptionsINS_6vectorIiNS_9allocatorIiEEE16__destroy_vectorEEC2B8ne180100ES5_, symObjAddr: 0x1F40, symBinAddr: 0x10000320C, symSize: 0x24 }
  - { offset: 0x49516, size: 0x8, addend: 0x0, symName: __ZNSt3__16vectorIiNS_9allocatorIiEEE16__destroy_vectorC2B8ne180100ERS3_, symObjAddr: 0x1F64, symBinAddr: 0x100003230, symSize: 0x20 }
  - { offset: 0x4954F, size: 0x8, addend: 0x0, symName: __ZNKSt3__16vectorIiNS_9allocatorIiEEE8max_sizeEv, symObjAddr: 0x1F84, symBinAddr: 0x100003250, symSize: 0x60 }
  - { offset: 0x49577, size: 0x8, addend: 0x0, symName: __ZNKSt3__16vectorIiNS_9allocatorIiEEE20__throw_length_errorB8ne180100Ev, symObjAddr: 0x1FE4, symBinAddr: 0x1000032B0, symSize: 0x1C }
  - { offset: 0x4959D, size: 0x8, addend: 0x0, symName: __ZNSt3__16vectorIiNS_9allocatorIiEEE7__allocB8ne180100Ev, symObjAddr: 0x2040, symBinAddr: 0x10000330C, symSize: 0x28 }
  - { offset: 0x495C3, size: 0x8, addend: 0x0, symName: __ZNSt3__16vectorIiNS_9allocatorIiEEE9__end_capB8ne180100Ev, symObjAddr: 0x2068, symBinAddr: 0x100003334, symSize: 0x28 }
  - { offset: 0x495E9, size: 0x8, addend: 0x0, symName: __ZNKSt3__16vectorIiNS_9allocatorIiEEE14__annotate_newB8ne180100Em, symObjAddr: 0x2090, symBinAddr: 0x10000335C, symSize: 0x14 }
  - { offset: 0x4961E, size: 0x8, addend: 0x0, symName: __ZNSt3__116allocator_traitsINS_9allocatorIiEEE8max_sizeB8ne180100IS2_vEEmRKS2_, symObjAddr: 0x20D0, symBinAddr: 0x10000339C, symSize: 0x24 }
  - { offset: 0x4964C, size: 0x8, addend: 0x0, symName: __ZNSt3__114numeric_limitsIlE3maxB8ne180100Ev, symObjAddr: 0x20F4, symBinAddr: 0x1000033C0, symSize: 0x14 }
  - { offset: 0x4966B, size: 0x8, addend: 0x0, symName: __ZNKSt3__16__lessIvvEclB8ne180100ImmEEbRKT_RKT0_, symObjAddr: 0x216C, symBinAddr: 0x100003438, symSize: 0x34 }
  - { offset: 0x496BF, size: 0x8, addend: 0x0, symName: __ZNKSt3__19allocatorIiE8max_sizeB8ne180100Ev, symObjAddr: 0x21A0, symBinAddr: 0x10000346C, symSize: 0x14 }
  - { offset: 0x496E5, size: 0x8, addend: 0x0, symName: __ZNSt3__123__libcpp_numeric_limitsIlLb1EE3maxB8ne180100Ev, symObjAddr: 0x21B4, symBinAddr: 0x100003480, symSize: 0x8 }
  - { offset: 0x496F9, size: 0x8, addend: 0x0, symName: __ZNSt12length_errorC1B8ne180100EPKc, symObjAddr: 0x2220, symBinAddr: 0x1000034EC, symSize: 0x34 }
  - { offset: 0x49731, size: 0x8, addend: 0x0, symName: __ZNSt12length_errorC2B8ne180100EPKc, symObjAddr: 0x2254, symBinAddr: 0x100003520, symSize: 0x44 }
  - { offset: 0x49769, size: 0x8, addend: 0x0, symName: __ZNSt3__19allocatorIiE8allocateB8ne180100Em, symObjAddr: 0x2298, symBinAddr: 0x100003564, symSize: 0x58 }
  - { offset: 0x4979D, size: 0x8, addend: 0x0, symName: __ZNSt3__117__compressed_pairIPiNS_9allocatorIiEEE6secondB8ne180100Ev, symObjAddr: 0x23F4, symBinAddr: 0x1000036C0, symSize: 0x24 }
  - { offset: 0x497C3, size: 0x8, addend: 0x0, symName: __ZNSt3__122__compressed_pair_elemINS_9allocatorIiEELi1ELb1EE5__getB8ne180100Ev, symObjAddr: 0x2418, symBinAddr: 0x1000036E4, symSize: 0x14 }
  - { offset: 0x497E9, size: 0x8, addend: 0x0, symName: __ZNSt3__117__compressed_pairIPiNS_9allocatorIiEEE5firstB8ne180100Ev, symObjAddr: 0x242C, symBinAddr: 0x1000036F8, symSize: 0x24 }
  - { offset: 0x4980F, size: 0x8, addend: 0x0, symName: __ZNSt3__122__compressed_pair_elemIPiLi0ELb0EE5__getB8ne180100Ev, symObjAddr: 0x2450, symBinAddr: 0x10000371C, symSize: 0x14 }
  - { offset: 0x49851, size: 0x8, addend: 0x0, symName: __ZNSt3__16vectorIiNS_9allocatorIiEEE21_ConstructTransactionC1B8ne180100ERS3_m, symObjAddr: 0x2464, symBinAddr: 0x100003730, symSize: 0x3C }
  - { offset: 0x49899, size: 0x8, addend: 0x0, symName: __ZNSt3__16vectorIiNS_9allocatorIiEEE21_ConstructTransactionD1B8ne180100Ev, symObjAddr: 0x2520, symBinAddr: 0x1000037EC, symSize: 0x2C }
  - { offset: 0x498C3, size: 0x8, addend: 0x0, symName: __ZNSt3__16vectorIiNS_9allocatorIiEEE21_ConstructTransactionC2B8ne180100ERS3_m, symObjAddr: 0x254C, symBinAddr: 0x100003818, symSize: 0x44 }
  - { offset: 0x4992E, size: 0x8, addend: 0x0, symName: __ZNSt3__14pairIPiS1_EC1B8ne180100IS1_S1_Li0EEEOT_OT0_, symObjAddr: 0x26C0, symBinAddr: 0x10000398C, symSize: 0x3C }
  - { offset: 0x4998C, size: 0x8, addend: 0x0, symName: __ZNSt3__14pairIPiS1_EC2B8ne180100IS1_S1_Li0EEEOT_OT0_, symObjAddr: 0x26FC, symBinAddr: 0x1000039C8, symSize: 0x34 }
  - { offset: 0x499F5, size: 0x8, addend: 0x0, symName: __ZNKSt3__114__copy_trivialclB8ne180100IiiLi0EEENS_4pairIPT_PT0_EES4_S4_S6_, symObjAddr: 0x28AC, symBinAddr: 0x100003B78, symSize: 0x48 }
  - { offset: 0x49A5D, size: 0x8, addend: 0x0, symName: __ZNSt3__14pairIPiS1_EC1B8ne180100IRS1_S1_Li0EEEOT_OT0_, symObjAddr: 0x2A3C, symBinAddr: 0x100003D08, symSize: 0x3C }
  - { offset: 0x49ABB, size: 0x8, addend: 0x0, symName: __ZNSt3__14pairIPiS1_EC2B8ne180100IRS1_S1_Li0EEEOT_OT0_, symObjAddr: 0x2A78, symBinAddr: 0x100003D44, symSize: 0x34 }
  - { offset: 0x49B19, size: 0x8, addend: 0x0, symName: __ZNSt3__118__unwrap_iter_implIPiLb1EE8__unwrapB8ne180100ES1_, symObjAddr: 0x2AAC, symBinAddr: 0x100003D78, symSize: 0x24 }
  - { offset: 0x49B3C, size: 0x8, addend: 0x0, symName: __ZNSt3__118__unwrap_iter_implIPiLb1EE8__rewrapB8ne180100ES1_S1_, symObjAddr: 0x2AE4, symBinAddr: 0x100003DB0, symSize: 0x50 }
  - { offset: 0x49B6D, size: 0x8, addend: 0x0, symName: __ZNSt3__16vectorIiNS_9allocatorIiEEE21_ConstructTransactionD2B8ne180100Ev, symObjAddr: 0x2B34, symBinAddr: 0x100003E00, symSize: 0x20 }
  - { offset: 0x49B97, size: 0x8, addend: 0x0, symName: __ZNSt3__128__exception_guard_exceptionsINS_6vectorIiNS_9allocatorIiEEE16__destroy_vectorEED2B8ne180100Ev, symObjAddr: 0x2B54, symBinAddr: 0x100003E20, symSize: 0x50 }
  - { offset: 0x49BC1, size: 0x8, addend: 0x0, symName: __ZNSt3__16vectorIiNS_9allocatorIiEEE16__destroy_vectorclB8ne180100Ev, symObjAddr: 0x2BA4, symBinAddr: 0x100003E70, symSize: 0x90 }
  - { offset: 0x49BE7, size: 0x8, addend: 0x0, symName: __ZNSt3__16vectorIiNS_9allocatorIiEEE7__clearB8ne180100Ev, symObjAddr: 0x2C34, symBinAddr: 0x100003F00, symSize: 0x28 }
  - { offset: 0x49C0D, size: 0x8, addend: 0x0, symName: __ZNKSt3__16vectorIiNS_9allocatorIiEEE17__annotate_deleteB8ne180100Ev, symObjAddr: 0x2C5C, symBinAddr: 0x100003F28, symSize: 0x10 }
  - { offset: 0x49C33, size: 0x8, addend: 0x0, symName: __ZNSt3__116allocator_traitsINS_9allocatorIiEEE10deallocateB8ne180100ERS2_Pim, symObjAddr: 0x2C6C, symBinAddr: 0x100003F38, symSize: 0x34 }
  - { offset: 0x49C75, size: 0x8, addend: 0x0, symName: __ZNKSt3__16vectorIiNS_9allocatorIiEEE8capacityB8ne180100Ev, symObjAddr: 0x2CA0, symBinAddr: 0x100003F6C, symSize: 0x40 }
  - { offset: 0x49C9B, size: 0x8, addend: 0x0, symName: __ZNSt3__16vectorIiNS_9allocatorIiEEE22__base_destruct_at_endB8ne180100EPi, symObjAddr: 0x2CE0, symBinAddr: 0x100003FAC, symSize: 0x8C }
  - { offset: 0x49CDF, size: 0x8, addend: 0x0, symName: __ZNSt3__116allocator_traitsINS_9allocatorIiEEE7destroyB8ne180100IivEEvRS2_PT_, symObjAddr: 0x2D6C, symBinAddr: 0x100004038, symSize: 0x2C }
  - { offset: 0x49D1C, size: 0x8, addend: 0x0, symName: __ZNSt3__19allocatorIiE7destroyB8ne180100EPi, symObjAddr: 0x2D98, symBinAddr: 0x100004064, symSize: 0x14 }
  - { offset: 0x49D50, size: 0x8, addend: 0x0, symName: __ZNSt3__19allocatorIiE10deallocateB8ne180100EPim, symObjAddr: 0x2DAC, symBinAddr: 0x100004078, symSize: 0x40 }
  - { offset: 0x49D92, size: 0x8, addend: 0x0, symName: __ZNKSt3__16vectorIiNS_9allocatorIiEEE9__end_capB8ne180100Ev, symObjAddr: 0x2EF4, symBinAddr: 0x1000041C0, symSize: 0x28 }
  - { offset: 0x49DB8, size: 0x8, addend: 0x0, symName: __ZNKSt3__117__compressed_pairIPiNS_9allocatorIiEEE5firstB8ne180100Ev, symObjAddr: 0x2F1C, symBinAddr: 0x1000041E8, symSize: 0x24 }
  - { offset: 0x49DDE, size: 0x8, addend: 0x0, symName: __ZNKSt3__122__compressed_pair_elemIPiLi0ELb0EE5__getB8ne180100Ev, symObjAddr: 0x2F40, symBinAddr: 0x10000420C, symSize: 0x14 }
  - { offset: 0x49E03, size: 0x8, addend: 0x0, symName: __Z9get_iris2v, symObjAddr: 0x2F54, symBinAddr: 0x100004220, symSize: 0x128 }
  - { offset: 0x49FC6, size: 0x8, addend: 0x0, symName: __ZN13DataProcessor16load_and_processERKNSt3__112basic_stringIcNS0_11char_traitsIcEENS0_9allocatorIcEEEEbc, symObjAddr: 0x307C, symBinAddr: 0x100004348, symSize: 0x58 }
  - { offset: 0x4A016, size: 0x8, addend: 0x0, symName: __ZN13DataProcessor32convert_to_double_with_encoding_ERKNSt3__16vectorINS1_INS0_12basic_stringIcNS0_11char_traitsIcEENS0_9allocatorIcEEEENS5_IS7_EEEENS5_IS9_EEEEb, symObjAddr: 0x30D4, symBinAddr: 0x1000043A0, symSize: 0x84 }
  - { offset: 0x4A066, size: 0x8, addend: 0x0, symName: __Z18convert_to_datasetRKNSt3__16vectorINS0_IdNS_9allocatorIdEEEENS1_IS3_EEEEi, symObjAddr: 0x3158, symBinAddr: 0x100004424, symSize: 0x26C }
  - { offset: 0x4A150, size: 0x8, addend: 0x0, symName: __ZNSt3__16vectorINS0_IdNS_9allocatorIdEEEENS1_IS3_EEED1B8ne180100Ev, symObjAddr: 0x33C4, symBinAddr: 0x100004690, symSize: 0x2C }
  - { offset: 0x4A17A, size: 0x8, addend: 0x0, symName: __ZNSt3__16vectorINS0_INS_12basic_stringIcNS_11char_traitsIcEENS_9allocatorIcEEEENS4_IS6_EEEENS4_IS8_EEED1B8ne180100Ev, symObjAddr: 0x33F0, symBinAddr: 0x1000046BC, symSize: 0x2C }
  - { offset: 0x4A1FF, size: 0x8, addend: 0x0, symName: __ZN9CSVLoader8load_csvERKNSt3__112basic_stringIcNS0_11char_traitsIcEENS0_9allocatorIcEEEEbc, symObjAddr: 0x341C, symBinAddr: 0x1000046E8, symSize: 0x420 }
  - { offset: 0x4A5C8, size: 0x8, addend: 0x0, symName: __ZNSt3__114basic_ifstreamIcNS_11char_traitsIcEEEC1ERKNS_12basic_stringIcS2_NS_9allocatorIcEEEEj, symObjAddr: 0x383C, symBinAddr: 0x100004B08, symSize: 0x164 }
  - { offset: 0x4A612, size: 0x8, addend: 0x0, symName: __ZNKSt3__114basic_ifstreamIcNS_11char_traitsIcEEE7is_openEv, symObjAddr: 0x39A0, symBinAddr: 0x100004C6C, symSize: 0x2C }
  - { offset: 0x4A63A, size: 0x8, addend: 0x0, symName: __ZNSt3__112basic_stringIcNS_11char_traitsIcEENS_9allocatorIcEEEC1B8ne180100Ev, symObjAddr: 0x39CC, symBinAddr: 0x100004C98, symSize: 0x2C }
  - { offset: 0x4A664, size: 0x8, addend: 0x0, symName: __ZNSt3__16vectorINS0_INS_12basic_stringIcNS_11char_traitsIcEENS_9allocatorIcEEEENS4_IS6_EEEENS4_IS8_EEEC1B8ne180100Ev, symObjAddr: 0x39F8, symBinAddr: 0x100004CC4, symSize: 0x2C }
  - { offset: 0x4A68E, size: 0x8, addend: 0x0, symName: __ZNKSt3__19basic_iosIcNS_11char_traitsIcEEEcvbB8ne180100Ev, symObjAddr: 0x3A80, symBinAddr: 0x100004D4C, symSize: 0x2C }
  - { offset: 0x4A6B4, size: 0x8, addend: 0x0, symName: __ZN9CSVLoader4trimERNSt3__112basic_stringIcNS0_11char_traitsIcEENS0_9allocatorIcEEEE, symObjAddr: 0x3AAC, symBinAddr: 0x100004D78, symSize: 0x110 }
  - { offset: 0x4A715, size: 0x8, addend: 0x0, symName: __ZNKSt3__112basic_stringIcNS_11char_traitsIcEENS_9allocatorIcEEE5emptyB8ne180100Ev, symObjAddr: 0x3BBC, symBinAddr: 0x100004E88, symSize: 0x30 }
  - { offset: 0x4A73B, size: 0x8, addend: 0x0, symName: __ZN9CSVLoader10split_lineERKNSt3__112basic_stringIcNS0_11char_traitsIcEENS0_9allocatorIcEEEEc, symObjAddr: 0x3BEC, symBinAddr: 0x100004EB8, symSize: 0x14C }
  - { offset: 0x4A798, size: 0x8, addend: 0x0, symName: __ZNKSt3__16vectorINS_12basic_stringIcNS_11char_traitsIcEENS_9allocatorIcEEEENS4_IS6_EEE5emptyB8ne180100Ev, symObjAddr: 0x3D38, symBinAddr: 0x100005004, symSize: 0x28 }
  - { offset: 0x4A7BE, size: 0x8, addend: 0x0, symName: __ZNSt3__16vectorINS0_INS_12basic_stringIcNS_11char_traitsIcEENS_9allocatorIcEEEENS4_IS6_EEEENS4_IS8_EEE9push_backB8ne180100EOS8_, symObjAddr: 0x3D60, symBinAddr: 0x10000502C, symSize: 0x90 }
  - { offset: 0x4A804, size: 0x8, addend: 0x0, symName: __ZNSt3__16vectorINS_12basic_stringIcNS_11char_traitsIcEENS_9allocatorIcEEEENS4_IS6_EEED1B8ne180100Ev, symObjAddr: 0x3DF0, symBinAddr: 0x1000050BC, symSize: 0x2C }
  - { offset: 0x4A82E, size: 0x8, addend: 0x0, symName: __ZNSt3__114basic_ifstreamIcNS_11char_traitsIcEEE5closeEv, symObjAddr: 0x3E1C, symBinAddr: 0x1000050E8, symSize: 0x58 }
  - { offset: 0x4A856, size: 0x8, addend: 0x0, symName: __ZNKSt3__16vectorINS0_INS_12basic_stringIcNS_11char_traitsIcEENS_9allocatorIcEEEENS4_IS6_EEEENS4_IS8_EEE5emptyB8ne180100Ev, symObjAddr: 0x3E74, symBinAddr: 0x100005140, symSize: 0x28 }
  - { offset: 0x4A882, size: 0x8, addend: 0x0, symName: __ZNSt3__114basic_ifstreamIcNS_11char_traitsIcEEED1Ev, symObjAddr: 0x3E9C, symBinAddr: 0x100005168, symSize: 0x40 }
  - { offset: 0x4A8AF, size: 0x8, addend: 0x0, symName: __ZNSt3__19basic_iosIcNS_11char_traitsIcEEEC2B8ne180100Ev, symObjAddr: 0x3EDC, symBinAddr: 0x1000051A8, symSize: 0x3C }
  - { offset: 0x4A8D9, size: 0x8, addend: 0x0, symName: __ZNSt3__113basic_istreamIcNS_11char_traitsIcEEEC2B8ne180100EPNS_15basic_streambufIcS2_EE, symObjAddr: 0x3F18, symBinAddr: 0x1000051E4, symSize: 0x64 }
  - { offset: 0x4A91E, size: 0x8, addend: 0x0, symName: __ZNSt3__113basic_filebufIcNS_11char_traitsIcEEE4openERKNS_12basic_stringIcS2_NS_9allocatorIcEEEEj, symObjAddr: 0x3F7C, symBinAddr: 0x100005248, symSize: 0x44 }
  - { offset: 0x4A964, size: 0x8, addend: 0x0, symName: __ZNSt3__19basic_iosIcNS_11char_traitsIcEEE8setstateB8ne180100Ej, symObjAddr: 0x3FC0, symBinAddr: 0x10000528C, symSize: 0x2C }
  - { offset: 0x4A999, size: 0x8, addend: 0x0, symName: __ZNSt3__18ios_baseC2B8ne180100Ev, symObjAddr: 0x3FEC, symBinAddr: 0x1000052B8, symSize: 0x24 }
  - { offset: 0x4A9C3, size: 0x8, addend: 0x0, symName: __ZNSt3__19basic_iosIcNS_11char_traitsIcEEE4initB8ne180100EPNS_15basic_streambufIcS2_EE, symObjAddr: 0x4010, symBinAddr: 0x1000052DC, symSize: 0x44 }
  - { offset: 0x4A9FA, size: 0x8, addend: 0x0, symName: __ZNSt3__111char_traitsIcE3eofB8ne180100Ev, symObjAddr: 0x4054, symBinAddr: 0x100005320, symSize: 0x8 }
  - { offset: 0x4AA0E, size: 0x8, addend: 0x0, symName: __ZNKSt3__112basic_stringIcNS_11char_traitsIcEENS_9allocatorIcEEE5c_strB8ne180100Ev, symObjAddr: 0x405C, symBinAddr: 0x100005328, symSize: 0x24 }
  - { offset: 0x4AA34, size: 0x8, addend: 0x0, symName: __ZNKSt3__112basic_stringIcNS_11char_traitsIcEENS_9allocatorIcEEE4dataB8ne180100Ev, symObjAddr: 0x4080, symBinAddr: 0x10000534C, symSize: 0x28 }
  - { offset: 0x4AA5A, size: 0x8, addend: 0x0, symName: __ZNKSt3__112basic_stringIcNS_11char_traitsIcEENS_9allocatorIcEEE13__get_pointerB8ne180100Ev, symObjAddr: 0x40BC, symBinAddr: 0x100005388, symSize: 0x54 }
  - { offset: 0x4AA80, size: 0x8, addend: 0x0, symName: __ZNKSt3__112basic_stringIcNS_11char_traitsIcEENS_9allocatorIcEEE9__is_longB8ne180100Ev, symObjAddr: 0x4110, symBinAddr: 0x1000053DC, symSize: 0x38 }
  - { offset: 0x4AAA6, size: 0x8, addend: 0x0, symName: __ZNKSt3__112basic_stringIcNS_11char_traitsIcEENS_9allocatorIcEEE18__get_long_pointerB8ne180100Ev, symObjAddr: 0x4148, symBinAddr: 0x100005414, symSize: 0x28 }
  - { offset: 0x4AACC, size: 0x8, addend: 0x0, symName: __ZNKSt3__112basic_stringIcNS_11char_traitsIcEENS_9allocatorIcEEE19__get_short_pointerB8ne180100Ev, symObjAddr: 0x4170, symBinAddr: 0x10000543C, symSize: 0x28 }
  - { offset: 0x4AAF2, size: 0x8, addend: 0x0, symName: __ZNKSt3__117__compressed_pairINS_12basic_stringIcNS_11char_traitsIcEENS_9allocatorIcEEE5__repES5_E5firstB8ne180100Ev, symObjAddr: 0x4198, symBinAddr: 0x100005464, symSize: 0x24 }
  - { offset: 0x4AB18, size: 0x8, addend: 0x0, symName: __ZNKSt3__122__compressed_pair_elemINS_12basic_stringIcNS_11char_traitsIcEENS_9allocatorIcEEE5__repELi0ELb0EE5__getB8ne180100Ev, symObjAddr: 0x41BC, symBinAddr: 0x100005488, symSize: 0x14 }
  - { offset: 0x4AB3E, size: 0x8, addend: 0x0, symName: __ZNSt3__114pointer_traitsIPKcE10pointer_toB8ne180100ERS1_, symObjAddr: 0x41D0, symBinAddr: 0x10000549C, symSize: 0x14 }
  - { offset: 0x4AB61, size: 0x8, addend: 0x0, symName: __ZNSt3__18ios_base8setstateB8ne180100Ej, symObjAddr: 0x41E4, symBinAddr: 0x1000054B0, symSize: 0x34 }
  - { offset: 0x4AB98, size: 0x8, addend: 0x0, symName: __ZNKSt3__113basic_filebufIcNS_11char_traitsIcEEE7is_openEv, symObjAddr: 0x4218, symBinAddr: 0x1000054E4, symSize: 0x24 }
  - { offset: 0x4ABC0, size: 0x8, addend: 0x0, symName: __ZNSt3__112basic_stringIcNS_11char_traitsIcEENS_9allocatorIcEEEC2B8ne180100Ev, symObjAddr: 0x423C, symBinAddr: 0x100005508, symSize: 0x48 }
  - { offset: 0x4ABF6, size: 0x8, addend: 0x0, symName: __ZNSt3__117__compressed_pairINS_12basic_stringIcNS_11char_traitsIcEENS_9allocatorIcEEE5__repES5_EC1B8ne180100INS_16__value_init_tagENS_18__default_init_tagEEEOT_OT0_, symObjAddr: 0x4284, symBinAddr: 0x100005550, symSize: 0x3C }
  - { offset: 0x4AC4E, size: 0x8, addend: 0x0, symName: __ZNKSt3__112basic_stringIcNS_11char_traitsIcEENS_9allocatorIcEEE14__annotate_newB8ne180100Em, symObjAddr: 0x42C0, symBinAddr: 0x10000558C, symSize: 0x14 }
  - { offset: 0x4AC83, size: 0x8, addend: 0x0, symName: __ZNSt3__117__compressed_pairINS_12basic_stringIcNS_11char_traitsIcEENS_9allocatorIcEEE5__repES5_EC2B8ne180100INS_16__value_init_tagENS_18__default_init_tagEEEOT_OT0_, symObjAddr: 0x42D4, symBinAddr: 0x1000055A0, symSize: 0x3C }
  - { offset: 0x4ACDB, size: 0x8, addend: 0x0, symName: __ZNSt3__122__compressed_pair_elemINS_12basic_stringIcNS_11char_traitsIcEENS_9allocatorIcEEE5__repELi0ELb0EEC2B8ne180100ENS_16__value_init_tagE, symObjAddr: 0x4310, symBinAddr: 0x1000055DC, symSize: 0x20 }
  - { offset: 0x4AD0F, size: 0x8, addend: 0x0, symName: __ZNSt3__122__compressed_pair_elemINS_9allocatorIcEELi1ELb1EEC2B8ne180100ENS_18__default_init_tagE, symObjAddr: 0x4330, symBinAddr: 0x1000055FC, symSize: 0x2C }
  - { offset: 0x4AD43, size: 0x8, addend: 0x0, symName: __ZNSt3__19allocatorIcEC2B8ne180100Ev, symObjAddr: 0x435C, symBinAddr: 0x100005628, symSize: 0x2C }
  - { offset: 0x4AD6D, size: 0x8, addend: 0x0, symName: __ZNSt3__116__non_trivial_ifILb1ENS_9allocatorIcEEEC2B8ne180100Ev, symObjAddr: 0x4388, symBinAddr: 0x100005654, symSize: 0x14 }
  - { offset: 0x4AD97, size: 0x8, addend: 0x0, symName: __ZNSt3__16vectorINS0_INS_12basic_stringIcNS_11char_traitsIcEENS_9allocatorIcEEEENS4_IS6_EEEENS4_IS8_EEEC2B8ne180100Ev, symObjAddr: 0x439C, symBinAddr: 0x100005668, symSize: 0x4C }
  - { offset: 0x4ADC1, size: 0x8, addend: 0x0, symName: __ZNSt3__117__compressed_pairIPNS_6vectorINS_12basic_stringIcNS_11char_traitsIcEENS_9allocatorIcEEEENS5_IS7_EEEENS5_IS9_EEEC1B8ne180100IDnNS_18__default_init_tagEEEOT_OT0_, symObjAddr: 0x43E8, symBinAddr: 0x1000056B4, symSize: 0x3C }
  - { offset: 0x4AE19, size: 0x8, addend: 0x0, symName: __ZNSt3__117__compressed_pairIPNS_6vectorINS_12basic_stringIcNS_11char_traitsIcEENS_9allocatorIcEEEENS5_IS7_EEEENS5_IS9_EEEC2B8ne180100IDnNS_18__default_init_tagEEEOT_OT0_, symObjAddr: 0x4424, symBinAddr: 0x1000056F0, symSize: 0x40 }
  - { offset: 0x4AE71, size: 0x8, addend: 0x0, symName: __ZNSt3__122__compressed_pair_elemIPNS_6vectorINS_12basic_stringIcNS_11char_traitsIcEENS_9allocatorIcEEEENS5_IS7_EEEELi0ELb0EEC2B8ne180100IDnvEEOT_, symObjAddr: 0x4464, symBinAddr: 0x100005730, symSize: 0x1C }
  - { offset: 0x4AEB3, size: 0x8, addend: 0x0, symName: __ZNSt3__122__compressed_pair_elemINS_9allocatorINS_6vectorINS_12basic_stringIcNS_11char_traitsIcEENS1_IcEEEENS1_IS7_EEEEEELi1ELb1EEC2B8ne180100ENS_18__default_init_tagE, symObjAddr: 0x4480, symBinAddr: 0x10000574C, symSize: 0x2C }
  - { offset: 0x4AEE7, size: 0x8, addend: 0x0, symName: __ZNSt3__19allocatorINS_6vectorINS_12basic_stringIcNS_11char_traitsIcEENS0_IcEEEENS0_IS6_EEEEEC2B8ne180100Ev, symObjAddr: 0x44AC, symBinAddr: 0x100005778, symSize: 0x2C }
  - { offset: 0x4AF11, size: 0x8, addend: 0x0, symName: __ZNSt3__116__non_trivial_ifILb1ENS_9allocatorINS_6vectorINS_12basic_stringIcNS_11char_traitsIcEENS1_IcEEEENS1_IS7_EEEEEEEC2B8ne180100Ev, symObjAddr: 0x44D8, symBinAddr: 0x1000057A4, symSize: 0x14 }
  - { offset: 0x4AF3B, size: 0x8, addend: 0x0, symName: __ZNKSt3__19basic_iosIcNS_11char_traitsIcEEE5widenB8ne180100Ec, symObjAddr: 0x4724, symBinAddr: 0x1000059F0, symSize: 0x84 }
  - { offset: 0x4AF95, size: 0x8, addend: 0x0, symName: __ZNKSt3__113basic_istreamIcNS_11char_traitsIcEEE6sentrycvbB8ne180100Ev, symObjAddr: 0x47A8, symBinAddr: 0x100005A74, symSize: 0x1C }
  - { offset: 0x4AFBB, size: 0x8, addend: 0x0, symName: __ZNSt3__112basic_stringIcNS_11char_traitsIcEENS_9allocatorIcEEE5clearB8ne180100Ev, symObjAddr: 0x47C4, symBinAddr: 0x100005A90, symSize: 0x94 }
  - { offset: 0x4AFF2, size: 0x8, addend: 0x0, symName: __ZNKSt3__19basic_iosIcNS_11char_traitsIcEEE5rdbufB8ne180100Ev, symObjAddr: 0x4858, symBinAddr: 0x100005B24, symSize: 0x24 }
  - { offset: 0x4B01A, size: 0x8, addend: 0x0, symName: __ZNSt3__115basic_streambufIcNS_11char_traitsIcEEE6sbumpcB8ne180100Ev, symObjAddr: 0x487C, symBinAddr: 0x100005B48, symSize: 0x78 }
  - { offset: 0x4B040, size: 0x8, addend: 0x0, symName: __ZNSt3__111char_traitsIcE11eq_int_typeB8ne180100Eii, symObjAddr: 0x48F4, symBinAddr: 0x100005BC0, symSize: 0x28 }
  - { offset: 0x4B073, size: 0x8, addend: 0x0, symName: __ZNSt3__111char_traitsIcE12to_char_typeB8ne180100Ei, symObjAddr: 0x491C, symBinAddr: 0x100005BE8, symSize: 0x18 }
  - { offset: 0x4B097, size: 0x8, addend: 0x0, symName: __ZNSt3__111char_traitsIcE2eqEcc, symObjAddr: 0x4934, symBinAddr: 0x100005C00, symSize: 0x28 }
  - { offset: 0x4B0C8, size: 0x8, addend: 0x0, symName: __ZNKSt3__112basic_stringIcNS_11char_traitsIcEENS_9allocatorIcEEE4sizeB8ne180100Ev, symObjAddr: 0x495C, symBinAddr: 0x100005C28, symSize: 0x54 }
  - { offset: 0x4B0EE, size: 0x8, addend: 0x0, symName: __ZNKSt3__112basic_stringIcNS_11char_traitsIcEENS_9allocatorIcEEE8max_sizeB8ne180100Ev, symObjAddr: 0x49B0, symBinAddr: 0x100005C7C, symSize: 0xAC }
  - { offset: 0x4B140, size: 0x8, addend: 0x0, symName: __ZNSt3__18ios_base18__setstate_nothrowB8ne180100Ej, symObjAddr: 0x4A5C, symBinAddr: 0x100005D28, symSize: 0x64 }
  - { offset: 0x4B175, size: 0x8, addend: 0x0, symName: __ZNKSt3__19basic_iosIcNS_11char_traitsIcEEE10exceptionsB8ne180100Ev, symObjAddr: 0x4AC0, symBinAddr: 0x100005D8C, symSize: 0x24 }
  - { offset: 0x4B19B, size: 0x8, addend: 0x0, symName: __ZNSt3__111char_traitsIcE6assignB8ne180100ERcRKc, symObjAddr: 0x4AE4, symBinAddr: 0x100005DB0, symSize: 0x24 }
  - { offset: 0x4B1CC, size: 0x8, addend: 0x0, symName: __ZNSt3__112basic_stringIcNS_11char_traitsIcEENS_9allocatorIcEEE18__get_long_pointerB8ne180100Ev, symObjAddr: 0x4B08, symBinAddr: 0x100005DD4, symSize: 0x28 }
  - { offset: 0x4B1F2, size: 0x8, addend: 0x0, symName: __ZNSt3__112basic_stringIcNS_11char_traitsIcEENS_9allocatorIcEEE15__set_long_sizeB8ne180100Em, symObjAddr: 0x4B30, symBinAddr: 0x100005DFC, symSize: 0x38 }
  - { offset: 0x4B227, size: 0x8, addend: 0x0, symName: __ZNSt3__112basic_stringIcNS_11char_traitsIcEENS_9allocatorIcEEE19__get_short_pointerB8ne180100Ev, symObjAddr: 0x4B68, symBinAddr: 0x100005E34, symSize: 0x28 }
  - { offset: 0x4B24D, size: 0x8, addend: 0x0, symName: __ZNSt3__112basic_stringIcNS_11char_traitsIcEENS_9allocatorIcEEE16__set_short_sizeB8ne180100Em, symObjAddr: 0x4B90, symBinAddr: 0x100005E5C, symSize: 0x78 }
  - { offset: 0x4B282, size: 0x8, addend: 0x0, symName: __ZNKSt3__112basic_stringIcNS_11char_traitsIcEENS_9allocatorIcEEE17__annotate_shrinkB8ne180100Em, symObjAddr: 0x4C08, symBinAddr: 0x100005ED4, symSize: 0x14 }
  - { offset: 0x4B2B7, size: 0x8, addend: 0x0, symName: __ZNSt3__117__compressed_pairINS_12basic_stringIcNS_11char_traitsIcEENS_9allocatorIcEEE5__repES5_E5firstB8ne180100Ev, symObjAddr: 0x4C1C, symBinAddr: 0x100005EE8, symSize: 0x24 }
  - { offset: 0x4B2DD, size: 0x8, addend: 0x0, symName: __ZNSt3__122__compressed_pair_elemINS_12basic_stringIcNS_11char_traitsIcEENS_9allocatorIcEEE5__repELi0ELb0EE5__getB8ne180100Ev, symObjAddr: 0x4C40, symBinAddr: 0x100005F0C, symSize: 0x14 }
  - { offset: 0x4B303, size: 0x8, addend: 0x0, symName: __ZNSt3__114pointer_traitsIPcE10pointer_toB8ne180100ERc, symObjAddr: 0x4C54, symBinAddr: 0x100005F20, symSize: 0x14 }
  - { offset: 0x4B326, size: 0x8, addend: 0x0, symName: __ZNKSt3__18ios_base5rdbufB8ne180100Ev, symObjAddr: 0x4C68, symBinAddr: 0x100005F34, symSize: 0x18 }
  - { offset: 0x4B34C, size: 0x8, addend: 0x0, symName: __ZNSt3__111char_traitsIcE11to_int_typeB8ne180100Ec, symObjAddr: 0x4C80, symBinAddr: 0x100005F4C, symSize: 0x14 }
  - { offset: 0x4B370, size: 0x8, addend: 0x0, symName: __ZNKSt3__112basic_stringIcNS_11char_traitsIcEENS_9allocatorIcEEE15__get_long_sizeB8ne180100Ev, symObjAddr: 0x4C94, symBinAddr: 0x100005F60, symSize: 0x28 }
  - { offset: 0x4B396, size: 0x8, addend: 0x0, symName: __ZNKSt3__112basic_stringIcNS_11char_traitsIcEENS_9allocatorIcEEE16__get_short_sizeB8ne180100Ev, symObjAddr: 0x4CBC, symBinAddr: 0x100005F88, symSize: 0x34 }
  - { offset: 0x4B3C7, size: 0x8, addend: 0x0, symName: __ZNSt3__116allocator_traitsINS_9allocatorIcEEE8max_sizeB8ne180100IS2_vEEmRKS2_, symObjAddr: 0x4CF0, symBinAddr: 0x100005FBC, symSize: 0x24 }
  - { offset: 0x4B3F5, size: 0x8, addend: 0x0, symName: __ZNKSt3__112basic_stringIcNS_11char_traitsIcEENS_9allocatorIcEEE7__allocB8ne180100Ev, symObjAddr: 0x4D14, symBinAddr: 0x100005FE0, symSize: 0x24 }
  - { offset: 0x4B41B, size: 0x8, addend: 0x0, symName: __ZNSt3__114numeric_limitsImE3maxB8ne180100Ev, symObjAddr: 0x4D38, symBinAddr: 0x100006004, symSize: 0x14 }
  - { offset: 0x4B42F, size: 0x8, addend: 0x0, symName: __ZNKSt3__19allocatorIcE8max_sizeB8ne180100Ev, symObjAddr: 0x4D4C, symBinAddr: 0x100006018, symSize: 0x14 }
  - { offset: 0x4B455, size: 0x8, addend: 0x0, symName: __ZNKSt3__117__compressed_pairINS_12basic_stringIcNS_11char_traitsIcEENS_9allocatorIcEEE5__repES5_E6secondB8ne180100Ev, symObjAddr: 0x4D60, symBinAddr: 0x10000602C, symSize: 0x24 }
  - { offset: 0x4B47B, size: 0x8, addend: 0x0, symName: __ZNKSt3__122__compressed_pair_elemINS_9allocatorIcEELi1ELb1EE5__getB8ne180100Ev, symObjAddr: 0x4D84, symBinAddr: 0x100006050, symSize: 0x14 }
  - { offset: 0x4B4A1, size: 0x8, addend: 0x0, symName: __ZNSt3__123__libcpp_numeric_limitsImLb1EE3maxB8ne180100Ev, symObjAddr: 0x4D98, symBinAddr: 0x100006064, symSize: 0x8 }
  - { offset: 0x4B4B5, size: 0x8, addend: 0x0, symName: __ZNKSt3__18ios_base10exceptionsB8ne180100Ev, symObjAddr: 0x4DA0, symBinAddr: 0x10000606C, symSize: 0x18 }
  - { offset: 0x4B521, size: 0x8, addend: 0x0, symName: __ZNKSt3__15ctypeIcE5widenB8ne180100Ec, symObjAddr: 0x4DE4, symBinAddr: 0x1000060B0, symSize: 0x38 }
  - { offset: 0x4B556, size: 0x8, addend: 0x0, symName: __ZNKSt3__19basic_iosIcNS_11char_traitsIcEEE4failB8ne180100Ev, symObjAddr: 0x4E1C, symBinAddr: 0x1000060E8, symSize: 0x28 }
  - { offset: 0x4B57C, size: 0x8, addend: 0x0, symName: __ZNKSt3__18ios_base4failB8ne180100Ev, symObjAddr: 0x4E44, symBinAddr: 0x100006110, symSize: 0x28 }
  - { offset: 0x4B5A4, size: 0x8, addend: 0x0, symName: __ZNSt3__112basic_stringIcNS_11char_traitsIcEENS_9allocatorIcEEE5eraseB8ne180100ENS_11__wrap_iterIPKcEES9_, symObjAddr: 0x4E6C, symBinAddr: 0x100006138, symSize: 0x98 }
  - { offset: 0x4B608, size: 0x8, addend: 0x0, symName: __ZNSt3__112basic_stringIcNS_11char_traitsIcEENS_9allocatorIcEEE5beginB8ne180100Ev, symObjAddr: 0x4F04, symBinAddr: 0x1000061D0, symSize: 0x4C }
  - { offset: 0x4B634, size: 0x8, addend: 0x0, symName: __ZNSt3__111__wrap_iterIPKcEC1B8ne180100IPcLi0EEERKNS0_IT_EE, symObjAddr: 0x4F50, symBinAddr: 0x10000621C, symSize: 0x34 }
  - { offset: 0x4B67B, size: 0x8, addend: 0x0, symName: __ZNSt3__112basic_stringIcNS_11char_traitsIcEENS_9allocatorIcEEE3endB8ne180100Ev, symObjAddr: 0x4FF8, symBinAddr: 0x1000062C4, symSize: 0x54 }
  - { offset: 0x4B6A1, size: 0x8, addend: 0x0, symName: __ZNSt3__112basic_stringIcNS_11char_traitsIcEENS_9allocatorIcEEE6rbeginB8ne180100Ev, symObjAddr: 0x50CC, symBinAddr: 0x100006398, symSize: 0x44 }
  - { offset: 0x4B6C7, size: 0x8, addend: 0x0, symName: __ZNSt3__112basic_stringIcNS_11char_traitsIcEENS_9allocatorIcEEE4rendB8ne180100Ev, symObjAddr: 0x5110, symBinAddr: 0x1000063DC, symSize: 0x44 }
  - { offset: 0x4B6ED, size: 0x8, addend: 0x0, symName: __ZNKSt3__116reverse_iteratorINS_11__wrap_iterIPcEEE4baseB8ne180100Ev, symObjAddr: 0x5154, symBinAddr: 0x100006420, symSize: 0x20 }
  - { offset: 0x4B713, size: 0x8, addend: 0x0, symName: __ZNKSt3__111__wrap_iterIPcEplB8ne180100El, symObjAddr: 0x51F4, symBinAddr: 0x1000064C0, symSize: 0x3C }
  - { offset: 0x4B755, size: 0x8, addend: 0x0, symName: __ZNKSt3__111__wrap_iterIPKcE4baseB8ne180100Ev, symObjAddr: 0x5230, symBinAddr: 0x1000064FC, symSize: 0x18 }
  - { offset: 0x4B77B, size: 0x8, addend: 0x0, symName: __ZNKSt3__111__wrap_iterIPcE4baseB8ne180100Ev, symObjAddr: 0x5248, symBinAddr: 0x100006514, symSize: 0x18 }
  - { offset: 0x4B7A1, size: 0x8, addend: 0x0, symName: __ZNSt3__111__wrap_iterIPcEpLB8ne180100El, symObjAddr: 0x5260, symBinAddr: 0x10000652C, symSize: 0x28 }
  - { offset: 0x4B7D5, size: 0x8, addend: 0x0, symName: __ZNSt3__112basic_stringIcNS_11char_traitsIcEENS_9allocatorIcEEE15__make_iteratorB8ne180100EPc, symObjAddr: 0x5288, symBinAddr: 0x100006554, symSize: 0x30 }
  - { offset: 0x4B80A, size: 0x8, addend: 0x0, symName: __ZNSt3__112basic_stringIcNS_11char_traitsIcEENS_9allocatorIcEEE13__get_pointerB8ne180100Ev, symObjAddr: 0x52B8, symBinAddr: 0x100006584, symSize: 0x54 }
  - { offset: 0x4B830, size: 0x8, addend: 0x0, symName: __ZNSt3__111__wrap_iterIPcEC1B8ne180100ES1_, symObjAddr: 0x530C, symBinAddr: 0x1000065D8, symSize: 0x34 }
  - { offset: 0x4B868, size: 0x8, addend: 0x0, symName: __ZNSt3__111__wrap_iterIPcEC2B8ne180100ES1_, symObjAddr: 0x5340, symBinAddr: 0x10000660C, symSize: 0x20 }
  - { offset: 0x4B8A0, size: 0x8, addend: 0x0, symName: __ZNSt3__111__wrap_iterIPKcEC2B8ne180100IPcLi0EEERKNS0_IT_EE, symObjAddr: 0x5360, symBinAddr: 0x10000662C, symSize: 0x3C }
  - { offset: 0x4B8F2, size: 0x8, addend: 0x0, symName: __ZZN9CSVLoader4trimERNSt3__112basic_stringIcNS0_11char_traitsIcEENS0_9allocatorIcEEEEENKUlhE_clEh, symObjAddr: 0x53D0, symBinAddr: 0x10000669C, symSize: 0x34 }
  - { offset: 0x4B92A, size: 0x8, addend: 0x0, symName: __ZNKSt3__111__wrap_iterIPcEdeB8ne180100Ev, symObjAddr: 0x5404, symBinAddr: 0x1000066D0, symSize: 0x18 }
  - { offset: 0x4B950, size: 0x8, addend: 0x0, symName: __ZNSt3__111__wrap_iterIPcEppB8ne180100Ev, symObjAddr: 0x541C, symBinAddr: 0x1000066E8, symSize: 0x20 }
  - { offset: 0x4B975, size: 0x8, addend: 0x0, symName: __Z7isspacei, symObjAddr: 0x5484, symBinAddr: 0x100006750, symSize: 0x28 }
  - { offset: 0x4B9A3, size: 0x8, addend: 0x0, symName: __Z8__istypeim, symObjAddr: 0x54AC, symBinAddr: 0x100006778, symSize: 0x84 }
  - { offset: 0x4B9DD, size: 0x8, addend: 0x0, symName: __Z7isasciii, symObjAddr: 0x5530, symBinAddr: 0x1000067FC, symSize: 0x24 }
  - { offset: 0x4BA15, size: 0x8, addend: 0x0, symName: __ZZN9CSVLoader4trimERNSt3__112basic_stringIcNS0_11char_traitsIcEENS0_9allocatorIcEEEEENKUlhE0_clEh, symObjAddr: 0x55A8, symBinAddr: 0x100006874, symSize: 0x34 }
  - { offset: 0x4BA4D, size: 0x8, addend: 0x0, symName: __ZNKSt3__116reverse_iteratorINS_11__wrap_iterIPcEEEdeB8ne180100Ev, symObjAddr: 0x55DC, symBinAddr: 0x1000068A8, symSize: 0x34 }
  - { offset: 0x4BA81, size: 0x8, addend: 0x0, symName: __ZNSt3__116reverse_iteratorINS_11__wrap_iterIPcEEEppB8ne180100Ev, symObjAddr: 0x5610, symBinAddr: 0x1000068DC, symSize: 0x30 }
  - { offset: 0x4BAA7, size: 0x8, addend: 0x0, symName: __ZNSt3__111__wrap_iterIPcEmmB8ne180100Ev, symObjAddr: 0x5640, symBinAddr: 0x10000690C, symSize: 0x20 }
  - { offset: 0x4BACD, size: 0x8, addend: 0x0, symName: __ZNSt3__116reverse_iteratorINS_11__wrap_iterIPcEEEC1B8ne180100ES3_, symObjAddr: 0x5660, symBinAddr: 0x10000692C, symSize: 0x34 }
  - { offset: 0x4BB05, size: 0x8, addend: 0x0, symName: __ZNSt3__116reverse_iteratorINS_11__wrap_iterIPcEEEC2B8ne180100ES3_, symObjAddr: 0x5694, symBinAddr: 0x100006960, symSize: 0x28 }
  - { offset: 0x4BB3D, size: 0x8, addend: 0x0, symName: __ZNSt3__16vectorINS_12basic_stringIcNS_11char_traitsIcEENS_9allocatorIcEEEENS4_IS6_EEEC1B8ne180100Ev, symObjAddr: 0x56BC, symBinAddr: 0x100006988, symSize: 0x2C }
  - { offset: 0x4BBA1, size: 0x8, addend: 0x0, symName: __ZNSt3__118basic_stringstreamIcNS_11char_traitsIcEENS_9allocatorIcEEEC1B8ne180100ERKNS_12basic_stringIcS2_S4_EEj, symObjAddr: 0x56E8, symBinAddr: 0x1000069B4, symSize: 0x100 }
  - { offset: 0x4BBE9, size: 0x8, addend: 0x0, symName: __ZNSt3__16vectorINS_12basic_stringIcNS_11char_traitsIcEENS_9allocatorIcEEEENS4_IS6_EEE9push_backB8ne180100ERKS6_, symObjAddr: 0x57E8, symBinAddr: 0x100006AB4, symSize: 0x90 }
  - { offset: 0x4BC35, size: 0x8, addend: 0x0, symName: __ZNSt3__118basic_stringstreamIcNS_11char_traitsIcEENS_9allocatorIcEEED1Ev, symObjAddr: 0x5878, symBinAddr: 0x100006B44, symSize: 0x40 }
  - { offset: 0x4BC62, size: 0x8, addend: 0x0, symName: __ZNSt3__16vectorINS_12basic_stringIcNS_11char_traitsIcEENS_9allocatorIcEEEENS4_IS6_EEEC2B8ne180100Ev, symObjAddr: 0x58B8, symBinAddr: 0x100006B84, symSize: 0x4C }
  - { offset: 0x4BC8C, size: 0x8, addend: 0x0, symName: __ZNSt3__117__compressed_pairIPNS_12basic_stringIcNS_11char_traitsIcEENS_9allocatorIcEEEENS4_IS6_EEEC1B8ne180100IDnNS_18__default_init_tagEEEOT_OT0_, symObjAddr: 0x5904, symBinAddr: 0x100006BD0, symSize: 0x3C }
  - { offset: 0x4BCE4, size: 0x8, addend: 0x0, symName: __ZNSt3__117__compressed_pairIPNS_12basic_stringIcNS_11char_traitsIcEENS_9allocatorIcEEEENS4_IS6_EEEC2B8ne180100IDnNS_18__default_init_tagEEEOT_OT0_, symObjAddr: 0x5940, symBinAddr: 0x100006C0C, symSize: 0x40 }
  - { offset: 0x4BD3C, size: 0x8, addend: 0x0, symName: __ZNSt3__122__compressed_pair_elemIPNS_12basic_stringIcNS_11char_traitsIcEENS_9allocatorIcEEEELi0ELb0EEC2B8ne180100IDnvEEOT_, symObjAddr: 0x5980, symBinAddr: 0x100006C4C, symSize: 0x1C }
  - { offset: 0x4BD7E, size: 0x8, addend: 0x0, symName: __ZNSt3__122__compressed_pair_elemINS_9allocatorINS_12basic_stringIcNS_11char_traitsIcEENS1_IcEEEEEELi1ELb1EEC2B8ne180100ENS_18__default_init_tagE, symObjAddr: 0x599C, symBinAddr: 0x100006C68, symSize: 0x2C }
  - { offset: 0x4BDB2, size: 0x8, addend: 0x0, symName: __ZNSt3__19allocatorINS_12basic_stringIcNS_11char_traitsIcEENS0_IcEEEEEC2B8ne180100Ev, symObjAddr: 0x59C8, symBinAddr: 0x100006C94, symSize: 0x2C }
  - { offset: 0x4BDDC, size: 0x8, addend: 0x0, symName: __ZNSt3__116__non_trivial_ifILb1ENS_9allocatorINS_12basic_stringIcNS_11char_traitsIcEENS1_IcEEEEEEEC2B8ne180100Ev, symObjAddr: 0x59F4, symBinAddr: 0x100006CC0, symSize: 0x14 }
  - { offset: 0x4BE06, size: 0x8, addend: 0x0, symName: __ZNSt3__114basic_iostreamIcNS_11char_traitsIcEEEC2B8ne180100EPNS_15basic_streambufIcS2_EE, symObjAddr: 0x5A08, symBinAddr: 0x100006CD4, symSize: 0xAC }
  - { offset: 0x4BE4C, size: 0x8, addend: 0x0, symName: __ZNSt3__115basic_stringbufIcNS_11char_traitsIcEENS_9allocatorIcEEEC1B8ne180100ERKNS_12basic_stringIcS2_S4_EEj, symObjAddr: 0x5AB4, symBinAddr: 0x100006D80, symSize: 0x3C }
  - { offset: 0x4BE94, size: 0x8, addend: 0x0, symName: __ZNSt3__113basic_ostreamIcNS_11char_traitsIcEEEC2B8ne180100Ev, symObjAddr: 0x5AF0, symBinAddr: 0x100006DBC, symSize: 0x34 }
  - { offset: 0x4BECB, size: 0x8, addend: 0x0, symName: __ZNSt3__115basic_stringbufIcNS_11char_traitsIcEENS_9allocatorIcEEEC2B8ne180100ERKNS_12basic_stringIcS2_S4_EEj, symObjAddr: 0x5B24, symBinAddr: 0x100006DF0, symSize: 0xA8 }
  - { offset: 0x4BF13, size: 0x8, addend: 0x0, symName: __ZNKSt3__112basic_stringIcNS_11char_traitsIcEENS_9allocatorIcEEE13get_allocatorB8ne180100Ev, symObjAddr: 0x5BCC, symBinAddr: 0x100006E98, symSize: 0x24 }
  - { offset: 0x4BF39, size: 0x8, addend: 0x0, symName: __ZNSt3__112basic_stringIcNS_11char_traitsIcEENS_9allocatorIcEEEC1B8ne180100ERKS4_, symObjAddr: 0x5BF0, symBinAddr: 0x100006EBC, symSize: 0x34 }
  - { offset: 0x4BF72, size: 0x8, addend: 0x0, symName: __ZNSt3__112basic_stringIcNS_11char_traitsIcEENS_9allocatorIcEEEC2B8ne180100ERKS4_, symObjAddr: 0x5C24, symBinAddr: 0x100006EF0, symSize: 0x4C }
  - { offset: 0x4BFAB, size: 0x8, addend: 0x0, symName: __ZNSt3__117__compressed_pairINS_12basic_stringIcNS_11char_traitsIcEENS_9allocatorIcEEE5__repES5_EC1B8ne180100INS_16__value_init_tagERKS5_EEOT_OT0_, symObjAddr: 0x5C70, symBinAddr: 0x100006F3C, symSize: 0x3C }
  - { offset: 0x4C003, size: 0x8, addend: 0x0, symName: __ZNSt3__117__compressed_pairINS_12basic_stringIcNS_11char_traitsIcEENS_9allocatorIcEEE5__repES5_EC2B8ne180100INS_16__value_init_tagERKS5_EEOT_OT0_, symObjAddr: 0x5CAC, symBinAddr: 0x100006F78, symSize: 0x40 }
  - { offset: 0x4C05B, size: 0x8, addend: 0x0, symName: __ZNSt3__122__compressed_pair_elemINS_9allocatorIcEELi1ELb1EEC2B8ne180100IRKS2_vEEOT_, symObjAddr: 0x5CEC, symBinAddr: 0x100006FB8, symSize: 0x18 }
  - { offset: 0x4C09D, size: 0x8, addend: 0x0, symName: __ZNSt3__16vectorINS_12basic_stringIcNS_11char_traitsIcEENS_9allocatorIcEEEENS4_IS6_EEE9__end_capB8ne180100Ev, symObjAddr: 0x5D04, symBinAddr: 0x100006FD0, symSize: 0x28 }
  - { offset: 0x4C0C3, size: 0x8, addend: 0x0, symName: __ZNSt3__16vectorINS_12basic_stringIcNS_11char_traitsIcEENS_9allocatorIcEEEENS4_IS6_EEE22__construct_one_at_endB8ne180100IJRKS6_EEEvDpOT_, symObjAddr: 0x5D2C, symBinAddr: 0x100006FF8, symSize: 0x90 }
  - { offset: 0x4C112, size: 0x8, addend: 0x0, symName: __ZNSt3__16vectorINS_12basic_stringIcNS_11char_traitsIcEENS_9allocatorIcEEEENS4_IS6_EEE21__push_back_slow_pathIRKS6_EEPS6_OT_, symObjAddr: 0x5DBC, symBinAddr: 0x100007088, symSize: 0xE8 }
  - { offset: 0x4C170, size: 0x8, addend: 0x0, symName: __ZNSt3__117__compressed_pairIPNS_12basic_stringIcNS_11char_traitsIcEENS_9allocatorIcEEEENS4_IS6_EEE5firstB8ne180100Ev, symObjAddr: 0x5EA4, symBinAddr: 0x100007170, symSize: 0x24 }
  - { offset: 0x4C196, size: 0x8, addend: 0x0, symName: __ZNSt3__122__compressed_pair_elemIPNS_12basic_stringIcNS_11char_traitsIcEENS_9allocatorIcEEEELi0ELb0EE5__getB8ne180100Ev, symObjAddr: 0x5EC8, symBinAddr: 0x100007194, symSize: 0x14 }
  - { offset: 0x4C1D8, size: 0x8, addend: 0x0, symName: __ZNSt3__16vectorINS_12basic_stringIcNS_11char_traitsIcEENS_9allocatorIcEEEENS4_IS6_EEE21_ConstructTransactionC1B8ne180100ERS8_m, symObjAddr: 0x5EDC, symBinAddr: 0x1000071A8, symSize: 0x3C }
  - { offset: 0x4C220, size: 0x8, addend: 0x0, symName: __ZNSt3__116allocator_traitsINS_9allocatorINS_12basic_stringIcNS_11char_traitsIcEENS1_IcEEEEEEE9constructB8ne180100IS6_JRKS6_EvEEvRS7_PT_DpOT0_, symObjAddr: 0x5F18, symBinAddr: 0x1000071E4, symSize: 0x34 }
  - { offset: 0x4C277, size: 0x8, addend: 0x0, symName: __ZNSt3__16vectorINS_12basic_stringIcNS_11char_traitsIcEENS_9allocatorIcEEEENS4_IS6_EEE7__allocB8ne180100Ev, symObjAddr: 0x5F4C, symBinAddr: 0x100007218, symSize: 0x28 }
  - { offset: 0x4C29D, size: 0x8, addend: 0x0, symName: __ZNSt3__16vectorINS_12basic_stringIcNS_11char_traitsIcEENS_9allocatorIcEEEENS4_IS6_EEE21_ConstructTransactionD1B8ne180100Ev, symObjAddr: 0x5F88, symBinAddr: 0x100007254, symSize: 0x2C }
  - { offset: 0x4C2C7, size: 0x8, addend: 0x0, symName: __ZNSt3__16vectorINS_12basic_stringIcNS_11char_traitsIcEENS_9allocatorIcEEEENS4_IS6_EEE21_ConstructTransactionC2B8ne180100ERS8_m, symObjAddr: 0x5FB4, symBinAddr: 0x100007280, symSize: 0x4C }
  - { offset: 0x4C30F, size: 0x8, addend: 0x0, symName: __ZNSt3__19allocatorINS_12basic_stringIcNS_11char_traitsIcEENS0_IcEEEEE9constructB8ne180100IS5_JRKS5_EEEvPT_DpOT0_, symObjAddr: 0x6000, symBinAddr: 0x1000072CC, symSize: 0x30 }
  - { offset: 0x4C365, size: 0x8, addend: 0x0, symName: __ZNSt3__117__compressed_pairIPNS_12basic_stringIcNS_11char_traitsIcEENS_9allocatorIcEEEENS4_IS6_EEE6secondB8ne180100Ev, symObjAddr: 0x6030, symBinAddr: 0x1000072FC, symSize: 0x24 }
  - { offset: 0x4C38B, size: 0x8, addend: 0x0, symName: __ZNSt3__122__compressed_pair_elemINS_9allocatorINS_12basic_stringIcNS_11char_traitsIcEENS1_IcEEEEEELi1ELb1EE5__getB8ne180100Ev, symObjAddr: 0x6054, symBinAddr: 0x100007320, symSize: 0x14 }
  - { offset: 0x4C3B1, size: 0x8, addend: 0x0, symName: __ZNSt3__16vectorINS_12basic_stringIcNS_11char_traitsIcEENS_9allocatorIcEEEENS4_IS6_EEE21_ConstructTransactionD2B8ne180100Ev, symObjAddr: 0x6068, symBinAddr: 0x100007334, symSize: 0x20 }
  - { offset: 0x4C3DB, size: 0x8, addend: 0x0, symName: __ZNKSt3__16vectorINS_12basic_stringIcNS_11char_traitsIcEENS_9allocatorIcEEEENS4_IS6_EEE11__recommendB8ne180100Em, symObjAddr: 0x6088, symBinAddr: 0x100007354, symSize: 0xB4 }
  - { offset: 0x4C430, size: 0x8, addend: 0x0, symName: __ZNKSt3__16vectorINS_12basic_stringIcNS_11char_traitsIcEENS_9allocatorIcEEEENS4_IS6_EEE4sizeB8ne180100Ev, symObjAddr: 0x613C, symBinAddr: 0x100007408, symSize: 0x28 }
  - { offset: 0x4C456, size: 0x8, addend: 0x0, symName: __ZNSt3__114__split_bufferINS_12basic_stringIcNS_11char_traitsIcEENS_9allocatorIcEEEERNS4_IS6_EEEC1EmmS8_, symObjAddr: 0x6164, symBinAddr: 0x100007430, symSize: 0x44 }
  - { offset: 0x4C4AC, size: 0x8, addend: 0x0, symName: __ZNSt3__114__split_bufferINS_12basic_stringIcNS_11char_traitsIcEENS_9allocatorIcEEEERNS4_IS6_EEED1Ev, symObjAddr: 0x62B8, symBinAddr: 0x100007584, symSize: 0x2C }
  - { offset: 0x4C4D8, size: 0x8, addend: 0x0, symName: __ZNKSt3__16vectorINS_12basic_stringIcNS_11char_traitsIcEENS_9allocatorIcEEEENS4_IS6_EEE8max_sizeEv, symObjAddr: 0x62E4, symBinAddr: 0x1000075B0, symSize: 0x60 }
  - { offset: 0x4C500, size: 0x8, addend: 0x0, symName: __ZNKSt3__16vectorINS_12basic_stringIcNS_11char_traitsIcEENS_9allocatorIcEEEENS4_IS6_EEE20__throw_length_errorB8ne180100Ev, symObjAddr: 0x6344, symBinAddr: 0x100007610, symSize: 0x1C }
  - { offset: 0x4C526, size: 0x8, addend: 0x0, symName: __ZNKSt3__16vectorINS_12basic_stringIcNS_11char_traitsIcEENS_9allocatorIcEEEENS4_IS6_EEE8capacityB8ne180100Ev, symObjAddr: 0x6360, symBinAddr: 0x10000762C, symSize: 0x40 }
  - { offset: 0x4C557, size: 0x8, addend: 0x0, symName: __ZNSt3__116allocator_traitsINS_9allocatorINS_12basic_stringIcNS_11char_traitsIcEENS1_IcEEEEEEE8max_sizeB8ne180100IS7_vEEmRKS7_, symObjAddr: 0x63CC, symBinAddr: 0x100007698, symSize: 0x24 }
  - { offset: 0x4C585, size: 0x8, addend: 0x0, symName: __ZNKSt3__16vectorINS_12basic_stringIcNS_11char_traitsIcEENS_9allocatorIcEEEENS4_IS6_EEE7__allocB8ne180100Ev, symObjAddr: 0x63F0, symBinAddr: 0x1000076BC, symSize: 0x28 }
  - { offset: 0x4C5AB, size: 0x8, addend: 0x0, symName: __ZNKSt3__19allocatorINS_12basic_stringIcNS_11char_traitsIcEENS0_IcEEEEE8max_sizeB8ne180100Ev, symObjAddr: 0x6418, symBinAddr: 0x1000076E4, symSize: 0x18 }
  - { offset: 0x4C5D1, size: 0x8, addend: 0x0, symName: __ZNKSt3__117__compressed_pairIPNS_12basic_stringIcNS_11char_traitsIcEENS_9allocatorIcEEEENS4_IS6_EEE6secondB8ne180100Ev, symObjAddr: 0x6430, symBinAddr: 0x1000076FC, symSize: 0x24 }
  - { offset: 0x4C5F7, size: 0x8, addend: 0x0, symName: __ZNKSt3__122__compressed_pair_elemINS_9allocatorINS_12basic_stringIcNS_11char_traitsIcEENS1_IcEEEEEELi1ELb1EE5__getB8ne180100Ev, symObjAddr: 0x6454, symBinAddr: 0x100007720, symSize: 0x14 }
  - { offset: 0x4C61D, size: 0x8, addend: 0x0, symName: __ZNKSt3__16vectorINS_12basic_stringIcNS_11char_traitsIcEENS_9allocatorIcEEEENS4_IS6_EEE9__end_capB8ne180100Ev, symObjAddr: 0x6468, symBinAddr: 0x100007734, symSize: 0x28 }
  - { offset: 0x4C643, size: 0x8, addend: 0x0, symName: __ZNKSt3__117__compressed_pairIPNS_12basic_stringIcNS_11char_traitsIcEENS_9allocatorIcEEEENS4_IS6_EEE5firstB8ne180100Ev, symObjAddr: 0x6490, symBinAddr: 0x10000775C, symSize: 0x24 }
  - { offset: 0x4C669, size: 0x8, addend: 0x0, symName: __ZNKSt3__122__compressed_pair_elemIPNS_12basic_stringIcNS_11char_traitsIcEENS_9allocatorIcEEEELi0ELb0EE5__getB8ne180100Ev, symObjAddr: 0x64B4, symBinAddr: 0x100007780, symSize: 0x14 }
  - { offset: 0x4C68F, size: 0x8, addend: 0x0, symName: __ZNSt3__114__split_bufferINS_12basic_stringIcNS_11char_traitsIcEENS_9allocatorIcEEEERNS4_IS6_EEEC2EmmS8_, symObjAddr: 0x651C, symBinAddr: 0x1000077E8, symSize: 0xE0 }
  - { offset: 0x4C702, size: 0x8, addend: 0x0, symName: __ZNSt3__117__compressed_pairIPNS_12basic_stringIcNS_11char_traitsIcEENS_9allocatorIcEEEERNS4_IS6_EEEC1B8ne180100IDnS9_EEOT_OT0_, symObjAddr: 0x65FC, symBinAddr: 0x1000078C8, symSize: 0x3C }
  - { offset: 0x4C75A, size: 0x8, addend: 0x0, symName: __ZNSt3__114__split_bufferINS_12basic_stringIcNS_11char_traitsIcEENS_9allocatorIcEEEERNS4_IS6_EEE7__allocB8ne180100Ev, symObjAddr: 0x6678, symBinAddr: 0x100007944, symSize: 0x28 }
  - { offset: 0x4C780, size: 0x8, addend: 0x0, symName: __ZNSt3__114__split_bufferINS_12basic_stringIcNS_11char_traitsIcEENS_9allocatorIcEEEERNS4_IS6_EEE9__end_capB8ne180100Ev, symObjAddr: 0x66A0, symBinAddr: 0x10000796C, symSize: 0x28 }
  - { offset: 0x4C7A6, size: 0x8, addend: 0x0, symName: __ZNSt3__117__compressed_pairIPNS_12basic_stringIcNS_11char_traitsIcEENS_9allocatorIcEEEERNS4_IS6_EEEC2B8ne180100IDnS9_EEOT_OT0_, symObjAddr: 0x66C8, symBinAddr: 0x100007994, symSize: 0x48 }
  - { offset: 0x4C7FE, size: 0x8, addend: 0x0, symName: __ZNSt3__122__compressed_pair_elemIRNS_9allocatorINS_12basic_stringIcNS_11char_traitsIcEENS1_IcEEEEEELi1ELb0EEC2B8ne180100IS8_vEEOT_, symObjAddr: 0x6710, symBinAddr: 0x1000079DC, symSize: 0x20 }
  - { offset: 0x4C840, size: 0x8, addend: 0x0, symName: __ZNSt3__19allocatorINS_12basic_stringIcNS_11char_traitsIcEENS0_IcEEEEE8allocateB8ne180100Em, symObjAddr: 0x6730, symBinAddr: 0x1000079FC, symSize: 0x5C }
  - { offset: 0x4C874, size: 0x8, addend: 0x0, symName: __ZNSt3__117__compressed_pairIPNS_12basic_stringIcNS_11char_traitsIcEENS_9allocatorIcEEEERNS4_IS6_EEE6secondB8ne180100Ev, symObjAddr: 0x678C, symBinAddr: 0x100007A58, symSize: 0x28 }
  - { offset: 0x4C89A, size: 0x8, addend: 0x0, symName: __ZNSt3__122__compressed_pair_elemIRNS_9allocatorINS_12basic_stringIcNS_11char_traitsIcEENS1_IcEEEEEELi1ELb0EE5__getB8ne180100Ev, symObjAddr: 0x67B4, symBinAddr: 0x100007A80, symSize: 0x18 }
  - { offset: 0x4C8C0, size: 0x8, addend: 0x0, symName: __ZNSt3__117__compressed_pairIPNS_12basic_stringIcNS_11char_traitsIcEENS_9allocatorIcEEEERNS4_IS6_EEE5firstB8ne180100Ev, symObjAddr: 0x67CC, symBinAddr: 0x100007A98, symSize: 0x24 }
  - { offset: 0x4C8E6, size: 0x8, addend: 0x0, symName: __ZNKSt3__16vectorINS_12basic_stringIcNS_11char_traitsIcEENS_9allocatorIcEEEENS4_IS6_EEE17__annotate_deleteB8ne180100Ev, symObjAddr: 0x67F0, symBinAddr: 0x100007ABC, symSize: 0x10 }
  - { offset: 0x4C90C, size: 0x8, addend: 0x0, symName: __ZNSt3__116reverse_iteratorIPNS_12basic_stringIcNS_11char_traitsIcEENS_9allocatorIcEEEEEC1B8ne180100ES7_, symObjAddr: 0x692C, symBinAddr: 0x100007BF8, symSize: 0x34 }
  - { offset: 0x4C944, size: 0x8, addend: 0x0, symName: __ZNKSt3__116reverse_iteratorIPNS_12basic_stringIcNS_11char_traitsIcEENS_9allocatorIcEEEEE4baseB8ne180100Ev, symObjAddr: 0x6960, symBinAddr: 0x100007C2C, symSize: 0x18 }
  - { offset: 0x4C96A, size: 0x8, addend: 0x0, symName: __ZNKSt3__16vectorINS_12basic_stringIcNS_11char_traitsIcEENS_9allocatorIcEEEENS4_IS6_EEE14__annotate_newB8ne180100Em, symObjAddr: 0x69B4, symBinAddr: 0x100007C80, symSize: 0x14 }
  - { offset: 0x4C99F, size: 0x8, addend: 0x0, symName: __ZNSt3__129_AllocatorDestroyRangeReverseINS_9allocatorINS_12basic_stringIcNS_11char_traitsIcEENS1_IcEEEEEENS_16reverse_iteratorIPS6_EEEC1B8ne180100ERS7_RSA_SD_, symObjAddr: 0x6A14, symBinAddr: 0x100007CE0, symSize: 0x44 }
  - { offset: 0x4C9FC, size: 0x8, addend: 0x0, symName: __ZNSt3__116allocator_traitsINS_9allocatorINS_12basic_stringIcNS_11char_traitsIcEENS1_IcEEEEEEE9constructB8ne180100IS6_JS6_EvEEvRS7_PT_DpOT0_, symObjAddr: 0x6AA0, symBinAddr: 0x100007D6C, symSize: 0x34 }
  - { offset: 0x4CA53, size: 0x8, addend: 0x0, symName: __ZNKSt3__116reverse_iteratorIPNS_12basic_stringIcNS_11char_traitsIcEENS_9allocatorIcEEEEEdeB8ne180100Ev, symObjAddr: 0x6AF8, symBinAddr: 0x100007DC4, symSize: 0x28 }
  - { offset: 0x4CA87, size: 0x8, addend: 0x0, symName: __ZNSt3__116reverse_iteratorIPNS_12basic_stringIcNS_11char_traitsIcEENS_9allocatorIcEEEEEppB8ne180100Ev, symObjAddr: 0x6B20, symBinAddr: 0x100007DEC, symSize: 0x20 }
  - { offset: 0x4CAAD, size: 0x8, addend: 0x0, symName: __ZNSt3__128__exception_guard_exceptionsINS_29_AllocatorDestroyRangeReverseINS_9allocatorINS_12basic_stringIcNS_11char_traitsIcEENS2_IcEEEEEENS_16reverse_iteratorIPS7_EEEEE10__completeB8ne180100Ev, symObjAddr: 0x6B40, symBinAddr: 0x100007E0C, symSize: 0x1C }
  - { offset: 0x4CAD3, size: 0x8, addend: 0x0, symName: __ZNSt3__128__exception_guard_exceptionsINS_29_AllocatorDestroyRangeReverseINS_9allocatorINS_12basic_stringIcNS_11char_traitsIcEENS2_IcEEEEEENS_16reverse_iteratorIPS7_EEEEED1B8ne180100Ev, symObjAddr: 0x6B5C, symBinAddr: 0x100007E28, symSize: 0x2C }
  - { offset: 0x4CAFD, size: 0x8, addend: 0x0, symName: __ZNSt3__128__exception_guard_exceptionsINS_29_AllocatorDestroyRangeReverseINS_9allocatorINS_12basic_stringIcNS_11char_traitsIcEENS2_IcEEEEEENS_16reverse_iteratorIPS7_EEEEEC1B8ne180100ESC_, symObjAddr: 0x6B88, symBinAddr: 0x100007E54, symSize: 0x34 }
  - { offset: 0x4CB36, size: 0x8, addend: 0x0, symName: __ZNSt3__128__exception_guard_exceptionsINS_29_AllocatorDestroyRangeReverseINS_9allocatorINS_12basic_stringIcNS_11char_traitsIcEENS2_IcEEEEEENS_16reverse_iteratorIPS7_EEEEEC2B8ne180100ESC_, symObjAddr: 0x6BBC, symBinAddr: 0x100007E88, symSize: 0x30 }
  - { offset: 0x4CB6F, size: 0x8, addend: 0x0, symName: __ZNSt3__129_AllocatorDestroyRangeReverseINS_9allocatorINS_12basic_stringIcNS_11char_traitsIcEENS1_IcEEEEEENS_16reverse_iteratorIPS6_EEEC2B8ne180100ERS7_RSA_SD_, symObjAddr: 0x6BEC, symBinAddr: 0x100007EB8, symSize: 0x38 }
  - { offset: 0x4CBC6, size: 0x8, addend: 0x0, symName: __ZNSt3__19allocatorINS_12basic_stringIcNS_11char_traitsIcEENS0_IcEEEEE9constructB8ne180100IS5_JS5_EEEvPT_DpOT0_, symObjAddr: 0x6C24, symBinAddr: 0x100007EF0, symSize: 0x30 }
  - { offset: 0x4CC1C, size: 0x8, addend: 0x0, symName: __ZNSt3__112basic_stringIcNS_11char_traitsIcEENS_9allocatorIcEEEC1B8ne180100EOS5_, symObjAddr: 0x6C54, symBinAddr: 0x100007F20, symSize: 0x34 }
  - { offset: 0x4CC55, size: 0x8, addend: 0x0, symName: __ZNSt3__112basic_stringIcNS_11char_traitsIcEENS_9allocatorIcEEEC2B8ne180100EOS5_, symObjAddr: 0x6C88, symBinAddr: 0x100007F54, symSize: 0xB8 }
  - { offset: 0x4CCC0, size: 0x8, addend: 0x0, symName: __ZZNSt3__112basic_stringIcNS_11char_traitsIcEENS_9allocatorIcEEEC1B8ne180100EOS5_ENKUlRS5_E_clES7_, symObjAddr: 0x6D40, symBinAddr: 0x10000800C, symSize: 0x40 }
  - { offset: 0x4CCF9, size: 0x8, addend: 0x0, symName: __ZNKSt3__112basic_stringIcNS_11char_traitsIcEENS_9allocatorIcEEE17__annotate_deleteB8ne180100Ev, symObjAddr: 0x6D80, symBinAddr: 0x10000804C, symSize: 0x10 }
  - { offset: 0x4CD25, size: 0x8, addend: 0x0, symName: __ZNSt3__119__to_address_helperINS_16reverse_iteratorIPNS_12basic_stringIcNS_11char_traitsIcEENS_9allocatorIcEEEEEEvE6__callB8ne180100ERKS9_, symObjAddr: 0x6D90, symBinAddr: 0x10000805C, symSize: 0x38 }
  - { offset: 0x4CD48, size: 0x8, addend: 0x0, symName: __ZNKSt3__116reverse_iteratorIPNS_12basic_stringIcNS_11char_traitsIcEENS_9allocatorIcEEEEEptB8ne180100Ev, symObjAddr: 0x6DC8, symBinAddr: 0x100008094, symSize: 0x24 }
  - { offset: 0x4CD6E, size: 0x8, addend: 0x0, symName: __ZNSt3__128__exception_guard_exceptionsINS_29_AllocatorDestroyRangeReverseINS_9allocatorINS_12basic_stringIcNS_11char_traitsIcEENS2_IcEEEEEENS_16reverse_iteratorIPS7_EEEEED2B8ne180100Ev, symObjAddr: 0x6DEC, symBinAddr: 0x1000080B8, symSize: 0x50 }
  - { offset: 0x4CD98, size: 0x8, addend: 0x0, symName: __ZNKSt3__129_AllocatorDestroyRangeReverseINS_9allocatorINS_12basic_stringIcNS_11char_traitsIcEENS1_IcEEEEEENS_16reverse_iteratorIPS6_EEEclB8ne180100Ev, symObjAddr: 0x6E3C, symBinAddr: 0x100008108, symSize: 0xB4 }
  - { offset: 0x4CDBF, size: 0x8, addend: 0x0, symName: __ZNSt3__116reverse_iteratorINS0_IPNS_12basic_stringIcNS_11char_traitsIcEENS_9allocatorIcEEEEEEEC1B8ne180100ES8_, symObjAddr: 0x6F60, symBinAddr: 0x10000822C, symSize: 0x3C }
  - { offset: 0x4CDF7, size: 0x8, addend: 0x0, symName: __ZNSt3__116allocator_traitsINS_9allocatorINS_12basic_stringIcNS_11char_traitsIcEENS1_IcEEEEEEE7destroyB8ne180100IS6_vEEvRS7_PT_, symObjAddr: 0x6FFC, symBinAddr: 0x1000082C8, symSize: 0x2C }
  - { offset: 0x4CE34, size: 0x8, addend: 0x0, symName: __ZNSt3__116reverse_iteratorINS0_IPNS_12basic_stringIcNS_11char_traitsIcEENS_9allocatorIcEEEEEEEppB8ne180100Ev, symObjAddr: 0x704C, symBinAddr: 0x100008318, symSize: 0x30 }
  - { offset: 0x4CE5A, size: 0x8, addend: 0x0, symName: __ZNKSt3__116reverse_iteratorINS0_IPNS_12basic_stringIcNS_11char_traitsIcEENS_9allocatorIcEEEEEEE4baseB8ne180100Ev, symObjAddr: 0x707C, symBinAddr: 0x100008348, symSize: 0x24 }
  - { offset: 0x4CE80, size: 0x8, addend: 0x0, symName: __ZNSt3__19allocatorINS_12basic_stringIcNS_11char_traitsIcEENS0_IcEEEEE7destroyB8ne180100EPS5_, symObjAddr: 0x70A0, symBinAddr: 0x10000836C, symSize: 0x28 }
  - { offset: 0x4CEBA, size: 0x8, addend: 0x0, symName: __ZNSt3__119__to_address_helperINS_16reverse_iteratorINS1_IPNS_12basic_stringIcNS_11char_traitsIcEENS_9allocatorIcEEEEEEEEvE6__callB8ne180100ERKSA_, symObjAddr: 0x70C8, symBinAddr: 0x100008394, symSize: 0x38 }
  - { offset: 0x4CEDD, size: 0x8, addend: 0x0, symName: __ZNKSt3__116reverse_iteratorINS0_IPNS_12basic_stringIcNS_11char_traitsIcEENS_9allocatorIcEEEEEEEptB8ne180100Ev, symObjAddr: 0x7100, symBinAddr: 0x1000083CC, symSize: 0x24 }
  - { offset: 0x4CF03, size: 0x8, addend: 0x0, symName: __ZNKSt3__116reverse_iteratorINS0_IPNS_12basic_stringIcNS_11char_traitsIcEENS_9allocatorIcEEEEEEEdeB8ne180100Ev, symObjAddr: 0x7124, symBinAddr: 0x1000083F0, symSize: 0x34 }
  - { offset: 0x4CF37, size: 0x8, addend: 0x0, symName: __ZNSt3__116reverse_iteratorIPNS_12basic_stringIcNS_11char_traitsIcEENS_9allocatorIcEEEEEmmB8ne180100Ev, symObjAddr: 0x7158, symBinAddr: 0x100008424, symSize: 0x20 }
  - { offset: 0x4CF5D, size: 0x8, addend: 0x0, symName: __ZNSt3__116reverse_iteratorINS0_IPNS_12basic_stringIcNS_11char_traitsIcEENS_9allocatorIcEEEEEEEC2B8ne180100ES8_, symObjAddr: 0x7178, symBinAddr: 0x100008444, symSize: 0x2C }
  - { offset: 0x4CF95, size: 0x8, addend: 0x0, symName: __ZNSt3__116reverse_iteratorIPNS_12basic_stringIcNS_11char_traitsIcEENS_9allocatorIcEEEEEC2B8ne180100ES7_, symObjAddr: 0x71A4, symBinAddr: 0x100008470, symSize: 0x28 }
  - { offset: 0x4CFCD, size: 0x8, addend: 0x0, symName: __ZNSt3__114__split_bufferINS_12basic_stringIcNS_11char_traitsIcEENS_9allocatorIcEEEERNS4_IS6_EEED2Ev, symObjAddr: 0x71CC, symBinAddr: 0x100008498, symSize: 0x8C }
  - { offset: 0x4CFF9, size: 0x8, addend: 0x0, symName: __ZNSt3__114__split_bufferINS_12basic_stringIcNS_11char_traitsIcEENS_9allocatorIcEEEERNS4_IS6_EEE5clearB8ne180100Ev, symObjAddr: 0x7258, symBinAddr: 0x100008524, symSize: 0x28 }
  - { offset: 0x4D01F, size: 0x8, addend: 0x0, symName: __ZNSt3__116allocator_traitsINS_9allocatorINS_12basic_stringIcNS_11char_traitsIcEENS1_IcEEEEEEE10deallocateB8ne180100ERS7_PS6_m, symObjAddr: 0x7280, symBinAddr: 0x10000854C, symSize: 0x34 }
  - { offset: 0x4D061, size: 0x8, addend: 0x0, symName: __ZNKSt3__114__split_bufferINS_12basic_stringIcNS_11char_traitsIcEENS_9allocatorIcEEEERNS4_IS6_EEE8capacityB8ne180100Ev, symObjAddr: 0x72B4, symBinAddr: 0x100008580, symSize: 0x40 }
  - { offset: 0x4D087, size: 0x8, addend: 0x0, symName: __ZNSt3__114__split_bufferINS_12basic_stringIcNS_11char_traitsIcEENS_9allocatorIcEEEERNS4_IS6_EEE17__destruct_at_endB8ne180100EPS6_, symObjAddr: 0x72F4, symBinAddr: 0x1000085C0, symSize: 0x2C }
  - { offset: 0x4D0BB, size: 0x8, addend: 0x0, symName: __ZNSt3__114__split_bufferINS_12basic_stringIcNS_11char_traitsIcEENS_9allocatorIcEEEERNS4_IS6_EEE17__destruct_at_endB8ne180100EPS6_NS_17integral_constantIbLb0EEE, symObjAddr: 0x7320, symBinAddr: 0x1000085EC, symSize: 0x80 }
  - { offset: 0x4D0FB, size: 0x8, addend: 0x0, symName: __ZNSt3__19allocatorINS_12basic_stringIcNS_11char_traitsIcEENS0_IcEEEEE10deallocateB8ne180100EPS5_m, symObjAddr: 0x73A0, symBinAddr: 0x10000866C, symSize: 0x44 }
  - { offset: 0x4D13D, size: 0x8, addend: 0x0, symName: __ZNKSt3__114__split_bufferINS_12basic_stringIcNS_11char_traitsIcEENS_9allocatorIcEEEERNS4_IS6_EEE9__end_capB8ne180100Ev, symObjAddr: 0x73E4, symBinAddr: 0x1000086B0, symSize: 0x28 }
  - { offset: 0x4D163, size: 0x8, addend: 0x0, symName: __ZNKSt3__117__compressed_pairIPNS_12basic_stringIcNS_11char_traitsIcEENS_9allocatorIcEEEERNS4_IS6_EEE5firstB8ne180100Ev, symObjAddr: 0x740C, symBinAddr: 0x1000086D8, symSize: 0x24 }
  - { offset: 0x4D189, size: 0x8, addend: 0x0, symName: __ZNSt3__118basic_stringstreamIcNS_11char_traitsIcEENS_9allocatorIcEEED2Ev, symObjAddr: 0x7430, symBinAddr: 0x1000086FC, symSize: 0x6C }
  - { offset: 0x4D1C3, size: 0x8, addend: 0x0, symName: __ZThn16_NSt3__118basic_stringstreamIcNS_11char_traitsIcEENS_9allocatorIcEEED1Ev, symObjAddr: 0x749C, symBinAddr: 0x100008768, symSize: 0x1C }
  - { offset: 0x4D1DA, size: 0x8, addend: 0x0, symName: __ZTv0_n24_NSt3__118basic_stringstreamIcNS_11char_traitsIcEENS_9allocatorIcEEED1Ev, symObjAddr: 0x74B8, symBinAddr: 0x100008784, symSize: 0x28 }
  - { offset: 0x4D1F1, size: 0x8, addend: 0x0, symName: __ZNSt3__16vectorINS0_INS_12basic_stringIcNS_11char_traitsIcEENS_9allocatorIcEEEENS4_IS6_EEEENS4_IS8_EEE9__end_capB8ne180100Ev, symObjAddr: 0x74E0, symBinAddr: 0x1000087AC, symSize: 0x28 }
  - { offset: 0x4D217, size: 0x8, addend: 0x0, symName: __ZNSt3__16vectorINS0_INS_12basic_stringIcNS_11char_traitsIcEENS_9allocatorIcEEEENS4_IS6_EEEENS4_IS8_EEE22__construct_one_at_endB8ne180100IJS8_EEEvDpOT_, symObjAddr: 0x7508, symBinAddr: 0x1000087D4, symSize: 0x90 }
  - { offset: 0x4D266, size: 0x8, addend: 0x0, symName: __ZNSt3__16vectorINS0_INS_12basic_stringIcNS_11char_traitsIcEENS_9allocatorIcEEEENS4_IS6_EEEENS4_IS8_EEE21__push_back_slow_pathIS8_EEPS8_OT_, symObjAddr: 0x7598, symBinAddr: 0x100008864, symSize: 0xE8 }
  - { offset: 0x4D2C4, size: 0x8, addend: 0x0, symName: __ZNSt3__117__compressed_pairIPNS_6vectorINS_12basic_stringIcNS_11char_traitsIcEENS_9allocatorIcEEEENS5_IS7_EEEENS5_IS9_EEE5firstB8ne180100Ev, symObjAddr: 0x7680, symBinAddr: 0x10000894C, symSize: 0x24 }
  - { offset: 0x4D2EA, size: 0x8, addend: 0x0, symName: __ZNSt3__122__compressed_pair_elemIPNS_6vectorINS_12basic_stringIcNS_11char_traitsIcEENS_9allocatorIcEEEENS5_IS7_EEEELi0ELb0EE5__getB8ne180100Ev, symObjAddr: 0x76A4, symBinAddr: 0x100008970, symSize: 0x14 }
  - { offset: 0x4D32C, size: 0x8, addend: 0x0, symName: __ZNSt3__16vectorINS0_INS_12basic_stringIcNS_11char_traitsIcEENS_9allocatorIcEEEENS4_IS6_EEEENS4_IS8_EEE21_ConstructTransactionC1B8ne180100ERSA_m, symObjAddr: 0x76B8, symBinAddr: 0x100008984, symSize: 0x3C }
  - { offset: 0x4D374, size: 0x8, addend: 0x0, symName: __ZNSt3__116allocator_traitsINS_9allocatorINS_6vectorINS_12basic_stringIcNS_11char_traitsIcEENS1_IcEEEENS1_IS7_EEEEEEE9constructB8ne180100IS9_JS9_EvEEvRSA_PT_DpOT0_, symObjAddr: 0x76F4, symBinAddr: 0x1000089C0, symSize: 0x34 }
  - { offset: 0x4D3CB, size: 0x8, addend: 0x0, symName: __ZNSt3__16vectorINS0_INS_12basic_stringIcNS_11char_traitsIcEENS_9allocatorIcEEEENS4_IS6_EEEENS4_IS8_EEE7__allocB8ne180100Ev, symObjAddr: 0x7728, symBinAddr: 0x1000089F4, symSize: 0x28 }
  - { offset: 0x4D3F1, size: 0x8, addend: 0x0, symName: __ZNSt3__16vectorINS0_INS_12basic_stringIcNS_11char_traitsIcEENS_9allocatorIcEEEENS4_IS6_EEEENS4_IS8_EEE21_ConstructTransactionD1B8ne180100Ev, symObjAddr: 0x7764, symBinAddr: 0x100008A30, symSize: 0x2C }
  - { offset: 0x4D41B, size: 0x8, addend: 0x0, symName: __ZNSt3__16vectorINS0_INS_12basic_stringIcNS_11char_traitsIcEENS_9allocatorIcEEEENS4_IS6_EEEENS4_IS8_EEE21_ConstructTransactionC2B8ne180100ERSA_m, symObjAddr: 0x7790, symBinAddr: 0x100008A5C, symSize: 0x4C }
  - { offset: 0x4D463, size: 0x8, addend: 0x0, symName: __ZNSt3__19allocatorINS_6vectorINS_12basic_stringIcNS_11char_traitsIcEENS0_IcEEEENS0_IS6_EEEEE9constructB8ne180100IS8_JS8_EEEvPT_DpOT0_, symObjAddr: 0x77DC, symBinAddr: 0x100008AA8, symSize: 0x30 }
  - { offset: 0x4D4B9, size: 0x8, addend: 0x0, symName: __ZNSt3__16vectorINS_12basic_stringIcNS_11char_traitsIcEENS_9allocatorIcEEEENS4_IS6_EEEC1B8ne180100EOS8_, symObjAddr: 0x780C, symBinAddr: 0x100008AD8, symSize: 0x34 }
  - { offset: 0x4D4F4, size: 0x8, addend: 0x0, symName: __ZNSt3__16vectorINS_12basic_stringIcNS_11char_traitsIcEENS_9allocatorIcEEEENS4_IS6_EEEC2B8ne180100EOS8_, symObjAddr: 0x7840, symBinAddr: 0x100008B0C, symSize: 0xC4 }
  - { offset: 0x4D535, size: 0x8, addend: 0x0, symName: __ZNSt3__117__compressed_pairIPNS_12basic_stringIcNS_11char_traitsIcEENS_9allocatorIcEEEENS4_IS6_EEEC1B8ne180100IDnS8_EEOT_OT0_, symObjAddr: 0x7904, symBinAddr: 0x100008BD0, symSize: 0x3C }
  - { offset: 0x4D58D, size: 0x8, addend: 0x0, symName: __ZNSt3__117__compressed_pairIPNS_12basic_stringIcNS_11char_traitsIcEENS_9allocatorIcEEEENS4_IS6_EEEC2B8ne180100IDnS8_EEOT_OT0_, symObjAddr: 0x7940, symBinAddr: 0x100008C0C, symSize: 0x44 }
  - { offset: 0x4D5E5, size: 0x8, addend: 0x0, symName: __ZNSt3__122__compressed_pair_elemINS_9allocatorINS_12basic_stringIcNS_11char_traitsIcEENS1_IcEEEEEELi1ELb1EEC2B8ne180100IS7_vEEOT_, symObjAddr: 0x7984, symBinAddr: 0x100008C50, symSize: 0x18 }
  - { offset: 0x4D627, size: 0x8, addend: 0x0, symName: __ZNSt3__117__compressed_pairIPNS_6vectorINS_12basic_stringIcNS_11char_traitsIcEENS_9allocatorIcEEEENS5_IS7_EEEENS5_IS9_EEE6secondB8ne180100Ev, symObjAddr: 0x799C, symBinAddr: 0x100008C68, symSize: 0x24 }
  - { offset: 0x4D64D, size: 0x8, addend: 0x0, symName: __ZNSt3__122__compressed_pair_elemINS_9allocatorINS_6vectorINS_12basic_stringIcNS_11char_traitsIcEENS1_IcEEEENS1_IS7_EEEEEELi1ELb1EE5__getB8ne180100Ev, symObjAddr: 0x79C0, symBinAddr: 0x100008C8C, symSize: 0x14 }
  - { offset: 0x4D673, size: 0x8, addend: 0x0, symName: __ZNSt3__16vectorINS0_INS_12basic_stringIcNS_11char_traitsIcEENS_9allocatorIcEEEENS4_IS6_EEEENS4_IS8_EEE21_ConstructTransactionD2B8ne180100Ev, symObjAddr: 0x79D4, symBinAddr: 0x100008CA0, symSize: 0x20 }
  - { offset: 0x4D69D, size: 0x8, addend: 0x0, symName: __ZNKSt3__16vectorINS0_INS_12basic_stringIcNS_11char_traitsIcEENS_9allocatorIcEEEENS4_IS6_EEEENS4_IS8_EEE11__recommendB8ne180100Em, symObjAddr: 0x79F4, symBinAddr: 0x100008CC0, symSize: 0xB4 }
  - { offset: 0x4D6F2, size: 0x8, addend: 0x0, symName: __ZNKSt3__16vectorINS0_INS_12basic_stringIcNS_11char_traitsIcEENS_9allocatorIcEEEENS4_IS6_EEEENS4_IS8_EEE4sizeB8ne180100Ev, symObjAddr: 0x7AA8, symBinAddr: 0x100008D74, symSize: 0x28 }
  - { offset: 0x4D718, size: 0x8, addend: 0x0, symName: __ZNSt3__114__split_bufferINS_6vectorINS_12basic_stringIcNS_11char_traitsIcEENS_9allocatorIcEEEENS5_IS7_EEEERNS5_IS9_EEEC1EmmSB_, symObjAddr: 0x7AD0, symBinAddr: 0x100008D9C, symSize: 0x44 }
  - { offset: 0x4D76E, size: 0x8, addend: 0x0, symName: __ZNSt3__114__split_bufferINS_6vectorINS_12basic_stringIcNS_11char_traitsIcEENS_9allocatorIcEEEENS5_IS7_EEEERNS5_IS9_EEED1Ev, symObjAddr: 0x7C24, symBinAddr: 0x100008EF0, symSize: 0x2C }
  - { offset: 0x4D79A, size: 0x8, addend: 0x0, symName: __ZNKSt3__16vectorINS0_INS_12basic_stringIcNS_11char_traitsIcEENS_9allocatorIcEEEENS4_IS6_EEEENS4_IS8_EEE8max_sizeEv, symObjAddr: 0x7C50, symBinAddr: 0x100008F1C, symSize: 0x60 }
  - { offset: 0x4D7C2, size: 0x8, addend: 0x0, symName: __ZNKSt3__16vectorINS0_INS_12basic_stringIcNS_11char_traitsIcEENS_9allocatorIcEEEENS4_IS6_EEEENS4_IS8_EEE20__throw_length_errorB8ne180100Ev, symObjAddr: 0x7CB0, symBinAddr: 0x100008F7C, symSize: 0x1C }
  - { offset: 0x4D7E8, size: 0x8, addend: 0x0, symName: __ZNKSt3__16vectorINS0_INS_12basic_stringIcNS_11char_traitsIcEENS_9allocatorIcEEEENS4_IS6_EEEENS4_IS8_EEE8capacityB8ne180100Ev, symObjAddr: 0x7CCC, symBinAddr: 0x100008F98, symSize: 0x40 }
  - { offset: 0x4D819, size: 0x8, addend: 0x0, symName: __ZNSt3__116allocator_traitsINS_9allocatorINS_6vectorINS_12basic_stringIcNS_11char_traitsIcEENS1_IcEEEENS1_IS7_EEEEEEE8max_sizeB8ne180100ISA_vEEmRKSA_, symObjAddr: 0x7D0C, symBinAddr: 0x100008FD8, symSize: 0x24 }
  - { offset: 0x4D847, size: 0x8, addend: 0x0, symName: __ZNKSt3__16vectorINS0_INS_12basic_stringIcNS_11char_traitsIcEENS_9allocatorIcEEEENS4_IS6_EEEENS4_IS8_EEE7__allocB8ne180100Ev, symObjAddr: 0x7D30, symBinAddr: 0x100008FFC, symSize: 0x28 }
  - { offset: 0x4D86D, size: 0x8, addend: 0x0, symName: __ZNKSt3__19allocatorINS_6vectorINS_12basic_stringIcNS_11char_traitsIcEENS0_IcEEEENS0_IS6_EEEEE8max_sizeB8ne180100Ev, symObjAddr: 0x7D58, symBinAddr: 0x100009024, symSize: 0x18 }
  - { offset: 0x4D893, size: 0x8, addend: 0x0, symName: __ZNKSt3__117__compressed_pairIPNS_6vectorINS_12basic_stringIcNS_11char_traitsIcEENS_9allocatorIcEEEENS5_IS7_EEEENS5_IS9_EEE6secondB8ne180100Ev, symObjAddr: 0x7D70, symBinAddr: 0x10000903C, symSize: 0x24 }
  - { offset: 0x4D8B9, size: 0x8, addend: 0x0, symName: __ZNKSt3__122__compressed_pair_elemINS_9allocatorINS_6vectorINS_12basic_stringIcNS_11char_traitsIcEENS1_IcEEEENS1_IS7_EEEEEELi1ELb1EE5__getB8ne180100Ev, symObjAddr: 0x7D94, symBinAddr: 0x100009060, symSize: 0x14 }
  - { offset: 0x4D8DF, size: 0x8, addend: 0x0, symName: __ZNKSt3__16vectorINS0_INS_12basic_stringIcNS_11char_traitsIcEENS_9allocatorIcEEEENS4_IS6_EEEENS4_IS8_EEE9__end_capB8ne180100Ev, symObjAddr: 0x7DA8, symBinAddr: 0x100009074, symSize: 0x28 }
  - { offset: 0x4D905, size: 0x8, addend: 0x0, symName: __ZNKSt3__117__compressed_pairIPNS_6vectorINS_12basic_stringIcNS_11char_traitsIcEENS_9allocatorIcEEEENS5_IS7_EEEENS5_IS9_EEE5firstB8ne180100Ev, symObjAddr: 0x7DD0, symBinAddr: 0x10000909C, symSize: 0x24 }
  - { offset: 0x4D92B, size: 0x8, addend: 0x0, symName: __ZNKSt3__122__compressed_pair_elemIPNS_6vectorINS_12basic_stringIcNS_11char_traitsIcEENS_9allocatorIcEEEENS5_IS7_EEEELi0ELb0EE5__getB8ne180100Ev, symObjAddr: 0x7DF4, symBinAddr: 0x1000090C0, symSize: 0x14 }
  - { offset: 0x4D951, size: 0x8, addend: 0x0, symName: __ZNSt3__114__split_bufferINS_6vectorINS_12basic_stringIcNS_11char_traitsIcEENS_9allocatorIcEEEENS5_IS7_EEEERNS5_IS9_EEEC2EmmSB_, symObjAddr: 0x7E08, symBinAddr: 0x1000090D4, symSize: 0xE0 }
  - { offset: 0x4D9C4, size: 0x8, addend: 0x0, symName: __ZNSt3__117__compressed_pairIPNS_6vectorINS_12basic_stringIcNS_11char_traitsIcEENS_9allocatorIcEEEENS5_IS7_EEEERNS5_IS9_EEEC1B8ne180100IDnSC_EEOT_OT0_, symObjAddr: 0x7EE8, symBinAddr: 0x1000091B4, symSize: 0x3C }
  - { offset: 0x4DA1C, size: 0x8, addend: 0x0, symName: __ZNSt3__114__split_bufferINS_6vectorINS_12basic_stringIcNS_11char_traitsIcEENS_9allocatorIcEEEENS5_IS7_EEEERNS5_IS9_EEE7__allocB8ne180100Ev, symObjAddr: 0x7F64, symBinAddr: 0x100009230, symSize: 0x28 }
  - { offset: 0x4DA42, size: 0x8, addend: 0x0, symName: __ZNSt3__114__split_bufferINS_6vectorINS_12basic_stringIcNS_11char_traitsIcEENS_9allocatorIcEEEENS5_IS7_EEEERNS5_IS9_EEE9__end_capB8ne180100Ev, symObjAddr: 0x7F8C, symBinAddr: 0x100009258, symSize: 0x28 }
  - { offset: 0x4DA68, size: 0x8, addend: 0x0, symName: __ZNSt3__117__compressed_pairIPNS_6vectorINS_12basic_stringIcNS_11char_traitsIcEENS_9allocatorIcEEEENS5_IS7_EEEERNS5_IS9_EEEC2B8ne180100IDnSC_EEOT_OT0_, symObjAddr: 0x7FB4, symBinAddr: 0x100009280, symSize: 0x48 }
  - { offset: 0x4DAC0, size: 0x8, addend: 0x0, symName: __ZNSt3__122__compressed_pair_elemIRNS_9allocatorINS_6vectorINS_12basic_stringIcNS_11char_traitsIcEENS1_IcEEEENS1_IS7_EEEEEELi1ELb0EEC2B8ne180100ISB_vEEOT_, symObjAddr: 0x7FFC, symBinAddr: 0x1000092C8, symSize: 0x20 }
  - { offset: 0x4DB02, size: 0x8, addend: 0x0, symName: __ZNSt3__19allocatorINS_6vectorINS_12basic_stringIcNS_11char_traitsIcEENS0_IcEEEENS0_IS6_EEEEE8allocateB8ne180100Em, symObjAddr: 0x801C, symBinAddr: 0x1000092E8, symSize: 0x5C }
  - { offset: 0x4DB36, size: 0x8, addend: 0x0, symName: __ZNSt3__117__compressed_pairIPNS_6vectorINS_12basic_stringIcNS_11char_traitsIcEENS_9allocatorIcEEEENS5_IS7_EEEERNS5_IS9_EEE6secondB8ne180100Ev, symObjAddr: 0x8078, symBinAddr: 0x100009344, symSize: 0x28 }
  - { offset: 0x4DB5C, size: 0x8, addend: 0x0, symName: __ZNSt3__122__compressed_pair_elemIRNS_9allocatorINS_6vectorINS_12basic_stringIcNS_11char_traitsIcEENS1_IcEEEENS1_IS7_EEEEEELi1ELb0EE5__getB8ne180100Ev, symObjAddr: 0x80A0, symBinAddr: 0x10000936C, symSize: 0x18 }
  - { offset: 0x4DB82, size: 0x8, addend: 0x0, symName: __ZNSt3__117__compressed_pairIPNS_6vectorINS_12basic_stringIcNS_11char_traitsIcEENS_9allocatorIcEEEENS5_IS7_EEEERNS5_IS9_EEE5firstB8ne180100Ev, symObjAddr: 0x80B8, symBinAddr: 0x100009384, symSize: 0x24 }
  - { offset: 0x4DBA8, size: 0x8, addend: 0x0, symName: __ZNKSt3__16vectorINS0_INS_12basic_stringIcNS_11char_traitsIcEENS_9allocatorIcEEEENS4_IS6_EEEENS4_IS8_EEE17__annotate_deleteB8ne180100Ev, symObjAddr: 0x80DC, symBinAddr: 0x1000093A8, symSize: 0x10 }
  - { offset: 0x4DBCE, size: 0x8, addend: 0x0, symName: __ZNSt3__116reverse_iteratorIPNS_6vectorINS_12basic_stringIcNS_11char_traitsIcEENS_9allocatorIcEEEENS5_IS7_EEEEEC1B8ne180100ESA_, symObjAddr: 0x8218, symBinAddr: 0x1000094E4, symSize: 0x34 }
  - { offset: 0x4DC06, size: 0x8, addend: 0x0, symName: __ZNKSt3__116reverse_iteratorIPNS_6vectorINS_12basic_stringIcNS_11char_traitsIcEENS_9allocatorIcEEEENS5_IS7_EEEEE4baseB8ne180100Ev, symObjAddr: 0x824C, symBinAddr: 0x100009518, symSize: 0x18 }
  - { offset: 0x4DC2C, size: 0x8, addend: 0x0, symName: __ZNKSt3__16vectorINS0_INS_12basic_stringIcNS_11char_traitsIcEENS_9allocatorIcEEEENS4_IS6_EEEENS4_IS8_EEE14__annotate_newB8ne180100Em, symObjAddr: 0x82A0, symBinAddr: 0x10000956C, symSize: 0x14 }
  - { offset: 0x4DC61, size: 0x8, addend: 0x0, symName: __ZNSt3__129_AllocatorDestroyRangeReverseINS_9allocatorINS_6vectorINS_12basic_stringIcNS_11char_traitsIcEENS1_IcEEEENS1_IS7_EEEEEENS_16reverse_iteratorIPS9_EEEC1B8ne180100ERSA_RSD_SG_, symObjAddr: 0x8300, symBinAddr: 0x1000095CC, symSize: 0x44 }
  - { offset: 0x4DCB8, size: 0x8, addend: 0x0, symName: __ZNKSt3__116reverse_iteratorIPNS_6vectorINS_12basic_stringIcNS_11char_traitsIcEENS_9allocatorIcEEEENS5_IS7_EEEEEdeB8ne180100Ev, symObjAddr: 0x83B0, symBinAddr: 0x10000967C, symSize: 0x28 }
  - { offset: 0x4DCEC, size: 0x8, addend: 0x0, symName: __ZNSt3__116reverse_iteratorIPNS_6vectorINS_12basic_stringIcNS_11char_traitsIcEENS_9allocatorIcEEEENS5_IS7_EEEEEppB8ne180100Ev, symObjAddr: 0x83D8, symBinAddr: 0x1000096A4, symSize: 0x20 }
  - { offset: 0x4DD12, size: 0x8, addend: 0x0, symName: __ZNSt3__128__exception_guard_exceptionsINS_29_AllocatorDestroyRangeReverseINS_9allocatorINS_6vectorINS_12basic_stringIcNS_11char_traitsIcEENS2_IcEEEENS2_IS8_EEEEEENS_16reverse_iteratorIPSA_EEEEE10__completeB8ne180100Ev, symObjAddr: 0x83F8, symBinAddr: 0x1000096C4, symSize: 0x1C }
  - { offset: 0x4DD38, size: 0x8, addend: 0x0, symName: __ZNSt3__128__exception_guard_exceptionsINS_29_AllocatorDestroyRangeReverseINS_9allocatorINS_6vectorINS_12basic_stringIcNS_11char_traitsIcEENS2_IcEEEENS2_IS8_EEEEEENS_16reverse_iteratorIPSA_EEEEED1B8ne180100Ev, symObjAddr: 0x8414, symBinAddr: 0x1000096E0, symSize: 0x2C }
  - { offset: 0x4DD62, size: 0x8, addend: 0x0, symName: __ZNSt3__128__exception_guard_exceptionsINS_29_AllocatorDestroyRangeReverseINS_9allocatorINS_6vectorINS_12basic_stringIcNS_11char_traitsIcEENS2_IcEEEENS2_IS8_EEEEEENS_16reverse_iteratorIPSA_EEEEEC1B8ne180100ESF_, symObjAddr: 0x8440, symBinAddr: 0x10000970C, symSize: 0x34 }
  - { offset: 0x4DD9B, size: 0x8, addend: 0x0, symName: __ZNSt3__128__exception_guard_exceptionsINS_29_AllocatorDestroyRangeReverseINS_9allocatorINS_6vectorINS_12basic_stringIcNS_11char_traitsIcEENS2_IcEEEENS2_IS8_EEEEEENS_16reverse_iteratorIPSA_EEEEEC2B8ne180100ESF_, symObjAddr: 0x8474, symBinAddr: 0x100009740, symSize: 0x30 }
  - { offset: 0x4DDD4, size: 0x8, addend: 0x0, symName: __ZNSt3__129_AllocatorDestroyRangeReverseINS_9allocatorINS_6vectorINS_12basic_stringIcNS_11char_traitsIcEENS1_IcEEEENS1_IS7_EEEEEENS_16reverse_iteratorIPS9_EEEC2B8ne180100ERSA_RSD_SG_, symObjAddr: 0x84A4, symBinAddr: 0x100009770, symSize: 0x38 }
  - { offset: 0x4DE31, size: 0x8, addend: 0x0, symName: __ZNSt3__119__to_address_helperINS_16reverse_iteratorIPNS_6vectorINS_12basic_stringIcNS_11char_traitsIcEENS_9allocatorIcEEEENS6_IS8_EEEEEEvE6__callB8ne180100ERKSC_, symObjAddr: 0x84DC, symBinAddr: 0x1000097A8, symSize: 0x38 }
  - { offset: 0x4DE54, size: 0x8, addend: 0x0, symName: __ZNKSt3__116reverse_iteratorIPNS_6vectorINS_12basic_stringIcNS_11char_traitsIcEENS_9allocatorIcEEEENS5_IS7_EEEEEptB8ne180100Ev, symObjAddr: 0x8514, symBinAddr: 0x1000097E0, symSize: 0x24 }
  - { offset: 0x4DE7A, size: 0x8, addend: 0x0, symName: __ZNSt3__128__exception_guard_exceptionsINS_29_AllocatorDestroyRangeReverseINS_9allocatorINS_6vectorINS_12basic_stringIcNS_11char_traitsIcEENS2_IcEEEENS2_IS8_EEEEEENS_16reverse_iteratorIPSA_EEEEED2B8ne180100Ev, symObjAddr: 0x8538, symBinAddr: 0x100009804, symSize: 0x50 }
  - { offset: 0x4DEA4, size: 0x8, addend: 0x0, symName: __ZNKSt3__129_AllocatorDestroyRangeReverseINS_9allocatorINS_6vectorINS_12basic_stringIcNS_11char_traitsIcEENS1_IcEEEENS1_IS7_EEEEEENS_16reverse_iteratorIPS9_EEEclB8ne180100Ev, symObjAddr: 0x8588, symBinAddr: 0x100009854, symSize: 0xB4 }
  - { offset: 0x4DECB, size: 0x8, addend: 0x0, symName: __ZNSt3__116reverse_iteratorINS0_IPNS_6vectorINS_12basic_stringIcNS_11char_traitsIcEENS_9allocatorIcEEEENS5_IS7_EEEEEEEC1B8ne180100ESB_, symObjAddr: 0x86AC, symBinAddr: 0x100009978, symSize: 0x3C }
  - { offset: 0x4DF03, size: 0x8, addend: 0x0, symName: __ZNSt3__116allocator_traitsINS_9allocatorINS_6vectorINS_12basic_stringIcNS_11char_traitsIcEENS1_IcEEEENS1_IS7_EEEEEEE7destroyB8ne180100IS9_vEEvRSA_PT_, symObjAddr: 0x8748, symBinAddr: 0x100009A14, symSize: 0x2C }
  - { offset: 0x4DF40, size: 0x8, addend: 0x0, symName: __ZNSt3__116reverse_iteratorINS0_IPNS_6vectorINS_12basic_stringIcNS_11char_traitsIcEENS_9allocatorIcEEEENS5_IS7_EEEEEEEppB8ne180100Ev, symObjAddr: 0x8798, symBinAddr: 0x100009A64, symSize: 0x30 }
  - { offset: 0x4DF66, size: 0x8, addend: 0x0, symName: __ZNKSt3__116reverse_iteratorINS0_IPNS_6vectorINS_12basic_stringIcNS_11char_traitsIcEENS_9allocatorIcEEEENS5_IS7_EEEEEEE4baseB8ne180100Ev, symObjAddr: 0x87C8, symBinAddr: 0x100009A94, symSize: 0x24 }
  - { offset: 0x4DF8C, size: 0x8, addend: 0x0, symName: __ZNSt3__19allocatorINS_6vectorINS_12basic_stringIcNS_11char_traitsIcEENS0_IcEEEENS0_IS6_EEEEE7destroyB8ne180100EPS8_, symObjAddr: 0x87EC, symBinAddr: 0x100009AB8, symSize: 0x28 }
  - { offset: 0x4DFC6, size: 0x8, addend: 0x0, symName: __ZNSt3__119__to_address_helperINS_16reverse_iteratorINS1_IPNS_6vectorINS_12basic_stringIcNS_11char_traitsIcEENS_9allocatorIcEEEENS6_IS8_EEEEEEEEvE6__callB8ne180100ERKSD_, symObjAddr: 0x8814, symBinAddr: 0x100009AE0, symSize: 0x38 }
  - { offset: 0x4DFE9, size: 0x8, addend: 0x0, symName: __ZNKSt3__116reverse_iteratorINS0_IPNS_6vectorINS_12basic_stringIcNS_11char_traitsIcEENS_9allocatorIcEEEENS5_IS7_EEEEEEEptB8ne180100Ev, symObjAddr: 0x884C, symBinAddr: 0x100009B18, symSize: 0x24 }
  - { offset: 0x4E00F, size: 0x8, addend: 0x0, symName: __ZNKSt3__116reverse_iteratorINS0_IPNS_6vectorINS_12basic_stringIcNS_11char_traitsIcEENS_9allocatorIcEEEENS5_IS7_EEEEEEEdeB8ne180100Ev, symObjAddr: 0x8870, symBinAddr: 0x100009B3C, symSize: 0x34 }
  - { offset: 0x4E043, size: 0x8, addend: 0x0, symName: __ZNSt3__116reverse_iteratorIPNS_6vectorINS_12basic_stringIcNS_11char_traitsIcEENS_9allocatorIcEEEENS5_IS7_EEEEEmmB8ne180100Ev, symObjAddr: 0x88A4, symBinAddr: 0x100009B70, symSize: 0x20 }
  - { offset: 0x4E069, size: 0x8, addend: 0x0, symName: __ZNSt3__116reverse_iteratorINS0_IPNS_6vectorINS_12basic_stringIcNS_11char_traitsIcEENS_9allocatorIcEEEENS5_IS7_EEEEEEEC2B8ne180100ESB_, symObjAddr: 0x88C4, symBinAddr: 0x100009B90, symSize: 0x2C }
  - { offset: 0x4E0A1, size: 0x8, addend: 0x0, symName: __ZNSt3__116reverse_iteratorIPNS_6vectorINS_12basic_stringIcNS_11char_traitsIcEENS_9allocatorIcEEEENS5_IS7_EEEEEC2B8ne180100ESA_, symObjAddr: 0x88F0, symBinAddr: 0x100009BBC, symSize: 0x28 }
  - { offset: 0x4E0D9, size: 0x8, addend: 0x0, symName: __ZNSt3__114__split_bufferINS_6vectorINS_12basic_stringIcNS_11char_traitsIcEENS_9allocatorIcEEEENS5_IS7_EEEERNS5_IS9_EEED2Ev, symObjAddr: 0x8918, symBinAddr: 0x100009BE4, symSize: 0x8C }
  - { offset: 0x4E105, size: 0x8, addend: 0x0, symName: __ZNSt3__114__split_bufferINS_6vectorINS_12basic_stringIcNS_11char_traitsIcEENS_9allocatorIcEEEENS5_IS7_EEEERNS5_IS9_EEE5clearB8ne180100Ev, symObjAddr: 0x89A4, symBinAddr: 0x100009C70, symSize: 0x28 }
  - { offset: 0x4E12B, size: 0x8, addend: 0x0, symName: __ZNSt3__116allocator_traitsINS_9allocatorINS_6vectorINS_12basic_stringIcNS_11char_traitsIcEENS1_IcEEEENS1_IS7_EEEEEEE10deallocateB8ne180100ERSA_PS9_m, symObjAddr: 0x89CC, symBinAddr: 0x100009C98, symSize: 0x34 }
  - { offset: 0x4E16D, size: 0x8, addend: 0x0, symName: __ZNKSt3__114__split_bufferINS_6vectorINS_12basic_stringIcNS_11char_traitsIcEENS_9allocatorIcEEEENS5_IS7_EEEERNS5_IS9_EEE8capacityB8ne180100Ev, symObjAddr: 0x8A00, symBinAddr: 0x100009CCC, symSize: 0x40 }
  - { offset: 0x4E193, size: 0x8, addend: 0x0, symName: __ZNSt3__114__split_bufferINS_6vectorINS_12basic_stringIcNS_11char_traitsIcEENS_9allocatorIcEEEENS5_IS7_EEEERNS5_IS9_EEE17__destruct_at_endB8ne180100EPS9_, symObjAddr: 0x8A40, symBinAddr: 0x100009D0C, symSize: 0x2C }
  - { offset: 0x4E1C7, size: 0x8, addend: 0x0, symName: __ZNSt3__114__split_bufferINS_6vectorINS_12basic_stringIcNS_11char_traitsIcEENS_9allocatorIcEEEENS5_IS7_EEEERNS5_IS9_EEE17__destruct_at_endB8ne180100EPS9_NS_17integral_constantIbLb0EEE, symObjAddr: 0x8A6C, symBinAddr: 0x100009D38, symSize: 0x80 }
  - { offset: 0x4E207, size: 0x8, addend: 0x0, symName: __ZNSt3__19allocatorINS_6vectorINS_12basic_stringIcNS_11char_traitsIcEENS0_IcEEEENS0_IS6_EEEEE10deallocateB8ne180100EPS8_m, symObjAddr: 0x8AEC, symBinAddr: 0x100009DB8, symSize: 0x44 }
  - { offset: 0x4E249, size: 0x8, addend: 0x0, symName: __ZNKSt3__114__split_bufferINS_6vectorINS_12basic_stringIcNS_11char_traitsIcEENS_9allocatorIcEEEENS5_IS7_EEEERNS5_IS9_EEE9__end_capB8ne180100Ev, symObjAddr: 0x8B30, symBinAddr: 0x100009DFC, symSize: 0x28 }
  - { offset: 0x4E26F, size: 0x8, addend: 0x0, symName: __ZNKSt3__117__compressed_pairIPNS_6vectorINS_12basic_stringIcNS_11char_traitsIcEENS_9allocatorIcEEEENS5_IS7_EEEERNS5_IS9_EEE5firstB8ne180100Ev, symObjAddr: 0x8B58, symBinAddr: 0x100009E24, symSize: 0x24 }
  - { offset: 0x4E295, size: 0x8, addend: 0x0, symName: __ZNSt3__16vectorINS_12basic_stringIcNS_11char_traitsIcEENS_9allocatorIcEEEENS4_IS6_EEED2B8ne180100Ev, symObjAddr: 0x8B7C, symBinAddr: 0x100009E48, symSize: 0x44 }
  - { offset: 0x4E2BF, size: 0x8, addend: 0x0, symName: __ZNSt3__16vectorINS_12basic_stringIcNS_11char_traitsIcEENS_9allocatorIcEEEENS4_IS6_EEE16__destroy_vectorC1B8ne180100ERS8_, symObjAddr: 0x8BC0, symBinAddr: 0x100009E8C, symSize: 0x34 }
  - { offset: 0x4E2F8, size: 0x8, addend: 0x0, symName: __ZNSt3__16vectorINS_12basic_stringIcNS_11char_traitsIcEENS_9allocatorIcEEEENS4_IS6_EEE16__destroy_vectorclB8ne180100Ev, symObjAddr: 0x8BF4, symBinAddr: 0x100009EC0, symSize: 0x90 }
  - { offset: 0x4E31E, size: 0x8, addend: 0x0, symName: __ZNSt3__16vectorINS_12basic_stringIcNS_11char_traitsIcEENS_9allocatorIcEEEENS4_IS6_EEE16__destroy_vectorC2B8ne180100ERS8_, symObjAddr: 0x8C84, symBinAddr: 0x100009F50, symSize: 0x20 }
  - { offset: 0x4E357, size: 0x8, addend: 0x0, symName: __ZNSt3__16vectorINS_12basic_stringIcNS_11char_traitsIcEENS_9allocatorIcEEEENS4_IS6_EEE7__clearB8ne180100Ev, symObjAddr: 0x8CA4, symBinAddr: 0x100009F70, symSize: 0x28 }
  - { offset: 0x4E37D, size: 0x8, addend: 0x0, symName: __ZNSt3__16vectorINS_12basic_stringIcNS_11char_traitsIcEENS_9allocatorIcEEEENS4_IS6_EEE22__base_destruct_at_endB8ne180100EPS6_, symObjAddr: 0x8CCC, symBinAddr: 0x100009F98, symSize: 0x8C }
  - { offset: 0x4E3C1, size: 0x8, addend: 0x0, symName: __ZNSt3__114basic_ifstreamIcNS_11char_traitsIcEEED2Ev, symObjAddr: 0x8D58, symBinAddr: 0x10000A024, symSize: 0x64 }
  - { offset: 0x4E3FB, size: 0x8, addend: 0x0, symName: __ZTv0_n24_NSt3__114basic_ifstreamIcNS_11char_traitsIcEEED1Ev, symObjAddr: 0x8DBC, symBinAddr: 0x10000A088, symSize: 0x28 }
  - { offset: 0x4E411, size: 0x8, addend: 0x0, symName: __Z31convert_to_double_with_encodingRKNSt3__16vectorINS0_INS_12basic_stringIcNS_11char_traitsIcEENS_9allocatorIcEEEENS4_IS6_EEEENS4_IS8_EEEEb, symObjAddr: 0x8DE4, symBinAddr: 0x10000A0B0, symSize: 0x708 }
  - { offset: 0x4E504, size: 0x8, addend: 0x0, symName: __ZNSt3__16vectorINS0_IdNS_9allocatorIdEEEENS1_IS3_EEEC1B8ne180100Ev, symObjAddr: 0x94EC, symBinAddr: 0x10000A7B8, symSize: 0x2C }
  - { offset: 0x4E52E, size: 0x8, addend: 0x0, symName: __ZNKSt3__16vectorINS0_INS_12basic_stringIcNS_11char_traitsIcEENS_9allocatorIcEEEENS4_IS6_EEEENS4_IS8_EEEixB8ne180100Em, symObjAddr: 0x9518, symBinAddr: 0x10000A7E4, symSize: 0x2C }
  - { offset: 0x4E565, size: 0x8, addend: 0x0, symName: __ZNKSt3__16vectorINS_12basic_stringIcNS_11char_traitsIcEENS_9allocatorIcEEEENS4_IS6_EEE4backB8ne180100Ev, symObjAddr: 0x9544, symBinAddr: 0x10000A810, symSize: 0x1C }
  - { offset: 0x4E58A, size: 0x8, addend: 0x0, symName: __Z22create_target_encodingRKNSt3__16vectorINS_12basic_stringIcNS_11char_traitsIcEENS_9allocatorIcEEEENS4_IS6_EEEE, symObjAddr: 0x9560, symBinAddr: 0x10000A82C, symSize: 0x17C }
  - { offset: 0x4E61D, size: 0x8, addend: 0x0, symName: __ZNSt3__16vectorIdNS_9allocatorIdEEEC1B8ne180100Ev, symObjAddr: 0x96DC, symBinAddr: 0x10000A9A8, symSize: 0x2C }
  - { offset: 0x4E647, size: 0x8, addend: 0x0, symName: __ZNSt3__16vectorIdNS_9allocatorIdEEE9push_backB8ne180100EOd, symObjAddr: 0x9708, symBinAddr: 0x10000A9D4, symSize: 0x90 }
  - { offset: 0x4E68D, size: 0x8, addend: 0x0, symName: __ZNKSt3__16vectorINS_12basic_stringIcNS_11char_traitsIcEENS_9allocatorIcEEEENS4_IS6_EEEixB8ne180100Em, symObjAddr: 0x9798, symBinAddr: 0x10000AA64, symSize: 0x2C }
  - { offset: 0x4E792, size: 0x8, addend: 0x0, symName: __ZNSt3__113unordered_mapINS_12basic_stringIcNS_11char_traitsIcEENS_9allocatorIcEEEEdNS_4hashIS6_EENS_8equal_toIS6_EENS4_INS_4pairIKS6_dEEEEE4findB8ne180100ERSC_, symObjAddr: 0x97F4, symBinAddr: 0x10000AAC0, symSize: 0x40 }
  - { offset: 0x4E7C7, size: 0x8, addend: 0x0, symName: __ZNSt3__113unordered_mapINS_12basic_stringIcNS_11char_traitsIcEENS_9allocatorIcEEEEdNS_4hashIS6_EENS_8equal_toIS6_EENS4_INS_4pairIKS6_dEEEEE3endB8ne180100Ev, symObjAddr: 0x9834, symBinAddr: 0x10000AB00, symSize: 0x38 }
  - { offset: 0x4E7ED, size: 0x8, addend: 0x0, symName: __ZNSt3__16vectorIdNS_9allocatorIdEEE9push_backB8ne180100ERKd, symObjAddr: 0x98AC, symBinAddr: 0x10000AB78, symSize: 0x90 }
  - { offset: 0x4E833, size: 0x8, addend: 0x0, symName: __ZNSt3__113unordered_mapINS_12basic_stringIcNS_11char_traitsIcEENS_9allocatorIcEEEEdNS_4hashIS6_EENS_8equal_toIS6_EENS4_INS_4pairIKS6_dEEEEEixERSC_, symObjAddr: 0x993C, symBinAddr: 0x10000AC08, symSize: 0x80 }
  - { offset: 0x4E86A, size: 0x8, addend: 0x0, symName: __ZNSt3__16vectorINS0_IdNS_9allocatorIdEEEENS1_IS3_EEE9push_backB8ne180100ERKS3_, symObjAddr: 0x99BC, symBinAddr: 0x10000AC88, symSize: 0x90 }
  - { offset: 0x4E8B0, size: 0x8, addend: 0x0, symName: __ZNSt3__16vectorIdNS_9allocatorIdEEED1B8ne180100Ev, symObjAddr: 0x9A4C, symBinAddr: 0x10000AD18, symSize: 0x2C }
  - { offset: 0x4E8DA, size: 0x8, addend: 0x0, symName: __ZNSt3__113unordered_mapINS_12basic_stringIcNS_11char_traitsIcEENS_9allocatorIcEEEEdNS_4hashIS6_EENS_8equal_toIS6_EENS4_INS_4pairIKS6_dEEEEED1B8ne180100Ev, symObjAddr: 0x9A78, symBinAddr: 0x10000AD44, symSize: 0x2C }
  - { offset: 0x4E904, size: 0x8, addend: 0x0, symName: __ZNSt3__16vectorINS0_IdNS_9allocatorIdEEEENS1_IS3_EEEC2B8ne180100Ev, symObjAddr: 0x9AA4, symBinAddr: 0x10000AD70, symSize: 0x4C }
  - { offset: 0x4E92E, size: 0x8, addend: 0x0, symName: __ZNSt3__117__compressed_pairIPNS_6vectorIdNS_9allocatorIdEEEENS2_IS4_EEEC1B8ne180100IDnNS_18__default_init_tagEEEOT_OT0_, symObjAddr: 0x9AF0, symBinAddr: 0x10000ADBC, symSize: 0x3C }
  - { offset: 0x4E986, size: 0x8, addend: 0x0, symName: __ZNSt3__117__compressed_pairIPNS_6vectorIdNS_9allocatorIdEEEENS2_IS4_EEEC2B8ne180100IDnNS_18__default_init_tagEEEOT_OT0_, symObjAddr: 0x9B2C, symBinAddr: 0x10000ADF8, symSize: 0x40 }
  - { offset: 0x4E9DE, size: 0x8, addend: 0x0, symName: __ZNSt3__122__compressed_pair_elemIPNS_6vectorIdNS_9allocatorIdEEEELi0ELb0EEC2B8ne180100IDnvEEOT_, symObjAddr: 0x9B6C, symBinAddr: 0x10000AE38, symSize: 0x1C }
  - { offset: 0x4EA20, size: 0x8, addend: 0x0, symName: __ZNSt3__122__compressed_pair_elemINS_9allocatorINS_6vectorIdNS1_IdEEEEEELi1ELb1EEC2B8ne180100ENS_18__default_init_tagE, symObjAddr: 0x9B88, symBinAddr: 0x10000AE54, symSize: 0x2C }
  - { offset: 0x4EA54, size: 0x8, addend: 0x0, symName: __ZNSt3__19allocatorINS_6vectorIdNS0_IdEEEEEC2B8ne180100Ev, symObjAddr: 0x9BB4, symBinAddr: 0x10000AE80, symSize: 0x2C }
  - { offset: 0x4EA7E, size: 0x8, addend: 0x0, symName: __ZNSt3__116__non_trivial_ifILb1ENS_9allocatorINS_6vectorIdNS1_IdEEEEEEEC2B8ne180100Ev, symObjAddr: 0x9BE0, symBinAddr: 0x10000AEAC, symSize: 0x14 }
  - { offset: 0x4EAA8, size: 0x8, addend: 0x0, symName: __ZNSt3__113unordered_mapINS_12basic_stringIcNS_11char_traitsIcEENS_9allocatorIcEEEEdNS_4hashIS6_EENS_8equal_toIS6_EENS4_INS_4pairIKS6_dEEEEEC1B8ne180100Ev, symObjAddr: 0x9BF4, symBinAddr: 0x10000AEC0, symSize: 0x2C }
  - { offset: 0x4EAD2, size: 0x8, addend: 0x0, symName: __ZNKSt3__16vectorINS_12basic_stringIcNS_11char_traitsIcEENS_9allocatorIcEEEENS4_IS6_EEE5beginB8ne180100Ev, symObjAddr: 0x9C20, symBinAddr: 0x10000AEEC, symSize: 0x30 }
  - { offset: 0x4EAFA, size: 0x8, addend: 0x0, symName: __ZNKSt3__16vectorINS_12basic_stringIcNS_11char_traitsIcEENS_9allocatorIcEEEENS4_IS6_EEE3endB8ne180100Ev, symObjAddr: 0x9C50, symBinAddr: 0x10000AF1C, symSize: 0x30 }
  - { offset: 0x4EB22, size: 0x8, addend: 0x0, symName: __ZNKSt3__111__wrap_iterIPKNS_12basic_stringIcNS_11char_traitsIcEENS_9allocatorIcEEEEEdeB8ne180100Ev, symObjAddr: 0x9CB4, symBinAddr: 0x10000AF80, symSize: 0x18 }
  - { offset: 0x4EB48, size: 0x8, addend: 0x0, symName: __ZNSt3__111__wrap_iterIPKNS_12basic_stringIcNS_11char_traitsIcEENS_9allocatorIcEEEEEppB8ne180100Ev, symObjAddr: 0x9CCC, symBinAddr: 0x10000AF98, symSize: 0x20 }
  - { offset: 0x4EB6E, size: 0x8, addend: 0x0, symName: __ZNSt3__113unordered_mapINS_12basic_stringIcNS_11char_traitsIcEENS_9allocatorIcEEEEdNS_4hashIS6_EENS_8equal_toIS6_EENS4_INS_4pairIKS6_dEEEEEC2B8ne180100Ev, symObjAddr: 0x9CEC, symBinAddr: 0x10000AFB8, symSize: 0x2C }
  - { offset: 0x4EB98, size: 0x8, addend: 0x0, symName: __ZNSt3__112__hash_tableINS_17__hash_value_typeINS_12basic_stringIcNS_11char_traitsIcEENS_9allocatorIcEEEEdEENS_22__unordered_map_hasherIS7_S8_NS_4hashIS7_EENS_8equal_toIS7_EELb1EEENS_21__unordered_map_equalIS7_S8_SD_SB_Lb1EEENS5_IS8_EEEC1Ev, symObjAddr: 0x9D18, symBinAddr: 0x10000AFE4, symSize: 0x2C }
  - { offset: 0x4EBC4, size: 0x8, addend: 0x0, symName: __ZNSt3__112__hash_tableINS_17__hash_value_typeINS_12basic_stringIcNS_11char_traitsIcEENS_9allocatorIcEEEEdEENS_22__unordered_map_hasherIS7_S8_NS_4hashIS7_EENS_8equal_toIS7_EELb1EEENS_21__unordered_map_equalIS7_S8_SD_SB_Lb1EEENS5_IS8_EEEC2Ev, symObjAddr: 0x9D44, symBinAddr: 0x10000B010, symSize: 0x7C }
  - { offset: 0x4EBF0, size: 0x8, addend: 0x0, symName: __ZNSt3__110unique_ptrIA_PNS_16__hash_node_baseIPNS_11__hash_nodeINS_17__hash_value_typeINS_12basic_stringIcNS_11char_traitsIcEENS_9allocatorIcEEEEdEEPvEEEENS_25__bucket_list_deallocatorINS7_ISF_EEEEEC1B8ne180100ILb1EvEEv, symObjAddr: 0x9DC0, symBinAddr: 0x10000B08C, symSize: 0x2C }
  - { offset: 0x4EC25, size: 0x8, addend: 0x0, symName: __ZNSt3__117__compressed_pairINS_16__hash_node_baseIPNS_11__hash_nodeINS_17__hash_value_typeINS_12basic_stringIcNS_11char_traitsIcEENS_9allocatorIcEEEEdEEPvEEEENS7_ISC_EEEC1B8ne180100ILb1EvEEv, symObjAddr: 0x9DEC, symBinAddr: 0x10000B0B8, symSize: 0x2C }
  - { offset: 0x4EC60, size: 0x8, addend: 0x0, symName: __ZNSt3__117__compressed_pairImNS_22__unordered_map_hasherINS_12basic_stringIcNS_11char_traitsIcEENS_9allocatorIcEEEENS_17__hash_value_typeIS7_dEENS_4hashIS7_EENS_8equal_toIS7_EELb1EEEEC1B8ne180100IiNS_18__default_init_tagEEEOT_OT0_, symObjAddr: 0x9E18, symBinAddr: 0x10000B0E4, symSize: 0x3C }
  - { offset: 0x4ECBE, size: 0x8, addend: 0x0, symName: __ZNSt3__117__compressed_pairIfNS_21__unordered_map_equalINS_12basic_stringIcNS_11char_traitsIcEENS_9allocatorIcEEEENS_17__hash_value_typeIS7_dEENS_8equal_toIS7_EENS_4hashIS7_EELb1EEEEC1B8ne180100IfNS_18__default_init_tagEEEOT_OT0_, symObjAddr: 0x9E54, symBinAddr: 0x10000B120, symSize: 0x3C }
  - { offset: 0x4ED16, size: 0x8, addend: 0x0, symName: __ZNSt3__110unique_ptrIA_PNS_16__hash_node_baseIPNS_11__hash_nodeINS_17__hash_value_typeINS_12basic_stringIcNS_11char_traitsIcEENS_9allocatorIcEEEEdEEPvEEEENS_25__bucket_list_deallocatorINS7_ISF_EEEEEC2B8ne180100ILb1EvEEv, symObjAddr: 0x9E90, symBinAddr: 0x10000B15C, symSize: 0x3C }
  - { offset: 0x4ED4B, size: 0x8, addend: 0x0, symName: __ZNSt3__117__compressed_pairIPPNS_16__hash_node_baseIPNS_11__hash_nodeINS_17__hash_value_typeINS_12basic_stringIcNS_11char_traitsIcEENS_9allocatorIcEEEEdEEPvEEEENS_25__bucket_list_deallocatorINS7_ISF_EEEEEC1B8ne180100INS_16__value_init_tagESM_EEOT_OT0_, symObjAddr: 0x9ECC, symBinAddr: 0x10000B198, symSize: 0x3C }
  - { offset: 0x4EDA3, size: 0x8, addend: 0x0, symName: __ZNSt3__117__compressed_pairIPPNS_16__hash_node_baseIPNS_11__hash_nodeINS_17__hash_value_typeINS_12basic_stringIcNS_11char_traitsIcEENS_9allocatorIcEEEEdEEPvEEEENS_25__bucket_list_deallocatorINS7_ISF_EEEEEC2B8ne180100INS_16__value_init_tagESM_EEOT_OT0_, symObjAddr: 0x9F08, symBinAddr: 0x10000B1D4, symSize: 0x40 }
  - { offset: 0x4EDFB, size: 0x8, addend: 0x0, symName: __ZNSt3__122__compressed_pair_elemIPPNS_16__hash_node_baseIPNS_11__hash_nodeINS_17__hash_value_typeINS_12basic_stringIcNS_11char_traitsIcEENS_9allocatorIcEEEEdEEPvEEEELi0ELb0EEC2B8ne180100ENS_16__value_init_tagE, symObjAddr: 0x9F48, symBinAddr: 0x10000B214, symSize: 0x18 }
  - { offset: 0x4EE2F, size: 0x8, addend: 0x0, symName: __ZNSt3__122__compressed_pair_elemINS_25__bucket_list_deallocatorINS_9allocatorIPNS_16__hash_node_baseIPNS_11__hash_nodeINS_17__hash_value_typeINS_12basic_stringIcNS_11char_traitsIcEENS2_IcEEEEdEEPvEEEEEEEELi1ELb0EEC2B8ne180100ENS_16__value_init_tagE, symObjAddr: 0x9F60, symBinAddr: 0x10000B22C, symSize: 0x2C }
  - { offset: 0x4EE63, size: 0x8, addend: 0x0, symName: __ZNSt3__125__bucket_list_deallocatorINS_9allocatorIPNS_16__hash_node_baseIPNS_11__hash_nodeINS_17__hash_value_typeINS_12basic_stringIcNS_11char_traitsIcEENS1_IcEEEEdEEPvEEEEEEEC1B8ne180100Ev, symObjAddr: 0x9F8C, symBinAddr: 0x10000B258, symSize: 0x2C }
  - { offset: 0x4EE8D, size: 0x8, addend: 0x0, symName: __ZNSt3__125__bucket_list_deallocatorINS_9allocatorIPNS_16__hash_node_baseIPNS_11__hash_nodeINS_17__hash_value_typeINS_12basic_stringIcNS_11char_traitsIcEENS1_IcEEEEdEEPvEEEEEEEC2B8ne180100Ev, symObjAddr: 0x9FB8, symBinAddr: 0x10000B284, symSize: 0x40 }
  - { offset: 0x4EEB7, size: 0x8, addend: 0x0, symName: __ZNSt3__117__compressed_pairImNS_9allocatorIPNS_16__hash_node_baseIPNS_11__hash_nodeINS_17__hash_value_typeINS_12basic_stringIcNS_11char_traitsIcEENS1_IcEEEEdEEPvEEEEEEEC1B8ne180100IiNS_18__default_init_tagEEEOT_OT0_, symObjAddr: 0x9FF8, symBinAddr: 0x10000B2C4, symSize: 0x3C }
  - { offset: 0x4EF0F, size: 0x8, addend: 0x0, symName: __ZNSt3__117__compressed_pairImNS_9allocatorIPNS_16__hash_node_baseIPNS_11__hash_nodeINS_17__hash_value_typeINS_12basic_stringIcNS_11char_traitsIcEENS1_IcEEEEdEEPvEEEEEEEC2B8ne180100IiNS_18__default_init_tagEEEOT_OT0_, symObjAddr: 0xA034, symBinAddr: 0x10000B300, symSize: 0x40 }
  - { offset: 0x4EF67, size: 0x8, addend: 0x0, symName: __ZNSt3__122__compressed_pair_elemImLi0ELb0EEC2B8ne180100IivEEOT_, symObjAddr: 0xA074, symBinAddr: 0x10000B340, symSize: 0x24 }
  - { offset: 0x4EFA9, size: 0x8, addend: 0x0, symName: __ZNSt3__122__compressed_pair_elemINS_9allocatorIPNS_16__hash_node_baseIPNS_11__hash_nodeINS_17__hash_value_typeINS_12basic_stringIcNS_11char_traitsIcEENS1_IcEEEEdEEPvEEEEEELi1ELb1EEC2B8ne180100ENS_18__default_init_tagE, symObjAddr: 0xA098, symBinAddr: 0x10000B364, symSize: 0x2C }
  - { offset: 0x4EFDD, size: 0x8, addend: 0x0, symName: __ZNSt3__19allocatorIPNS_16__hash_node_baseIPNS_11__hash_nodeINS_17__hash_value_typeINS_12basic_stringIcNS_11char_traitsIcEENS0_IcEEEEdEEPvEEEEEC2B8ne180100Ev, symObjAddr: 0xA0C4, symBinAddr: 0x10000B390, symSize: 0x2C }
  - { offset: 0x4F007, size: 0x8, addend: 0x0, symName: __ZNSt3__116__non_trivial_ifILb1ENS_9allocatorIPNS_16__hash_node_baseIPNS_11__hash_nodeINS_17__hash_value_typeINS_12basic_stringIcNS_11char_traitsIcEENS1_IcEEEEdEEPvEEEEEEEC2B8ne180100Ev, symObjAddr: 0xA0F0, symBinAddr: 0x10000B3BC, symSize: 0x14 }
  - { offset: 0x4F031, size: 0x8, addend: 0x0, symName: __ZNSt3__117__compressed_pairINS_16__hash_node_baseIPNS_11__hash_nodeINS_17__hash_value_typeINS_12basic_stringIcNS_11char_traitsIcEENS_9allocatorIcEEEEdEEPvEEEENS7_ISC_EEEC2B8ne180100ILb1EvEEv, symObjAddr: 0xA104, symBinAddr: 0x10000B3D0, symSize: 0x34 }
  - { offset: 0x4F066, size: 0x8, addend: 0x0, symName: __ZNSt3__122__compressed_pair_elemINS_16__hash_node_baseIPNS_11__hash_nodeINS_17__hash_value_typeINS_12basic_stringIcNS_11char_traitsIcEENS_9allocatorIcEEEEdEEPvEEEELi0ELb0EEC2B8ne180100ENS_16__value_init_tagE, symObjAddr: 0xA138, symBinAddr: 0x10000B404, symSize: 0x2C }
  - { offset: 0x4F09A, size: 0x8, addend: 0x0, symName: __ZNSt3__122__compressed_pair_elemINS_9allocatorINS_11__hash_nodeINS_17__hash_value_typeINS_12basic_stringIcNS_11char_traitsIcEENS1_IcEEEEdEEPvEEEELi1ELb1EEC2B8ne180100ENS_16__value_init_tagE, symObjAddr: 0xA164, symBinAddr: 0x10000B430, symSize: 0x2C }
  - { offset: 0x4F0CE, size: 0x8, addend: 0x0, symName: __ZNSt3__116__hash_node_baseIPNS_11__hash_nodeINS_17__hash_value_typeINS_12basic_stringIcNS_11char_traitsIcEENS_9allocatorIcEEEEdEEPvEEEC1B8ne180100Ev, symObjAddr: 0xA190, symBinAddr: 0x10000B45C, symSize: 0x2C }
  - { offset: 0x4F0F8, size: 0x8, addend: 0x0, symName: __ZNSt3__116__hash_node_baseIPNS_11__hash_nodeINS_17__hash_value_typeINS_12basic_stringIcNS_11char_traitsIcEENS_9allocatorIcEEEEdEEPvEEEC2B8ne180100Ev, symObjAddr: 0xA1BC, symBinAddr: 0x10000B488, symSize: 0x18 }
  - { offset: 0x4F122, size: 0x8, addend: 0x0, symName: __ZNSt3__19allocatorINS_11__hash_nodeINS_17__hash_value_typeINS_12basic_stringIcNS_11char_traitsIcEENS0_IcEEEEdEEPvEEEC2B8ne180100Ev, symObjAddr: 0xA1D4, symBinAddr: 0x10000B4A0, symSize: 0x2C }
  - { offset: 0x4F14C, size: 0x8, addend: 0x0, symName: __ZNSt3__116__non_trivial_ifILb1ENS_9allocatorINS_11__hash_nodeINS_17__hash_value_typeINS_12basic_stringIcNS_11char_traitsIcEENS1_IcEEEEdEEPvEEEEEC2B8ne180100Ev, symObjAddr: 0xA200, symBinAddr: 0x10000B4CC, symSize: 0x14 }
  - { offset: 0x4F176, size: 0x8, addend: 0x0, symName: __ZNSt3__117__compressed_pairImNS_22__unordered_map_hasherINS_12basic_stringIcNS_11char_traitsIcEENS_9allocatorIcEEEENS_17__hash_value_typeIS7_dEENS_4hashIS7_EENS_8equal_toIS7_EELb1EEEEC2B8ne180100IiNS_18__default_init_tagEEEOT_OT0_, symObjAddr: 0xA214, symBinAddr: 0x10000B4E0, symSize: 0x40 }
  - { offset: 0x4F1CE, size: 0x8, addend: 0x0, symName: __ZNSt3__122__compressed_pair_elemINS_22__unordered_map_hasherINS_12basic_stringIcNS_11char_traitsIcEENS_9allocatorIcEEEENS_17__hash_value_typeIS7_dEENS_4hashIS7_EENS_8equal_toIS7_EELb1EEELi1ELb1EEC2B8ne180100ENS_18__default_init_tagE, symObjAddr: 0xA254, symBinAddr: 0x10000B520, symSize: 0x2C }
  - { offset: 0x4F202, size: 0x8, addend: 0x0, symName: __ZNSt3__122__unordered_map_hasherINS_12basic_stringIcNS_11char_traitsIcEENS_9allocatorIcEEEENS_17__hash_value_typeIS6_dEENS_4hashIS6_EENS_8equal_toIS6_EELb1EEC2B8ne180100Ev, symObjAddr: 0xA280, symBinAddr: 0x10000B54C, symSize: 0x14 }
  - { offset: 0x4F22C, size: 0x8, addend: 0x0, symName: __ZNSt3__117__compressed_pairIfNS_21__unordered_map_equalINS_12basic_stringIcNS_11char_traitsIcEENS_9allocatorIcEEEENS_17__hash_value_typeIS7_dEENS_8equal_toIS7_EENS_4hashIS7_EELb1EEEEC2B8ne180100IfNS_18__default_init_tagEEEOT_OT0_, symObjAddr: 0xA294, symBinAddr: 0x10000B560, symSize: 0x40 }
  - { offset: 0x4F284, size: 0x8, addend: 0x0, symName: __ZNSt3__122__compressed_pair_elemIfLi0ELb0EEC2B8ne180100IfvEEOT_, symObjAddr: 0xA2D4, symBinAddr: 0x10000B5A0, symSize: 0x24 }
  - { offset: 0x4F2C6, size: 0x8, addend: 0x0, symName: __ZNSt3__122__compressed_pair_elemINS_21__unordered_map_equalINS_12basic_stringIcNS_11char_traitsIcEENS_9allocatorIcEEEENS_17__hash_value_typeIS7_dEENS_8equal_toIS7_EENS_4hashIS7_EELb1EEELi1ELb1EEC2B8ne180100ENS_18__default_init_tagE, symObjAddr: 0xA2F8, symBinAddr: 0x10000B5C4, symSize: 0x2C }
  - { offset: 0x4F2FA, size: 0x8, addend: 0x0, symName: __ZNSt3__121__unordered_map_equalINS_12basic_stringIcNS_11char_traitsIcEENS_9allocatorIcEEEENS_17__hash_value_typeIS6_dEENS_8equal_toIS6_EENS_4hashIS6_EELb1EEC2B8ne180100Ev, symObjAddr: 0xA324, symBinAddr: 0x10000B5F0, symSize: 0x14 }
  - { offset: 0x4F324, size: 0x8, addend: 0x0, symName: __ZNKSt3__16vectorINS_12basic_stringIcNS_11char_traitsIcEENS_9allocatorIcEEEENS4_IS6_EEE11__make_iterB8ne180100EPKS6_, symObjAddr: 0xA338, symBinAddr: 0x10000B604, symSize: 0x30 }
  - { offset: 0x4F359, size: 0x8, addend: 0x0, symName: __ZNSt3__111__wrap_iterIPKNS_12basic_stringIcNS_11char_traitsIcEENS_9allocatorIcEEEEEC1B8ne180100ES8_, symObjAddr: 0xA368, symBinAddr: 0x10000B634, symSize: 0x34 }
  - { offset: 0x4F391, size: 0x8, addend: 0x0, symName: __ZNSt3__111__wrap_iterIPKNS_12basic_stringIcNS_11char_traitsIcEENS_9allocatorIcEEEEEC2B8ne180100ES8_, symObjAddr: 0xA39C, symBinAddr: 0x10000B668, symSize: 0x20 }
  - { offset: 0x4F3C9, size: 0x8, addend: 0x0, symName: __ZNKSt3__111__wrap_iterIPKNS_12basic_stringIcNS_11char_traitsIcEENS_9allocatorIcEEEEE4baseB8ne180100Ev, symObjAddr: 0xA404, symBinAddr: 0x10000B6D0, symSize: 0x18 }
  - { offset: 0x4F3EF, size: 0x8, addend: 0x0, symName: __ZNSt3__16vectorIdNS_9allocatorIdEEEC2B8ne180100Ev, symObjAddr: 0xA41C, symBinAddr: 0x10000B6E8, symSize: 0x4C }
  - { offset: 0x4F419, size: 0x8, addend: 0x0, symName: __ZNSt3__117__compressed_pairIPdNS_9allocatorIdEEEC1B8ne180100IDnNS_18__default_init_tagEEEOT_OT0_, symObjAddr: 0xA468, symBinAddr: 0x10000B734, symSize: 0x3C }
  - { offset: 0x4F471, size: 0x8, addend: 0x0, symName: __ZNSt3__117__compressed_pairIPdNS_9allocatorIdEEEC2B8ne180100IDnNS_18__default_init_tagEEEOT_OT0_, symObjAddr: 0xA4A4, symBinAddr: 0x10000B770, symSize: 0x40 }
  - { offset: 0x4F4C9, size: 0x8, addend: 0x0, symName: __ZNSt3__122__compressed_pair_elemIPdLi0ELb0EEC2B8ne180100IDnvEEOT_, symObjAddr: 0xA4E4, symBinAddr: 0x10000B7B0, symSize: 0x1C }
  - { offset: 0x4F50B, size: 0x8, addend: 0x0, symName: __ZNSt3__122__compressed_pair_elemINS_9allocatorIdEELi1ELb1EEC2B8ne180100ENS_18__default_init_tagE, symObjAddr: 0xA500, symBinAddr: 0x10000B7CC, symSize: 0x2C }
  - { offset: 0x4F53F, size: 0x8, addend: 0x0, symName: __ZNSt3__19allocatorIdEC2B8ne180100Ev, symObjAddr: 0xA52C, symBinAddr: 0x10000B7F8, symSize: 0x2C }
  - { offset: 0x4F569, size: 0x8, addend: 0x0, symName: __ZNSt3__116__non_trivial_ifILb1ENS_9allocatorIdEEEC2B8ne180100Ev, symObjAddr: 0xA558, symBinAddr: 0x10000B824, symSize: 0x14 }
  - { offset: 0x4F593, size: 0x8, addend: 0x0, symName: __ZNSt3__16vectorIdNS_9allocatorIdEEE9__end_capB8ne180100Ev, symObjAddr: 0xA56C, symBinAddr: 0x10000B838, symSize: 0x28 }
  - { offset: 0x4F5BF, size: 0x8, addend: 0x0, symName: __ZNSt3__16vectorIdNS_9allocatorIdEEE22__construct_one_at_endB8ne180100IJdEEEvDpOT_, symObjAddr: 0xA594, symBinAddr: 0x10000B860, symSize: 0x90 }
  - { offset: 0x4F60E, size: 0x8, addend: 0x0, symName: __ZNSt3__16vectorIdNS_9allocatorIdEEE21__push_back_slow_pathIdEEPdOT_, symObjAddr: 0xA624, symBinAddr: 0x10000B8F0, symSize: 0xE8 }
  - { offset: 0x4F66C, size: 0x8, addend: 0x0, symName: __ZNSt3__117__compressed_pairIPdNS_9allocatorIdEEE5firstB8ne180100Ev, symObjAddr: 0xA70C, symBinAddr: 0x10000B9D8, symSize: 0x24 }
  - { offset: 0x4F692, size: 0x8, addend: 0x0, symName: __ZNSt3__122__compressed_pair_elemIPdLi0ELb0EE5__getB8ne180100Ev, symObjAddr: 0xA730, symBinAddr: 0x10000B9FC, symSize: 0x14 }
  - { offset: 0x4F6D4, size: 0x8, addend: 0x0, symName: __ZNSt3__16vectorIdNS_9allocatorIdEEE21_ConstructTransactionC1B8ne180100ERS3_m, symObjAddr: 0xA744, symBinAddr: 0x10000BA10, symSize: 0x3C }
  - { offset: 0x4F71C, size: 0x8, addend: 0x0, symName: __ZNSt3__116allocator_traitsINS_9allocatorIdEEE9constructB8ne180100IdJdEvEEvRS2_PT_DpOT0_, symObjAddr: 0xA780, symBinAddr: 0x10000BA4C, symSize: 0x34 }
  - { offset: 0x4F773, size: 0x8, addend: 0x0, symName: __ZNSt3__16vectorIdNS_9allocatorIdEEE7__allocB8ne180100Ev, symObjAddr: 0xA7B4, symBinAddr: 0x10000BA80, symSize: 0x28 }
  - { offset: 0x4F799, size: 0x8, addend: 0x0, symName: __ZNSt3__16vectorIdNS_9allocatorIdEEE21_ConstructTransactionD1B8ne180100Ev, symObjAddr: 0xA7F0, symBinAddr: 0x10000BABC, symSize: 0x2C }
  - { offset: 0x4F7C3, size: 0x8, addend: 0x0, symName: __ZNSt3__16vectorIdNS_9allocatorIdEEE21_ConstructTransactionC2B8ne180100ERS3_m, symObjAddr: 0xA81C, symBinAddr: 0x10000BAE8, symSize: 0x44 }
  - { offset: 0x4F80B, size: 0x8, addend: 0x0, symName: __ZNSt3__19allocatorIdE9constructB8ne180100IdJdEEEvPT_DpOT0_, symObjAddr: 0xA860, symBinAddr: 0x10000BB2C, symSize: 0x28 }
  - { offset: 0x4F861, size: 0x8, addend: 0x0, symName: __ZNSt3__117__compressed_pairIPdNS_9allocatorIdEEE6secondB8ne180100Ev, symObjAddr: 0xA888, symBinAddr: 0x10000BB54, symSize: 0x24 }
  - { offset: 0x4F887, size: 0x8, addend: 0x0, symName: __ZNSt3__122__compressed_pair_elemINS_9allocatorIdEELi1ELb1EE5__getB8ne180100Ev, symObjAddr: 0xA8AC, symBinAddr: 0x10000BB78, symSize: 0x14 }
  - { offset: 0x4F8AD, size: 0x8, addend: 0x0, symName: __ZNSt3__16vectorIdNS_9allocatorIdEEE21_ConstructTransactionD2B8ne180100Ev, symObjAddr: 0xA8C0, symBinAddr: 0x10000BB8C, symSize: 0x20 }
  - { offset: 0x4F8D7, size: 0x8, addend: 0x0, symName: __ZNKSt3__16vectorIdNS_9allocatorIdEEE11__recommendB8ne180100Em, symObjAddr: 0xA8E0, symBinAddr: 0x10000BBAC, symSize: 0xB4 }
  - { offset: 0x4F92C, size: 0x8, addend: 0x0, symName: __ZNKSt3__16vectorIdNS_9allocatorIdEEE4sizeB8ne180100Ev, symObjAddr: 0xA994, symBinAddr: 0x10000BC60, symSize: 0x28 }
  - { offset: 0x4F952, size: 0x8, addend: 0x0, symName: __ZNSt3__114__split_bufferIdRNS_9allocatorIdEEEC1EmmS3_, symObjAddr: 0xA9BC, symBinAddr: 0x10000BC88, symSize: 0x44 }
  - { offset: 0x4F9A8, size: 0x8, addend: 0x0, symName: __ZNSt3__114__split_bufferIdRNS_9allocatorIdEEED1Ev, symObjAddr: 0xAB10, symBinAddr: 0x10000BDDC, symSize: 0x2C }
  - { offset: 0x4F9D4, size: 0x8, addend: 0x0, symName: __ZNKSt3__16vectorIdNS_9allocatorIdEEE8max_sizeEv, symObjAddr: 0xAB3C, symBinAddr: 0x10000BE08, symSize: 0x60 }
  - { offset: 0x4F9FC, size: 0x8, addend: 0x0, symName: __ZNKSt3__16vectorIdNS_9allocatorIdEEE20__throw_length_errorB8ne180100Ev, symObjAddr: 0xAB9C, symBinAddr: 0x10000BE68, symSize: 0x1C }
  - { offset: 0x4FA22, size: 0x8, addend: 0x0, symName: __ZNKSt3__16vectorIdNS_9allocatorIdEEE8capacityB8ne180100Ev, symObjAddr: 0xABB8, symBinAddr: 0x10000BE84, symSize: 0x40 }
  - { offset: 0x4FA53, size: 0x8, addend: 0x0, symName: __ZNSt3__116allocator_traitsINS_9allocatorIdEEE8max_sizeB8ne180100IS2_vEEmRKS2_, symObjAddr: 0xABF8, symBinAddr: 0x10000BEC4, symSize: 0x24 }
  - { offset: 0x4FA81, size: 0x8, addend: 0x0, symName: __ZNKSt3__16vectorIdNS_9allocatorIdEEE7__allocB8ne180100Ev, symObjAddr: 0xAC1C, symBinAddr: 0x10000BEE8, symSize: 0x28 }
  - { offset: 0x4FAA7, size: 0x8, addend: 0x0, symName: __ZNKSt3__19allocatorIdE8max_sizeB8ne180100Ev, symObjAddr: 0xAC44, symBinAddr: 0x10000BF10, symSize: 0x14 }
  - { offset: 0x4FACD, size: 0x8, addend: 0x0, symName: __ZNKSt3__117__compressed_pairIPdNS_9allocatorIdEEE6secondB8ne180100Ev, symObjAddr: 0xAC58, symBinAddr: 0x10000BF24, symSize: 0x24 }
  - { offset: 0x4FAF3, size: 0x8, addend: 0x0, symName: __ZNKSt3__122__compressed_pair_elemINS_9allocatorIdEELi1ELb1EE5__getB8ne180100Ev, symObjAddr: 0xAC7C, symBinAddr: 0x10000BF48, symSize: 0x14 }
  - { offset: 0x4FB19, size: 0x8, addend: 0x0, symName: __ZNKSt3__16vectorIdNS_9allocatorIdEEE9__end_capB8ne180100Ev, symObjAddr: 0xAC90, symBinAddr: 0x10000BF5C, symSize: 0x28 }
  - { offset: 0x4FB3F, size: 0x8, addend: 0x0, symName: __ZNKSt3__117__compressed_pairIPdNS_9allocatorIdEEE5firstB8ne180100Ev, symObjAddr: 0xACB8, symBinAddr: 0x10000BF84, symSize: 0x24 }
  - { offset: 0x4FB65, size: 0x8, addend: 0x0, symName: __ZNKSt3__122__compressed_pair_elemIPdLi0ELb0EE5__getB8ne180100Ev, symObjAddr: 0xACDC, symBinAddr: 0x10000BFA8, symSize: 0x14 }
  - { offset: 0x4FB8B, size: 0x8, addend: 0x0, symName: __ZNSt3__114__split_bufferIdRNS_9allocatorIdEEEC2EmmS3_, symObjAddr: 0xACF0, symBinAddr: 0x10000BFBC, symSize: 0xD4 }
  - { offset: 0x4FBFE, size: 0x8, addend: 0x0, symName: __ZNSt3__117__compressed_pairIPdRNS_9allocatorIdEEEC1B8ne180100IDnS4_EEOT_OT0_, symObjAddr: 0xADC4, symBinAddr: 0x10000C090, symSize: 0x3C }
  - { offset: 0x4FC56, size: 0x8, addend: 0x0, symName: __ZNSt3__114__split_bufferIdRNS_9allocatorIdEEE7__allocB8ne180100Ev, symObjAddr: 0xAE40, symBinAddr: 0x10000C10C, symSize: 0x28 }
  - { offset: 0x4FC7C, size: 0x8, addend: 0x0, symName: __ZNSt3__114__split_bufferIdRNS_9allocatorIdEEE9__end_capB8ne180100Ev, symObjAddr: 0xAE68, symBinAddr: 0x10000C134, symSize: 0x28 }
  - { offset: 0x4FCA2, size: 0x8, addend: 0x0, symName: __ZNSt3__117__compressed_pairIPdRNS_9allocatorIdEEEC2B8ne180100IDnS4_EEOT_OT0_, symObjAddr: 0xAE90, symBinAddr: 0x10000C15C, symSize: 0x48 }
  - { offset: 0x4FCFA, size: 0x8, addend: 0x0, symName: __ZNSt3__122__compressed_pair_elemIRNS_9allocatorIdEELi1ELb0EEC2B8ne180100IS3_vEEOT_, symObjAddr: 0xAED8, symBinAddr: 0x10000C1A4, symSize: 0x20 }
  - { offset: 0x4FD3C, size: 0x8, addend: 0x0, symName: __ZNSt3__19allocatorIdE8allocateB8ne180100Em, symObjAddr: 0xAEF8, symBinAddr: 0x10000C1C4, symSize: 0x58 }
  - { offset: 0x4FD70, size: 0x8, addend: 0x0, symName: __ZNSt3__117__compressed_pairIPdRNS_9allocatorIdEEE6secondB8ne180100Ev, symObjAddr: 0xAF50, symBinAddr: 0x10000C21C, symSize: 0x28 }
  - { offset: 0x4FD96, size: 0x8, addend: 0x0, symName: __ZNSt3__122__compressed_pair_elemIRNS_9allocatorIdEELi1ELb0EE5__getB8ne180100Ev, symObjAddr: 0xAF78, symBinAddr: 0x10000C244, symSize: 0x18 }
  - { offset: 0x4FDBC, size: 0x8, addend: 0x0, symName: __ZNSt3__117__compressed_pairIPdRNS_9allocatorIdEEE5firstB8ne180100Ev, symObjAddr: 0xAF90, symBinAddr: 0x10000C25C, symSize: 0x24 }
  - { offset: 0x4FDE2, size: 0x8, addend: 0x0, symName: __ZNKSt3__16vectorIdNS_9allocatorIdEEE17__annotate_deleteB8ne180100Ev, symObjAddr: 0xAFB4, symBinAddr: 0x10000C280, symSize: 0x10 }
  - { offset: 0x4FE08, size: 0x8, addend: 0x0, symName: __ZNSt3__116reverse_iteratorIPdEC1B8ne180100ES1_, symObjAddr: 0xB03C, symBinAddr: 0x10000C308, symSize: 0x34 }
  - { offset: 0x4FE40, size: 0x8, addend: 0x0, symName: __ZNKSt3__116reverse_iteratorIPdE4baseB8ne180100Ev, symObjAddr: 0xB070, symBinAddr: 0x10000C33C, symSize: 0x18 }
  - { offset: 0x4FE66, size: 0x8, addend: 0x0, symName: __ZNKSt3__16vectorIdNS_9allocatorIdEEE14__annotate_newB8ne180100Em, symObjAddr: 0xB0C4, symBinAddr: 0x10000C390, symSize: 0x14 }
  - { offset: 0x4FEC3, size: 0x8, addend: 0x0, symName: __ZNKSt3__111__move_loopINS_17_ClassicAlgPolicyEEclB8ne180100INS_16reverse_iteratorIPdEES6_S6_EENS_4pairIT_T1_EES8_T0_S9_, symObjAddr: 0xB3C8, symBinAddr: 0x10000C694, symSize: 0xA0 }
  - { offset: 0x4FF34, size: 0x8, addend: 0x0, symName: __ZNSt3__18_IterOpsINS_17_ClassicAlgPolicyEE11__iter_moveB8ne180100IRNS_16reverse_iteratorIPdEELi0EEEDTclsr3stdE4movedeclsr3stdE7declvalIRT_EEEEOS8_, symObjAddr: 0xB5FC, symBinAddr: 0x10000C8C8, symSize: 0x28 }
  - { offset: 0x4FF66, size: 0x8, addend: 0x0, symName: __ZNKSt3__116reverse_iteratorIPdEdeB8ne180100Ev, symObjAddr: 0xB624, symBinAddr: 0x10000C8F0, symSize: 0x28 }
  - { offset: 0x4FF9A, size: 0x8, addend: 0x0, symName: __ZNSt3__116reverse_iteratorIPdEppB8ne180100Ev, symObjAddr: 0xB64C, symBinAddr: 0x10000C918, symSize: 0x20 }
  - { offset: 0x4FFC0, size: 0x8, addend: 0x0, symName: __ZNSt3__18_IterOpsINS_17_ClassicAlgPolicyEE25__validate_iter_referenceB8ne180100IRNS_16reverse_iteratorIPdEEEEvv, symObjAddr: 0xB66C, symBinAddr: 0x10000C938, symSize: 0x4 }
  - { offset: 0x4FFDE, size: 0x8, addend: 0x0, symName: __ZNSt3__118__unwrap_iter_implINS_16reverse_iteratorIPdEELb0EE8__unwrapB8ne180100ES3_, symObjAddr: 0xB670, symBinAddr: 0x10000C93C, symSize: 0x24 }
  - { offset: 0x50007, size: 0x8, addend: 0x0, symName: __ZNSt3__14pairINS_16reverse_iteratorIPdEES3_EC1B8ne180100IS3_S3_Li0EEEOT_OT0_, symObjAddr: 0xB694, symBinAddr: 0x10000C960, symSize: 0x3C }
  - { offset: 0x50065, size: 0x8, addend: 0x0, symName: __ZNSt3__14pairINS_16reverse_iteratorIPdEES3_EC2B8ne180100IS3_S3_Li0EEEOT_OT0_, symObjAddr: 0xB6D0, symBinAddr: 0x10000C99C, symSize: 0x34 }
  - { offset: 0x500C3, size: 0x8, addend: 0x0, symName: __ZNSt3__118__unwrap_iter_implINS_16reverse_iteratorIPdEELb0EE8__rewrapB8ne180100ES3_S3_, symObjAddr: 0xB704, symBinAddr: 0x10000C9D0, symSize: 0x2C }
  - { offset: 0x500F0, size: 0x8, addend: 0x0, symName: __ZNSt3__116reverse_iteratorIPdEC2B8ne180100ES1_, symObjAddr: 0xB730, symBinAddr: 0x10000C9FC, symSize: 0x28 }
  - { offset: 0x50128, size: 0x8, addend: 0x0, symName: __ZNSt3__114__split_bufferIdRNS_9allocatorIdEEED2Ev, symObjAddr: 0xB758, symBinAddr: 0x10000CA24, symSize: 0x8C }
  - { offset: 0x50154, size: 0x8, addend: 0x0, symName: __ZNSt3__114__split_bufferIdRNS_9allocatorIdEEE5clearB8ne180100Ev, symObjAddr: 0xB7E4, symBinAddr: 0x10000CAB0, symSize: 0x28 }
  - { offset: 0x5017A, size: 0x8, addend: 0x0, symName: __ZNSt3__116allocator_traitsINS_9allocatorIdEEE10deallocateB8ne180100ERS2_Pdm, symObjAddr: 0xB80C, symBinAddr: 0x10000CAD8, symSize: 0x34 }
  - { offset: 0x501BC, size: 0x8, addend: 0x0, symName: __ZNKSt3__114__split_bufferIdRNS_9allocatorIdEEE8capacityB8ne180100Ev, symObjAddr: 0xB840, symBinAddr: 0x10000CB0C, symSize: 0x40 }
  - { offset: 0x501E2, size: 0x8, addend: 0x0, symName: __ZNSt3__114__split_bufferIdRNS_9allocatorIdEEE17__destruct_at_endB8ne180100EPd, symObjAddr: 0xB880, symBinAddr: 0x10000CB4C, symSize: 0x2C }
  - { offset: 0x50216, size: 0x8, addend: 0x0, symName: __ZNSt3__114__split_bufferIdRNS_9allocatorIdEEE17__destruct_at_endB8ne180100EPdNS_17integral_constantIbLb0EEE, symObjAddr: 0xB8AC, symBinAddr: 0x10000CB78, symSize: 0x80 }
  - { offset: 0x50256, size: 0x8, addend: 0x0, symName: __ZNSt3__116allocator_traitsINS_9allocatorIdEEE7destroyB8ne180100IdvEEvRS2_PT_, symObjAddr: 0xB92C, symBinAddr: 0x10000CBF8, symSize: 0x2C }
  - { offset: 0x50293, size: 0x8, addend: 0x0, symName: __ZNSt3__19allocatorIdE7destroyB8ne180100EPd, symObjAddr: 0xB958, symBinAddr: 0x10000CC24, symSize: 0x14 }
  - { offset: 0x502C7, size: 0x8, addend: 0x0, symName: __ZNSt3__19allocatorIdE10deallocateB8ne180100EPdm, symObjAddr: 0xB96C, symBinAddr: 0x10000CC38, symSize: 0x40 }
  - { offset: 0x50309, size: 0x8, addend: 0x0, symName: __ZNKSt3__114__split_bufferIdRNS_9allocatorIdEEE9__end_capB8ne180100Ev, symObjAddr: 0xB9AC, symBinAddr: 0x10000CC78, symSize: 0x28 }
  - { offset: 0x5032F, size: 0x8, addend: 0x0, symName: __ZNKSt3__117__compressed_pairIPdRNS_9allocatorIdEEE5firstB8ne180100Ev, symObjAddr: 0xB9D4, symBinAddr: 0x10000CCA0, symSize: 0x24 }
  - { offset: 0x50355, size: 0x8, addend: 0x0, symName: __ZNSt3__112__hash_tableINS_17__hash_value_typeINS_12basic_stringIcNS_11char_traitsIcEENS_9allocatorIcEEEEdEENS_22__unordered_map_hasherIS7_S8_NS_4hashIS7_EENS_8equal_toIS7_EELb1EEENS_21__unordered_map_equalIS7_S8_SD_SB_Lb1EEENS5_IS8_EEE4findIS7_EENS_15__hash_iteratorIPNS_11__hash_nodeIS8_PvEEEERKT_, symObjAddr: 0xBA28, symBinAddr: 0x10000CCF4, symSize: 0x1B0 }
  - { offset: 0x503DF, size: 0x8, addend: 0x0, symName: __ZNSt3__119__hash_map_iteratorINS_15__hash_iteratorIPNS_11__hash_nodeINS_17__hash_value_typeINS_12basic_stringIcNS_11char_traitsIcEENS_9allocatorIcEEEEdEEPvEEEEEC1B8ne180100ESE_, symObjAddr: 0xBBD8, symBinAddr: 0x10000CEA4, symSize: 0x34 }
  - { offset: 0x50418, size: 0x8, addend: 0x0, symName: __ZNSt3__112__hash_tableINS_17__hash_value_typeINS_12basic_stringIcNS_11char_traitsIcEENS_9allocatorIcEEEEdEENS_22__unordered_map_hasherIS7_S8_NS_4hashIS7_EENS_8equal_toIS7_EELb1EEENS_21__unordered_map_equalIS7_S8_SD_SB_Lb1EEENS5_IS8_EEE13hash_functionB8ne180100Ev, symObjAddr: 0xBC0C, symBinAddr: 0x10000CED8, symSize: 0x28 }
  - { offset: 0x5043E, size: 0x8, addend: 0x0, symName: __ZNKSt3__122__unordered_map_hasherINS_12basic_stringIcNS_11char_traitsIcEENS_9allocatorIcEEEENS_17__hash_value_typeIS6_dEENS_4hashIS6_EENS_8equal_toIS6_EELb1EEclB8ne180100ERKS6_, symObjAddr: 0xBC34, symBinAddr: 0x10000CF00, symSize: 0x2C }
  - { offset: 0x50473, size: 0x8, addend: 0x0, symName: __ZNKSt3__112__hash_tableINS_17__hash_value_typeINS_12basic_stringIcNS_11char_traitsIcEENS_9allocatorIcEEEEdEENS_22__unordered_map_hasherIS7_S8_NS_4hashIS7_EENS_8equal_toIS7_EELb1EEENS_21__unordered_map_equalIS7_S8_SD_SB_Lb1EEENS5_IS8_EEE12bucket_countB8ne180100Ev, symObjAddr: 0xBC60, symBinAddr: 0x10000CF2C, symSize: 0x28 }
  - { offset: 0x50499, size: 0x8, addend: 0x0, symName: __ZNKSt3__110unique_ptrIA_PNS_16__hash_node_baseIPNS_11__hash_nodeINS_17__hash_value_typeINS_12basic_stringIcNS_11char_traitsIcEENS_9allocatorIcEEEEdEEPvEEEENS_25__bucket_list_deallocatorINS7_ISF_EEEEEixB8ne180100Em, symObjAddr: 0xBD20, symBinAddr: 0x10000CFEC, symSize: 0x34 }
  - { offset: 0x504CE, size: 0x8, addend: 0x0, symName: __ZNKSt3__116__hash_node_baseIPNS_11__hash_nodeINS_17__hash_value_typeINS_12basic_stringIcNS_11char_traitsIcEENS_9allocatorIcEEEEdEEPvEEE6__hashB8ne180100Ev, symObjAddr: 0xBD54, symBinAddr: 0x10000D020, symSize: 0x18 }
  - { offset: 0x504F4, size: 0x8, addend: 0x0, symName: __ZNSt3__112__hash_tableINS_17__hash_value_typeINS_12basic_stringIcNS_11char_traitsIcEENS_9allocatorIcEEEEdEENS_22__unordered_map_hasherIS7_S8_NS_4hashIS7_EENS_8equal_toIS7_EELb1EEENS_21__unordered_map_equalIS7_S8_SD_SB_Lb1EEENS5_IS8_EEE6key_eqB8ne180100Ev, symObjAddr: 0xBD6C, symBinAddr: 0x10000D038, symSize: 0x28 }
  - { offset: 0x5051A, size: 0x8, addend: 0x0, symName: __ZNKSt3__121__unordered_map_equalINS_12basic_stringIcNS_11char_traitsIcEENS_9allocatorIcEEEENS_17__hash_value_typeIS6_dEENS_8equal_toIS6_EENS_4hashIS6_EELb1EEclB8ne180100ERKS8_RKS6_, symObjAddr: 0xBD94, symBinAddr: 0x10000D060, symSize: 0x48 }
  - { offset: 0x5055E, size: 0x8, addend: 0x0, symName: __ZNSt3__116__hash_node_baseIPNS_11__hash_nodeINS_17__hash_value_typeINS_12basic_stringIcNS_11char_traitsIcEENS_9allocatorIcEEEEdEEPvEEE8__upcastB8ne180100Ev, symObjAddr: 0xBDDC, symBinAddr: 0x10000D0A8, symSize: 0x24 }
  - { offset: 0x50584, size: 0x8, addend: 0x0, symName: __ZNSt3__111__hash_nodeINS_17__hash_value_typeINS_12basic_stringIcNS_11char_traitsIcEENS_9allocatorIcEEEEdEEPvE11__get_valueB8ne180100Ev, symObjAddr: 0xBE00, symBinAddr: 0x10000D0CC, symSize: 0x18 }
  - { offset: 0x505AA, size: 0x8, addend: 0x0, symName: __ZNSt3__115__hash_iteratorIPNS_11__hash_nodeINS_17__hash_value_typeINS_12basic_stringIcNS_11char_traitsIcEENS_9allocatorIcEEEEdEEPvEEEC1B8ne180100EPNS_16__hash_node_baseISC_EE, symObjAddr: 0xBE18, symBinAddr: 0x10000D0E4, symSize: 0x34 }
  - { offset: 0x505E3, size: 0x8, addend: 0x0, symName: __ZNSt3__112__hash_tableINS_17__hash_value_typeINS_12basic_stringIcNS_11char_traitsIcEENS_9allocatorIcEEEEdEENS_22__unordered_map_hasherIS7_S8_NS_4hashIS7_EENS_8equal_toIS7_EELb1EEENS_21__unordered_map_equalIS7_S8_SD_SB_Lb1EEENS5_IS8_EEE3endEv, symObjAddr: 0xBE4C, symBinAddr: 0x10000D118, symSize: 0x2C }
  - { offset: 0x5060B, size: 0x8, addend: 0x0, symName: __ZNSt3__117__compressed_pairImNS_22__unordered_map_hasherINS_12basic_stringIcNS_11char_traitsIcEENS_9allocatorIcEEEENS_17__hash_value_typeIS7_dEENS_4hashIS7_EENS_8equal_toIS7_EELb1EEEE6secondB8ne180100Ev, symObjAddr: 0xBE78, symBinAddr: 0x10000D144, symSize: 0x24 }
  - { offset: 0x50631, size: 0x8, addend: 0x0, symName: __ZNSt3__122__compressed_pair_elemINS_22__unordered_map_hasherINS_12basic_stringIcNS_11char_traitsIcEENS_9allocatorIcEEEENS_17__hash_value_typeIS7_dEENS_4hashIS7_EENS_8equal_toIS7_EELb1EEELi1ELb1EE5__getB8ne180100Ev, symObjAddr: 0xBE9C, symBinAddr: 0x10000D168, symSize: 0x14 }
  - { offset: 0x50657, size: 0x8, addend: 0x0, symName: __ZNKSt3__113__string_hashIcNS_9allocatorIcEEEclB8ne180100ERKNS_12basic_stringIcNS_11char_traitsIcEES2_EE, symObjAddr: 0xBEB0, symBinAddr: 0x10000D17C, symSize: 0x64 }
  - { offset: 0x5068C, size: 0x8, addend: 0x0, symName: __ZNKSt3__121__murmur2_or_cityhashImLm64EEclB8ne180100EPKvm, symObjAddr: 0xBF50, symBinAddr: 0x10000D21C, symSize: 0x410 }
  - { offset: 0x50726, size: 0x8, addend: 0x0, symName: __ZNSt3__121__murmur2_or_cityhashImLm64EE18__hash_len_0_to_16B8ne180100EPKcm, symObjAddr: 0xC360, symBinAddr: 0x10000D62C, symSize: 0x1C8 }
  - { offset: 0x507FF, size: 0x8, addend: 0x0, symName: __ZNSt3__121__murmur2_or_cityhashImLm64EE19__hash_len_17_to_32B8ne180100EPKcm, symObjAddr: 0xC528, symBinAddr: 0x10000D7F4, symSize: 0x130 }
  - { offset: 0x50868, size: 0x8, addend: 0x0, symName: __ZNSt3__121__murmur2_or_cityhashImLm64EE19__hash_len_33_to_64B8ne180100EPKcm, symObjAddr: 0xC658, symBinAddr: 0x10000D924, symSize: 0x2B8 }
  - { offset: 0x5091A, size: 0x8, addend: 0x0, symName: __ZNSt3__121__murmur2_or_cityhashImLm64EE13__hash_len_16B8ne180100Emm, symObjAddr: 0xC930, symBinAddr: 0x10000DBFC, symSize: 0x80 }
  - { offset: 0x50975, size: 0x8, addend: 0x0, symName: __ZNSt3__121__murmur2_or_cityhashImLm64EE29__weak_hash_len_32_with_seedsB8ne180100EPKcmm, symObjAddr: 0xC9B0, symBinAddr: 0x10000DC7C, symSize: 0x88 }
  - { offset: 0x509B4, size: 0x8, addend: 0x0, symName: __ZNSt3__121__murmur2_or_cityhashImLm64EE8__rotateB8ne180100Emi, symObjAddr: 0xCA38, symBinAddr: 0x10000DD04, symSize: 0x64 }
  - { offset: 0x509E5, size: 0x8, addend: 0x0, symName: __ZNSt3__14pairImmEaSB8ne180100EOS1_, symObjAddr: 0xCA9C, symBinAddr: 0x10000DD68, symSize: 0x30 }
  - { offset: 0x50A1A, size: 0x8, addend: 0x0, symName: __ZNSt3__121__murmur2_or_cityhashImLm64EE11__shift_mixB8ne180100Em, symObjAddr: 0xCB08, symBinAddr: 0x10000DDD4, symSize: 0x1C }
  - { offset: 0x50A3D, size: 0x8, addend: 0x0, symName: __ZNSt3__121__murmur2_or_cityhashImLm64EE22__rotate_by_at_least_1B8ne180100Emi, symObjAddr: 0xCB24, symBinAddr: 0x10000DDF0, symSize: 0x38 }
  - { offset: 0x50A6E, size: 0x8, addend: 0x0, symName: __ZNSt3__121__murmur2_or_cityhashImLm64EE29__weak_hash_len_32_with_seedsB8ne180100Emmmmmm, symObjAddr: 0xCB7C, symBinAddr: 0x10000DE48, symSize: 0xD8 }
  - { offset: 0x50AEB, size: 0x8, addend: 0x0, symName: __ZNSt3__14pairImmEC1B8ne180100ImmLi0EEEOT_OT0_, symObjAddr: 0xCC54, symBinAddr: 0x10000DF20, symSize: 0x3C }
  - { offset: 0x50B49, size: 0x8, addend: 0x0, symName: __ZNSt3__14pairImmEC2B8ne180100ImmLi0EEEOT_OT0_, symObjAddr: 0xCC90, symBinAddr: 0x10000DF5C, symSize: 0x34 }
  - { offset: 0x50BA7, size: 0x8, addend: 0x0, symName: __ZNKSt3__110unique_ptrIA_PNS_16__hash_node_baseIPNS_11__hash_nodeINS_17__hash_value_typeINS_12basic_stringIcNS_11char_traitsIcEENS_9allocatorIcEEEEdEEPvEEEENS_25__bucket_list_deallocatorINS7_ISF_EEEEE11get_deleterB8ne180100Ev, symObjAddr: 0xCCC4, symBinAddr: 0x10000DF90, symSize: 0x24 }
  - { offset: 0x50BCD, size: 0x8, addend: 0x0, symName: __ZNKSt3__125__bucket_list_deallocatorINS_9allocatorIPNS_16__hash_node_baseIPNS_11__hash_nodeINS_17__hash_value_typeINS_12basic_stringIcNS_11char_traitsIcEENS1_IcEEEEdEEPvEEEEEEE4sizeB8ne180100Ev, symObjAddr: 0xCCE8, symBinAddr: 0x10000DFB4, symSize: 0x28 }
  - { offset: 0x50BF3, size: 0x8, addend: 0x0, symName: __ZNKSt3__117__compressed_pairIPPNS_16__hash_node_baseIPNS_11__hash_nodeINS_17__hash_value_typeINS_12basic_stringIcNS_11char_traitsIcEENS_9allocatorIcEEEEdEEPvEEEENS_25__bucket_list_deallocatorINS7_ISF_EEEEE6secondB8ne180100Ev, symObjAddr: 0xCD10, symBinAddr: 0x10000DFDC, symSize: 0x28 }
  - { offset: 0x50C19, size: 0x8, addend: 0x0, symName: __ZNKSt3__122__compressed_pair_elemINS_25__bucket_list_deallocatorINS_9allocatorIPNS_16__hash_node_baseIPNS_11__hash_nodeINS_17__hash_value_typeINS_12basic_stringIcNS_11char_traitsIcEENS2_IcEEEEdEEPvEEEEEEEELi1ELb0EE5__getB8ne180100Ev, symObjAddr: 0xCD38, symBinAddr: 0x10000E004, symSize: 0x14 }
  - { offset: 0x50C3F, size: 0x8, addend: 0x0, symName: __ZNKSt3__117__compressed_pairImNS_9allocatorIPNS_16__hash_node_baseIPNS_11__hash_nodeINS_17__hash_value_typeINS_12basic_stringIcNS_11char_traitsIcEENS1_IcEEEEdEEPvEEEEEEE5firstB8ne180100Ev, symObjAddr: 0xCD4C, symBinAddr: 0x10000E018, symSize: 0x24 }
  - { offset: 0x50C65, size: 0x8, addend: 0x0, symName: __ZNKSt3__122__compressed_pair_elemImLi0ELb0EE5__getB8ne180100Ev, symObjAddr: 0xCD70, symBinAddr: 0x10000E03C, symSize: 0x14 }
  - { offset: 0x50C8B, size: 0x8, addend: 0x0, symName: __ZNKSt3__117__compressed_pairIPPNS_16__hash_node_baseIPNS_11__hash_nodeINS_17__hash_value_typeINS_12basic_stringIcNS_11char_traitsIcEENS_9allocatorIcEEEEdEEPvEEEENS_25__bucket_list_deallocatorINS7_ISF_EEEEE5firstB8ne180100Ev, symObjAddr: 0xCD84, symBinAddr: 0x10000E050, symSize: 0x24 }
  - { offset: 0x50CB1, size: 0x8, addend: 0x0, symName: __ZNKSt3__122__compressed_pair_elemIPPNS_16__hash_node_baseIPNS_11__hash_nodeINS_17__hash_value_typeINS_12basic_stringIcNS_11char_traitsIcEENS_9allocatorIcEEEEdEEPvEEEELi0ELb0EE5__getB8ne180100Ev, symObjAddr: 0xCDA8, symBinAddr: 0x10000E074, symSize: 0x14 }
  - { offset: 0x50CD7, size: 0x8, addend: 0x0, symName: __ZNSt3__117__compressed_pairIfNS_21__unordered_map_equalINS_12basic_stringIcNS_11char_traitsIcEENS_9allocatorIcEEEENS_17__hash_value_typeIS7_dEENS_8equal_toIS7_EENS_4hashIS7_EELb1EEEE6secondB8ne180100Ev, symObjAddr: 0xCDBC, symBinAddr: 0x10000E088, symSize: 0x24 }
  - { offset: 0x50CFD, size: 0x8, addend: 0x0, symName: __ZNSt3__122__compressed_pair_elemINS_21__unordered_map_equalINS_12basic_stringIcNS_11char_traitsIcEENS_9allocatorIcEEEENS_17__hash_value_typeIS7_dEENS_8equal_toIS7_EENS_4hashIS7_EELb1EEELi1ELb1EE5__getB8ne180100Ev, symObjAddr: 0xCDE0, symBinAddr: 0x10000E0AC, symSize: 0x14 }
  - { offset: 0x50D23, size: 0x8, addend: 0x0, symName: __ZNKSt3__18equal_toINS_12basic_stringIcNS_11char_traitsIcEENS_9allocatorIcEEEEEclB8ne180100ERKS6_S9_, symObjAddr: 0xCDF4, symBinAddr: 0x10000E0C0, symSize: 0x34 }
  - { offset: 0x50D67, size: 0x8, addend: 0x0, symName: __ZNKSt3__117__hash_value_typeINS_12basic_stringIcNS_11char_traitsIcEENS_9allocatorIcEEEEdE11__get_valueB8ne180100Ev, symObjAddr: 0xCE28, symBinAddr: 0x10000E0F4, symSize: 0x24 }
  - { offset: 0x50D8D, size: 0x8, addend: 0x0, symName: __ZNSt3__111char_traitsIcE7compareB8ne180100EPKcS3_m, symObjAddr: 0xCF94, symBinAddr: 0x10000E260, symSize: 0x34 }
  - { offset: 0x50DCC, size: 0x8, addend: 0x0, symName: __ZNSt3__114pointer_traitsIPNS_16__hash_node_baseIPNS_11__hash_nodeINS_17__hash_value_typeINS_12basic_stringIcNS_11char_traitsIcEENS_9allocatorIcEEEEdEEPvEEEEE10pointer_toB8ne180100ERSE_, symObjAddr: 0xD000, symBinAddr: 0x10000E2CC, symSize: 0x14 }
  - { offset: 0x50DEF, size: 0x8, addend: 0x0, symName: __ZNSt3__115__hash_iteratorIPNS_11__hash_nodeINS_17__hash_value_typeINS_12basic_stringIcNS_11char_traitsIcEENS_9allocatorIcEEEEdEEPvEEEC2B8ne180100EPNS_16__hash_node_baseISC_EE, symObjAddr: 0xD014, symBinAddr: 0x10000E2E0, symSize: 0x20 }
  - { offset: 0x50E28, size: 0x8, addend: 0x0, symName: __ZNSt3__119__hash_map_iteratorINS_15__hash_iteratorIPNS_11__hash_nodeINS_17__hash_value_typeINS_12basic_stringIcNS_11char_traitsIcEENS_9allocatorIcEEEEdEEPvEEEEEC2B8ne180100ESE_, symObjAddr: 0xD034, symBinAddr: 0x10000E300, symSize: 0x20 }
  - { offset: 0x50E61, size: 0x8, addend: 0x0, symName: __ZNSt3__16vectorIdNS_9allocatorIdEEE22__construct_one_at_endB8ne180100IJRKdEEEvDpOT_, symObjAddr: 0xD054, symBinAddr: 0x10000E320, symSize: 0x90 }
  - { offset: 0x50EB0, size: 0x8, addend: 0x0, symName: __ZNSt3__16vectorIdNS_9allocatorIdEEE21__push_back_slow_pathIRKdEEPdOT_, symObjAddr: 0xD0E4, symBinAddr: 0x10000E3B0, symSize: 0xE8 }
  - { offset: 0x50F0E, size: 0x8, addend: 0x0, symName: __ZNSt3__116allocator_traitsINS_9allocatorIdEEE9constructB8ne180100IdJRKdEvEEvRS2_PT_DpOT0_, symObjAddr: 0xD1CC, symBinAddr: 0x10000E498, symSize: 0x34 }
  - { offset: 0x50F65, size: 0x8, addend: 0x0, symName: __ZNSt3__19allocatorIdE9constructB8ne180100IdJRKdEEEvPT_DpOT0_, symObjAddr: 0xD200, symBinAddr: 0x10000E4CC, symSize: 0x28 }
  - { offset: 0x50FD3, size: 0x8, addend: 0x0, symName: __ZNSt3__112__hash_tableINS_17__hash_value_typeINS_12basic_stringIcNS_11char_traitsIcEENS_9allocatorIcEEEEdEENS_22__unordered_map_hasherIS7_S8_NS_4hashIS7_EENS_8equal_toIS7_EELb1EEENS_21__unordered_map_equalIS7_S8_SD_SB_Lb1EEENS5_IS8_EEE25__emplace_unique_key_argsIS7_JRKNS_21piecewise_construct_tENS_5tupleIJRKS7_EEENSN_IJEEEEEENS_4pairINS_15__hash_iteratorIPNS_11__hash_nodeIS8_PvEEEEbEERKT_DpOT0_, symObjAddr: 0xD228, symBinAddr: 0x10000E4F4, symSize: 0x4B8 }
  - { offset: 0x510DD, size: 0x8, addend: 0x0, symName: __ZNKSt3__115__hash_iteratorIPNS_11__hash_nodeINS_17__hash_value_typeINS_12basic_stringIcNS_11char_traitsIcEENS_9allocatorIcEEEEdEEPvEEEptB8ne180100Ev, symObjAddr: 0xD710, symBinAddr: 0x10000E9DC, symSize: 0x30 }
  - { offset: 0x51103, size: 0x8, addend: 0x0, symName: __ZNSt3__117__hash_value_typeINS_12basic_stringIcNS_11char_traitsIcEENS_9allocatorIcEEEEdE11__get_valueB8ne180100Ev, symObjAddr: 0xD740, symBinAddr: 0x10000EA0C, symSize: 0x24 }
  - { offset: 0x51129, size: 0x8, addend: 0x0, symName: __ZNSt3__112__hash_tableINS_17__hash_value_typeINS_12basic_stringIcNS_11char_traitsIcEENS_9allocatorIcEEEEdEENS_22__unordered_map_hasherIS7_S8_NS_4hashIS7_EENS_8equal_toIS7_EELb1EEENS_21__unordered_map_equalIS7_S8_SD_SB_Lb1EEENS5_IS8_EEE21__construct_node_hashIRKNS_21piecewise_construct_tEJNS_5tupleIJRKS7_EEENSN_IJEEEEEENS_10unique_ptrINS_11__hash_nodeIS8_PvEENS_22__hash_node_destructorINS5_ISV_EEEEEEmOT_DpOT0_, symObjAddr: 0xD764, symBinAddr: 0x10000EA30, symSize: 0x14C }
  - { offset: 0x511C5, size: 0x8, addend: 0x0, symName: __ZNSt3__112__hash_tableINS_17__hash_value_typeINS_12basic_stringIcNS_11char_traitsIcEENS_9allocatorIcEEEEdEENS_22__unordered_map_hasherIS7_S8_NS_4hashIS7_EENS_8equal_toIS7_EELb1EEENS_21__unordered_map_equalIS7_S8_SD_SB_Lb1EEENS5_IS8_EEE4sizeB8ne180100Ev, symObjAddr: 0xD8B0, symBinAddr: 0x10000EB7C, symSize: 0x28 }
  - { offset: 0x511EB, size: 0x8, addend: 0x0, symName: __ZNSt3__112__hash_tableINS_17__hash_value_typeINS_12basic_stringIcNS_11char_traitsIcEENS_9allocatorIcEEEEdEENS_22__unordered_map_hasherIS7_S8_NS_4hashIS7_EENS_8equal_toIS7_EELb1EEENS_21__unordered_map_equalIS7_S8_SD_SB_Lb1EEENS5_IS8_EEE15max_load_factorB8ne180100Ev, symObjAddr: 0xD8D8, symBinAddr: 0x10000EBA4, symSize: 0x28 }
  - { offset: 0x51211, size: 0x8, addend: 0x0, symName: __ZNSt3__112__hash_tableINS_17__hash_value_typeINS_12basic_stringIcNS_11char_traitsIcEENS_9allocatorIcEEEEdEENS_22__unordered_map_hasherIS7_S8_NS_4hashIS7_EENS_8equal_toIS7_EELb1EEENS_21__unordered_map_equalIS7_S8_SD_SB_Lb1EEENS5_IS8_EEE15__rehash_uniqueB8ne180100Em, symObjAddr: 0xD900, symBinAddr: 0x10000EBCC, symSize: 0x2C }
  - { offset: 0x51246, size: 0x8, addend: 0x0, symName: __ZNSt3__117__compressed_pairINS_16__hash_node_baseIPNS_11__hash_nodeINS_17__hash_value_typeINS_12basic_stringIcNS_11char_traitsIcEENS_9allocatorIcEEEEdEEPvEEEENS7_ISC_EEE5firstB8ne180100Ev, symObjAddr: 0xD994, symBinAddr: 0x10000EC60, symSize: 0x24 }
  - { offset: 0x5126C, size: 0x8, addend: 0x0, symName: __ZNSt3__116__hash_node_baseIPNS_11__hash_nodeINS_17__hash_value_typeINS_12basic_stringIcNS_11char_traitsIcEENS_9allocatorIcEEEEdEEPvEEE5__ptrB8ne180100Ev, symObjAddr: 0xD9B8, symBinAddr: 0x10000EC84, symSize: 0x24 }
  - { offset: 0x51292, size: 0x8, addend: 0x0, symName: __ZNKSt3__110unique_ptrINS_11__hash_nodeINS_17__hash_value_typeINS_12basic_stringIcNS_11char_traitsIcEENS_9allocatorIcEEEEdEEPvEENS_22__hash_node_destructorINS6_ISB_EEEEEptB8ne180100Ev, symObjAddr: 0xD9DC, symBinAddr: 0x10000ECA8, symSize: 0x28 }
  - { offset: 0x512B8, size: 0x8, addend: 0x0, symName: __ZNKSt3__110unique_ptrINS_11__hash_nodeINS_17__hash_value_typeINS_12basic_stringIcNS_11char_traitsIcEENS_9allocatorIcEEEEdEEPvEENS_22__hash_node_destructorINS6_ISB_EEEEE3getB8ne180100Ev, symObjAddr: 0xDA04, symBinAddr: 0x10000ECD0, symSize: 0x28 }
  - { offset: 0x512DE, size: 0x8, addend: 0x0, symName: __ZNSt3__110unique_ptrINS_11__hash_nodeINS_17__hash_value_typeINS_12basic_stringIcNS_11char_traitsIcEENS_9allocatorIcEEEEdEEPvEENS_22__hash_node_destructorINS6_ISB_EEEEE7releaseB8ne180100Ev, symObjAddr: 0xDA2C, symBinAddr: 0x10000ECF8, symSize: 0x44 }
  - { offset: 0x51313, size: 0x8, addend: 0x0, symName: __ZNSt3__110unique_ptrINS_11__hash_nodeINS_17__hash_value_typeINS_12basic_stringIcNS_11char_traitsIcEENS_9allocatorIcEEEEdEEPvEENS_22__hash_node_destructorINS6_ISB_EEEEED1B8ne180100Ev, symObjAddr: 0xDA70, symBinAddr: 0x10000ED3C, symSize: 0x2C }
  - { offset: 0x51343, size: 0x8, addend: 0x0, symName: __ZNSt3__14pairINS_15__hash_iteratorIPNS_11__hash_nodeINS_17__hash_value_typeINS_12basic_stringIcNS_11char_traitsIcEENS_9allocatorIcEEEEdEEPvEEEEbEC1B8ne180100ISE_RbLi0EEEOT_OT0_, symObjAddr: 0xDA9C, symBinAddr: 0x10000ED68, symSize: 0x3C }
  - { offset: 0x513A1, size: 0x8, addend: 0x0, symName: __ZNSt3__112__hash_tableINS_17__hash_value_typeINS_12basic_stringIcNS_11char_traitsIcEENS_9allocatorIcEEEEdEENS_22__unordered_map_hasherIS7_S8_NS_4hashIS7_EENS_8equal_toIS7_EELb1EEENS_21__unordered_map_equalIS7_S8_SD_SB_Lb1EEENS5_IS8_EEE12__node_allocB8ne180100Ev, symObjAddr: 0xDAD8, symBinAddr: 0x10000EDA4, symSize: 0x28 }
  - { offset: 0x513C7, size: 0x8, addend: 0x0, symName: __ZNSt3__116allocator_traitsINS_9allocatorINS_11__hash_nodeINS_17__hash_value_typeINS_12basic_stringIcNS_11char_traitsIcEENS1_IcEEEEdEEPvEEEEE8allocateB8ne180100ERSC_m, symObjAddr: 0xDB00, symBinAddr: 0x10000EDCC, symSize: 0x2C }
  - { offset: 0x513FA, size: 0x8, addend: 0x0, symName: __ZNSt3__122__hash_node_destructorINS_9allocatorINS_11__hash_nodeINS_17__hash_value_typeINS_12basic_stringIcNS_11char_traitsIcEENS1_IcEEEEdEEPvEEEEEC1B8ne180100ERSC_b, symObjAddr: 0xDB2C, symBinAddr: 0x10000EDF8, symSize: 0x48 }
  - { offset: 0x51448, size: 0x8, addend: 0x0, symName: __ZNSt3__110unique_ptrINS_11__hash_nodeINS_17__hash_value_typeINS_12basic_stringIcNS_11char_traitsIcEENS_9allocatorIcEEEEdEEPvEENS_22__hash_node_destructorINS6_ISB_EEEEEC1B8ne180100ILb1EvEEPSB_NS_16__dependent_typeINS_27__unique_ptr_deleter_sfinaeISE_EEXT_EE20__good_rval_ref_typeE, symObjAddr: 0xDB74, symBinAddr: 0x10000EE40, symSize: 0x3C }
  - { offset: 0x51499, size: 0x8, addend: 0x0, symName: __ZNKSt3__110unique_ptrINS_11__hash_nodeINS_17__hash_value_typeINS_12basic_stringIcNS_11char_traitsIcEENS_9allocatorIcEEEEdEEPvEENS_22__hash_node_destructorINS6_ISB_EEEEEdeB8ne180100Ev, symObjAddr: 0xDBF0, symBinAddr: 0x10000EEBC, symSize: 0x28 }
  - { offset: 0x514BF, size: 0x8, addend: 0x0, symName: __ZNSt3__116allocator_traitsINS_9allocatorINS_11__hash_nodeINS_17__hash_value_typeINS_12basic_stringIcNS_11char_traitsIcEENS1_IcEEEEdEEPvEEEEE9constructB8ne180100INS_4pairIKS8_dEEJRKNS_21piecewise_construct_tENS_5tupleIJRSG_EEENSL_IJEEEEvEEvRSC_PT_DpOT0_, symObjAddr: 0xDC18, symBinAddr: 0x10000EEE4, symSize: 0x44 }
  - { offset: 0x5153E, size: 0x8, addend: 0x0, symName: __ZNSt3__122__hash_key_value_typesINS_17__hash_value_typeINS_12basic_stringIcNS_11char_traitsIcEENS_9allocatorIcEEEEdEEE9__get_ptrB8ne180100ERS8_, symObjAddr: 0xDC5C, symBinAddr: 0x10000EF28, symSize: 0x24 }
  - { offset: 0x51561, size: 0x8, addend: 0x0, symName: __ZNSt3__110unique_ptrINS_11__hash_nodeINS_17__hash_value_typeINS_12basic_stringIcNS_11char_traitsIcEENS_9allocatorIcEEEEdEEPvEENS_22__hash_node_destructorINS6_ISB_EEEEE11get_deleterB8ne180100Ev, symObjAddr: 0xDC80, symBinAddr: 0x10000EF4C, symSize: 0x24 }
  - { offset: 0x51587, size: 0x8, addend: 0x0, symName: __ZNSt3__117__compressed_pairINS_16__hash_node_baseIPNS_11__hash_nodeINS_17__hash_value_typeINS_12basic_stringIcNS_11char_traitsIcEENS_9allocatorIcEEEEdEEPvEEEENS7_ISC_EEE6secondB8ne180100Ev, symObjAddr: 0xDCA4, symBinAddr: 0x10000EF70, symSize: 0x24 }
  - { offset: 0x515AD, size: 0x8, addend: 0x0, symName: __ZNSt3__122__compressed_pair_elemINS_9allocatorINS_11__hash_nodeINS_17__hash_value_typeINS_12basic_stringIcNS_11char_traitsIcEENS1_IcEEEEdEEPvEEEELi1ELb1EE5__getB8ne180100Ev, symObjAddr: 0xDCC8, symBinAddr: 0x10000EF94, symSize: 0x14 }
  - { offset: 0x515D3, size: 0x8, addend: 0x0, symName: __ZNSt3__19allocatorINS_11__hash_nodeINS_17__hash_value_typeINS_12basic_stringIcNS_11char_traitsIcEENS0_IcEEEEdEEPvEEE8allocateB8ne180100Em, symObjAddr: 0xDCDC, symBinAddr: 0x10000EFA8, symSize: 0x5C }
  - { offset: 0x51612, size: 0x8, addend: 0x0, symName: __ZNSt3__116allocator_traitsINS_9allocatorINS_11__hash_nodeINS_17__hash_value_typeINS_12basic_stringIcNS_11char_traitsIcEENS1_IcEEEEdEEPvEEEEE8max_sizeB8ne180100ISC_vEEmRKSC_, symObjAddr: 0xDD38, symBinAddr: 0x10000F004, symSize: 0x24 }
  - { offset: 0x51640, size: 0x8, addend: 0x0, symName: __ZNKSt3__19allocatorINS_11__hash_nodeINS_17__hash_value_typeINS_12basic_stringIcNS_11char_traitsIcEENS0_IcEEEEdEEPvEEE8max_sizeB8ne180100Ev, symObjAddr: 0xDD5C, symBinAddr: 0x10000F028, symSize: 0x18 }
  - { offset: 0x51666, size: 0x8, addend: 0x0, symName: __ZNSt3__122__hash_node_destructorINS_9allocatorINS_11__hash_nodeINS_17__hash_value_typeINS_12basic_stringIcNS_11char_traitsIcEENS1_IcEEEEdEEPvEEEEEC2B8ne180100ERSC_b, symObjAddr: 0xDD74, symBinAddr: 0x10000F040, symSize: 0x38 }
  - { offset: 0x516AE, size: 0x8, addend: 0x0, symName: __ZNSt3__110unique_ptrINS_11__hash_nodeINS_17__hash_value_typeINS_12basic_stringIcNS_11char_traitsIcEENS_9allocatorIcEEEEdEEPvEENS_22__hash_node_destructorINS6_ISB_EEEEEC2B8ne180100ILb1EvEEPSB_NS_16__dependent_typeINS_27__unique_ptr_deleter_sfinaeISE_EEXT_EE20__good_rval_ref_typeE, symObjAddr: 0xDDAC, symBinAddr: 0x10000F078, symSize: 0x48 }
  - { offset: 0x516FF, size: 0x8, addend: 0x0, symName: __ZNSt3__117__compressed_pairIPNS_11__hash_nodeINS_17__hash_value_typeINS_12basic_stringIcNS_11char_traitsIcEENS_9allocatorIcEEEEdEEPvEENS_22__hash_node_destructorINS6_ISB_EEEEEC1B8ne180100IRSC_SF_EEOT_OT0_, symObjAddr: 0xDDF4, symBinAddr: 0x10000F0C0, symSize: 0x3C }
  - { offset: 0x51757, size: 0x8, addend: 0x0, symName: __ZNSt3__117__compressed_pairIPNS_11__hash_nodeINS_17__hash_value_typeINS_12basic_stringIcNS_11char_traitsIcEENS_9allocatorIcEEEEdEEPvEENS_22__hash_node_destructorINS6_ISB_EEEEEC2B8ne180100IRSC_SF_EEOT_OT0_, symObjAddr: 0xDE30, symBinAddr: 0x10000F0FC, symSize: 0x48 }
  - { offset: 0x517AF, size: 0x8, addend: 0x0, symName: __ZNSt3__122__compressed_pair_elemIPNS_11__hash_nodeINS_17__hash_value_typeINS_12basic_stringIcNS_11char_traitsIcEENS_9allocatorIcEEEEdEEPvEELi0ELb0EEC2B8ne180100IRSC_vEEOT_, symObjAddr: 0xDE78, symBinAddr: 0x10000F144, symSize: 0x24 }
  - { offset: 0x517F1, size: 0x8, addend: 0x0, symName: __ZNSt3__122__compressed_pair_elemINS_22__hash_node_destructorINS_9allocatorINS_11__hash_nodeINS_17__hash_value_typeINS_12basic_stringIcNS_11char_traitsIcEENS2_IcEEEEdEEPvEEEEEELi1ELb0EEC2B8ne180100ISE_vEEOT_, symObjAddr: 0xDE9C, symBinAddr: 0x10000F168, symSize: 0x24 }
  - { offset: 0x51833, size: 0x8, addend: 0x0, symName: __ZNSt3__111__hash_nodeINS_17__hash_value_typeINS_12basic_stringIcNS_11char_traitsIcEENS_9allocatorIcEEEEdEEPvEC1B8ne180100EPNS_16__hash_node_baseIPSA_EEm, symObjAddr: 0xDEC0, symBinAddr: 0x10000F18C, symSize: 0x3C }
  - { offset: 0x51879, size: 0x8, addend: 0x0, symName: __ZNSt3__111__hash_nodeINS_17__hash_value_typeINS_12basic_stringIcNS_11char_traitsIcEENS_9allocatorIcEEEEdEEPvEC2B8ne180100EPNS_16__hash_node_baseIPSA_EEm, symObjAddr: 0xDEFC, symBinAddr: 0x10000F1C8, symSize: 0x40 }
  - { offset: 0x518BF, size: 0x8, addend: 0x0, symName: __ZNSt3__116__hash_node_baseIPNS_11__hash_nodeINS_17__hash_value_typeINS_12basic_stringIcNS_11char_traitsIcEENS_9allocatorIcEEEEdEEPvEEEC2B8ne180100EPSD_, symObjAddr: 0xDF3C, symBinAddr: 0x10000F208, symSize: 0x20 }
  - { offset: 0x518F7, size: 0x8, addend: 0x0, symName: __ZNKSt3__117__compressed_pairIPNS_11__hash_nodeINS_17__hash_value_typeINS_12basic_stringIcNS_11char_traitsIcEENS_9allocatorIcEEEEdEEPvEENS_22__hash_node_destructorINS6_ISB_EEEEE5firstB8ne180100Ev, symObjAddr: 0xDF5C, symBinAddr: 0x10000F228, symSize: 0x24 }
  - { offset: 0x5191D, size: 0x8, addend: 0x0, symName: __ZNKSt3__122__compressed_pair_elemIPNS_11__hash_nodeINS_17__hash_value_typeINS_12basic_stringIcNS_11char_traitsIcEENS_9allocatorIcEEEEdEEPvEELi0ELb0EE5__getB8ne180100Ev, symObjAddr: 0xDF80, symBinAddr: 0x10000F24C, symSize: 0x14 }
  - { offset: 0x51943, size: 0x8, addend: 0x0, symName: __ZNSt3__19allocatorINS_11__hash_nodeINS_17__hash_value_typeINS_12basic_stringIcNS_11char_traitsIcEENS0_IcEEEEdEEPvEEE9constructB8ne180100INS_4pairIKS7_dEEJRKNS_21piecewise_construct_tENS_5tupleIJRSE_EEENSJ_IJEEEEEEvPT_DpOT0_, symObjAddr: 0xDF94, symBinAddr: 0x10000F260, symSize: 0x44 }
  - { offset: 0x519BF, size: 0x8, addend: 0x0, symName: __ZNSt3__14pairIKNS_12basic_stringIcNS_11char_traitsIcEENS_9allocatorIcEEEEdEC1B8ne180100IJRS7_EJEEENS_21piecewise_construct_tENS_5tupleIJDpT_EEENSC_IJDpT0_EEE, symObjAddr: 0xDFD8, symBinAddr: 0x10000F2A4, symSize: 0x3C }
  - { offset: 0x51A26, size: 0x8, addend: 0x0, symName: __ZNSt3__14pairIKNS_12basic_stringIcNS_11char_traitsIcEENS_9allocatorIcEEEEdEC1B8ne180100IJRS7_EJEJLm0EEJEEENS_21piecewise_construct_tERNS_5tupleIJDpT_EEERNSC_IJDpT0_EEENS_15__tuple_indicesIJXspT1_EEEENSL_IJXspT2_EEEE, symObjAddr: 0xE014, symBinAddr: 0x10000F2E0, symSize: 0x3C }
  - { offset: 0x51AB6, size: 0x8, addend: 0x0, symName: __ZNSt3__14pairIKNS_12basic_stringIcNS_11char_traitsIcEENS_9allocatorIcEEEEdEC2B8ne180100IJRS7_EJEJLm0EEJEEENS_21piecewise_construct_tERNS_5tupleIJDpT_EEERNSC_IJDpT0_EEENS_15__tuple_indicesIJXspT1_EEEENSL_IJXspT2_EEEE, symObjAddr: 0xE050, symBinAddr: 0x10000F31C, symSize: 0x4C }
  - { offset: 0x51B46, size: 0x8, addend: 0x0, symName: __ZNSt3__112__tuple_leafILm0ERKNS_12basic_stringIcNS_11char_traitsIcEENS_9allocatorIcEEEELb0EE3getB8ne180100Ev, symObjAddr: 0xE0C0, symBinAddr: 0x10000F38C, symSize: 0x18 }
  - { offset: 0x51B6C, size: 0x8, addend: 0x0, symName: __ZNSt3__117__compressed_pairIPNS_11__hash_nodeINS_17__hash_value_typeINS_12basic_stringIcNS_11char_traitsIcEENS_9allocatorIcEEEEdEEPvEENS_22__hash_node_destructorINS6_ISB_EEEEE6secondB8ne180100Ev, symObjAddr: 0xE0D8, symBinAddr: 0x10000F3A4, symSize: 0x28 }
  - { offset: 0x51B92, size: 0x8, addend: 0x0, symName: __ZNSt3__122__compressed_pair_elemINS_22__hash_node_destructorINS_9allocatorINS_11__hash_nodeINS_17__hash_value_typeINS_12basic_stringIcNS_11char_traitsIcEENS2_IcEEEEdEEPvEEEEEELi1ELb0EE5__getB8ne180100Ev, symObjAddr: 0xE100, symBinAddr: 0x10000F3CC, symSize: 0x14 }
  - { offset: 0x51BB8, size: 0x8, addend: 0x0, symName: __ZNSt3__117__compressed_pairImNS_22__unordered_map_hasherINS_12basic_stringIcNS_11char_traitsIcEENS_9allocatorIcEEEENS_17__hash_value_typeIS7_dEENS_4hashIS7_EENS_8equal_toIS7_EELb1EEEE5firstB8ne180100Ev, symObjAddr: 0xE114, symBinAddr: 0x10000F3E0, symSize: 0x24 }
  - { offset: 0x51BDE, size: 0x8, addend: 0x0, symName: __ZNSt3__122__compressed_pair_elemImLi0ELb0EE5__getB8ne180100Ev, symObjAddr: 0xE138, symBinAddr: 0x10000F404, symSize: 0x14 }
  - { offset: 0x51C04, size: 0x8, addend: 0x0, symName: __ZNSt3__117__compressed_pairIfNS_21__unordered_map_equalINS_12basic_stringIcNS_11char_traitsIcEENS_9allocatorIcEEEENS_17__hash_value_typeIS7_dEENS_8equal_toIS7_EENS_4hashIS7_EELb1EEEE5firstB8ne180100Ev, symObjAddr: 0xE14C, symBinAddr: 0x10000F418, symSize: 0x24 }
  - { offset: 0x51C2A, size: 0x8, addend: 0x0, symName: __ZNSt3__122__compressed_pair_elemIfLi0ELb0EE5__getB8ne180100Ev, symObjAddr: 0xE170, symBinAddr: 0x10000F43C, symSize: 0x14 }
  - { offset: 0x51C50, size: 0x8, addend: 0x0, symName: __ZNSt3__112__hash_tableINS_17__hash_value_typeINS_12basic_stringIcNS_11char_traitsIcEENS_9allocatorIcEEEEdEENS_22__unordered_map_hasherIS7_S8_NS_4hashIS7_EENS_8equal_toIS7_EELb1EEENS_21__unordered_map_equalIS7_S8_SD_SB_Lb1EEENS5_IS8_EEE8__rehashILb1EEEvm, symObjAddr: 0xE184, symBinAddr: 0x10000F450, symSize: 0x1A8 }
  - { offset: 0x51CA0, size: 0x8, addend: 0x0, symName: __ZNSt3__112__hash_tableINS_17__hash_value_typeINS_12basic_stringIcNS_11char_traitsIcEENS_9allocatorIcEEEEdEENS_22__unordered_map_hasherIS7_S8_NS_4hashIS7_EENS_8equal_toIS7_EELb1EEENS_21__unordered_map_equalIS7_S8_SD_SB_Lb1EEENS5_IS8_EEE11__do_rehashILb1EEEvm, symObjAddr: 0xE32C, symBinAddr: 0x10000F5F8, symSize: 0x288 }
  - { offset: 0x51D83, size: 0x8, addend: 0x0, symName: __ZNSt3__110unique_ptrIA_PNS_16__hash_node_baseIPNS_11__hash_nodeINS_17__hash_value_typeINS_12basic_stringIcNS_11char_traitsIcEENS_9allocatorIcEEEEdEEPvEEEENS_25__bucket_list_deallocatorINS7_ISF_EEEEE11get_deleterB8ne180100Ev, symObjAddr: 0xE620, symBinAddr: 0x10000F8EC, symSize: 0x24 }
  - { offset: 0x51DA9, size: 0x8, addend: 0x0, symName: __ZNSt3__125__bucket_list_deallocatorINS_9allocatorIPNS_16__hash_node_baseIPNS_11__hash_nodeINS_17__hash_value_typeINS_12basic_stringIcNS_11char_traitsIcEENS1_IcEEEEdEEPvEEEEEEE7__allocB8ne180100Ev, symObjAddr: 0xE644, symBinAddr: 0x10000F910, symSize: 0x24 }
  - { offset: 0x51DCF, size: 0x8, addend: 0x0, symName: __ZNSt3__110unique_ptrIA_PNS_16__hash_node_baseIPNS_11__hash_nodeINS_17__hash_value_typeINS_12basic_stringIcNS_11char_traitsIcEENS_9allocatorIcEEEEdEEPvEEEENS_25__bucket_list_deallocatorINS7_ISF_EEEEE5resetB8ne180100IPSF_Li0EEEvT_, symObjAddr: 0xE668, symBinAddr: 0x10000F934, symSize: 0x78 }
  - { offset: 0x51E22, size: 0x8, addend: 0x0, symName: __ZNSt3__116allocator_traitsINS_9allocatorIPNS_16__hash_node_baseIPNS_11__hash_nodeINS_17__hash_value_typeINS_12basic_stringIcNS_11char_traitsIcEENS1_IcEEEEdEEPvEEEEEEE8allocateB8ne180100ERSG_m, symObjAddr: 0xE6E0, symBinAddr: 0x10000F9AC, symSize: 0x2C }
  - { offset: 0x51E55, size: 0x8, addend: 0x0, symName: __ZNSt3__125__bucket_list_deallocatorINS_9allocatorIPNS_16__hash_node_baseIPNS_11__hash_nodeINS_17__hash_value_typeINS_12basic_stringIcNS_11char_traitsIcEENS1_IcEEEEdEEPvEEEEEEE4sizeB8ne180100Ev, symObjAddr: 0xE70C, symBinAddr: 0x10000F9D8, symSize: 0x24 }
  - { offset: 0x51E7B, size: 0x8, addend: 0x0, symName: __ZNSt3__117__compressed_pairIPPNS_16__hash_node_baseIPNS_11__hash_nodeINS_17__hash_value_typeINS_12basic_stringIcNS_11char_traitsIcEENS_9allocatorIcEEEEdEEPvEEEENS_25__bucket_list_deallocatorINS7_ISF_EEEEE6secondB8ne180100Ev, symObjAddr: 0xE730, symBinAddr: 0x10000F9FC, symSize: 0x28 }
  - { offset: 0x51EA1, size: 0x8, addend: 0x0, symName: __ZNSt3__122__compressed_pair_elemINS_25__bucket_list_deallocatorINS_9allocatorIPNS_16__hash_node_baseIPNS_11__hash_nodeINS_17__hash_value_typeINS_12basic_stringIcNS_11char_traitsIcEENS2_IcEEEEdEEPvEEEEEEEELi1ELb0EE5__getB8ne180100Ev, symObjAddr: 0xE758, symBinAddr: 0x10000FA24, symSize: 0x14 }
  - { offset: 0x51EC7, size: 0x8, addend: 0x0, symName: __ZNSt3__117__compressed_pairImNS_9allocatorIPNS_16__hash_node_baseIPNS_11__hash_nodeINS_17__hash_value_typeINS_12basic_stringIcNS_11char_traitsIcEENS1_IcEEEEdEEPvEEEEEEE6secondB8ne180100Ev, symObjAddr: 0xE76C, symBinAddr: 0x10000FA38, symSize: 0x24 }
  - { offset: 0x51EED, size: 0x8, addend: 0x0, symName: __ZNSt3__122__compressed_pair_elemINS_9allocatorIPNS_16__hash_node_baseIPNS_11__hash_nodeINS_17__hash_value_typeINS_12basic_stringIcNS_11char_traitsIcEENS1_IcEEEEdEEPvEEEEEELi1ELb1EE5__getB8ne180100Ev, symObjAddr: 0xE790, symBinAddr: 0x10000FA5C, symSize: 0x14 }
  - { offset: 0x51F13, size: 0x8, addend: 0x0, symName: __ZNSt3__117__compressed_pairIPPNS_16__hash_node_baseIPNS_11__hash_nodeINS_17__hash_value_typeINS_12basic_stringIcNS_11char_traitsIcEENS_9allocatorIcEEEEdEEPvEEEENS_25__bucket_list_deallocatorINS7_ISF_EEEEE5firstB8ne180100Ev, symObjAddr: 0xE7A4, symBinAddr: 0x10000FA70, symSize: 0x24 }
  - { offset: 0x51F39, size: 0x8, addend: 0x0, symName: __ZNSt3__125__bucket_list_deallocatorINS_9allocatorIPNS_16__hash_node_baseIPNS_11__hash_nodeINS_17__hash_value_typeINS_12basic_stringIcNS_11char_traitsIcEENS1_IcEEEEdEEPvEEEEEEEclB8ne180100EPSF_, symObjAddr: 0xE7C8, symBinAddr: 0x10000FA94, symSize: 0x58 }
  - { offset: 0x51F6E, size: 0x8, addend: 0x0, symName: __ZNSt3__122__compressed_pair_elemIPPNS_16__hash_node_baseIPNS_11__hash_nodeINS_17__hash_value_typeINS_12basic_stringIcNS_11char_traitsIcEENS_9allocatorIcEEEEdEEPvEEEELi0ELb0EE5__getB8ne180100Ev, symObjAddr: 0xE820, symBinAddr: 0x10000FAEC, symSize: 0x14 }
  - { offset: 0x51F94, size: 0x8, addend: 0x0, symName: __ZNSt3__116allocator_traitsINS_9allocatorIPNS_16__hash_node_baseIPNS_11__hash_nodeINS_17__hash_value_typeINS_12basic_stringIcNS_11char_traitsIcEENS1_IcEEEEdEEPvEEEEEEE10deallocateB8ne180100ERSG_PSF_m, symObjAddr: 0xE834, symBinAddr: 0x10000FB00, symSize: 0x34 }
  - { offset: 0x51FD6, size: 0x8, addend: 0x0, symName: __ZNSt3__19allocatorIPNS_16__hash_node_baseIPNS_11__hash_nodeINS_17__hash_value_typeINS_12basic_stringIcNS_11char_traitsIcEENS0_IcEEEEdEEPvEEEEE10deallocateB8ne180100EPSE_m, symObjAddr: 0xE868, symBinAddr: 0x10000FB34, symSize: 0x40 }
  - { offset: 0x52018, size: 0x8, addend: 0x0, symName: __ZNSt3__19allocatorIPNS_16__hash_node_baseIPNS_11__hash_nodeINS_17__hash_value_typeINS_12basic_stringIcNS_11char_traitsIcEENS0_IcEEEEdEEPvEEEEE8allocateB8ne180100Em, symObjAddr: 0xE8A8, symBinAddr: 0x10000FB74, symSize: 0x58 }
  - { offset: 0x52057, size: 0x8, addend: 0x0, symName: __ZNSt3__116allocator_traitsINS_9allocatorIPNS_16__hash_node_baseIPNS_11__hash_nodeINS_17__hash_value_typeINS_12basic_stringIcNS_11char_traitsIcEENS1_IcEEEEdEEPvEEEEEEE8max_sizeB8ne180100ISG_vEEmRKSG_, symObjAddr: 0xE900, symBinAddr: 0x10000FBCC, symSize: 0x24 }
  - { offset: 0x52085, size: 0x8, addend: 0x0, symName: __ZNKSt3__19allocatorIPNS_16__hash_node_baseIPNS_11__hash_nodeINS_17__hash_value_typeINS_12basic_stringIcNS_11char_traitsIcEENS0_IcEEEEdEEPvEEEEE8max_sizeB8ne180100Ev, symObjAddr: 0xE924, symBinAddr: 0x10000FBF0, symSize: 0x14 }
  - { offset: 0x520AB, size: 0x8, addend: 0x0, symName: __ZNSt3__117__compressed_pairImNS_9allocatorIPNS_16__hash_node_baseIPNS_11__hash_nodeINS_17__hash_value_typeINS_12basic_stringIcNS_11char_traitsIcEENS1_IcEEEEdEEPvEEEEEEE5firstB8ne180100Ev, symObjAddr: 0xE938, symBinAddr: 0x10000FC04, symSize: 0x24 }
  - { offset: 0x520D1, size: 0x8, addend: 0x0, symName: __ZNSt3__122__compressed_pair_elemINS_16__hash_node_baseIPNS_11__hash_nodeINS_17__hash_value_typeINS_12basic_stringIcNS_11char_traitsIcEENS_9allocatorIcEEEEdEEPvEEEELi0ELb0EE5__getB8ne180100Ev, symObjAddr: 0xE978, symBinAddr: 0x10000FC44, symSize: 0x14 }
  - { offset: 0x520F7, size: 0x8, addend: 0x0, symName: __ZNSt3__117__compressed_pairIPNS_11__hash_nodeINS_17__hash_value_typeINS_12basic_stringIcNS_11char_traitsIcEENS_9allocatorIcEEEEdEEPvEENS_22__hash_node_destructorINS6_ISB_EEEEE5firstB8ne180100Ev, symObjAddr: 0xE98C, symBinAddr: 0x10000FC58, symSize: 0x24 }
  - { offset: 0x5211D, size: 0x8, addend: 0x0, symName: __ZNSt3__122__compressed_pair_elemIPNS_11__hash_nodeINS_17__hash_value_typeINS_12basic_stringIcNS_11char_traitsIcEENS_9allocatorIcEEEEdEEPvEELi0ELb0EE5__getB8ne180100Ev, symObjAddr: 0xE9B0, symBinAddr: 0x10000FC7C, symSize: 0x14 }
  - { offset: 0x52143, size: 0x8, addend: 0x0, symName: __ZNSt3__110unique_ptrINS_11__hash_nodeINS_17__hash_value_typeINS_12basic_stringIcNS_11char_traitsIcEENS_9allocatorIcEEEEdEEPvEENS_22__hash_node_destructorINS6_ISB_EEEEED2B8ne180100Ev, symObjAddr: 0xE9C4, symBinAddr: 0x10000FC90, symSize: 0x30 }
  - { offset: 0x5216D, size: 0x8, addend: 0x0, symName: __ZNSt3__110unique_ptrINS_11__hash_nodeINS_17__hash_value_typeINS_12basic_stringIcNS_11char_traitsIcEENS_9allocatorIcEEEEdEEPvEENS_22__hash_node_destructorINS6_ISB_EEEEE5resetB8ne180100EPSB_, symObjAddr: 0xE9F4, symBinAddr: 0x10000FCC0, symSize: 0x78 }
  - { offset: 0x521B1, size: 0x8, addend: 0x0, symName: __ZNSt3__122__hash_node_destructorINS_9allocatorINS_11__hash_nodeINS_17__hash_value_typeINS_12basic_stringIcNS_11char_traitsIcEENS1_IcEEEEdEEPvEEEEEclB8ne180100EPSB_, symObjAddr: 0xEA6C, symBinAddr: 0x10000FD38, symSize: 0xA4 }
  - { offset: 0x521E6, size: 0x8, addend: 0x0, symName: __ZNSt3__116allocator_traitsINS_9allocatorINS_11__hash_nodeINS_17__hash_value_typeINS_12basic_stringIcNS_11char_traitsIcEENS1_IcEEEEdEEPvEEEEE7destroyB8ne180100INS_4pairIKS8_dEEvvEEvRSC_PT_, symObjAddr: 0xEB10, symBinAddr: 0x10000FDDC, symSize: 0x28 }
  - { offset: 0x52221, size: 0x8, addend: 0x0, symName: __ZNSt3__116allocator_traitsINS_9allocatorINS_11__hash_nodeINS_17__hash_value_typeINS_12basic_stringIcNS_11char_traitsIcEENS1_IcEEEEdEEPvEEEEE10deallocateB8ne180100ERSC_PSB_m, symObjAddr: 0xEB5C, symBinAddr: 0x10000FE28, symSize: 0x34 }
  - { offset: 0x52263, size: 0x8, addend: 0x0, symName: __ZNSt3__14pairIKNS_12basic_stringIcNS_11char_traitsIcEENS_9allocatorIcEEEEdED1Ev, symObjAddr: 0xEBB4, symBinAddr: 0x10000FE80, symSize: 0x2C }
  - { offset: 0x5228F, size: 0x8, addend: 0x0, symName: __ZNSt3__14pairIKNS_12basic_stringIcNS_11char_traitsIcEENS_9allocatorIcEEEEdED2Ev, symObjAddr: 0xEBE0, symBinAddr: 0x10000FEAC, symSize: 0x2C }
  - { offset: 0x522BB, size: 0x8, addend: 0x0, symName: __ZNSt3__111__hash_nodeINS_17__hash_value_typeINS_12basic_stringIcNS_11char_traitsIcEENS_9allocatorIcEEEEdEEPvED1B8ne180100Ev, symObjAddr: 0xEC0C, symBinAddr: 0x10000FED8, symSize: 0x2C }
  - { offset: 0x522E5, size: 0x8, addend: 0x0, symName: __ZNSt3__111__hash_nodeINS_17__hash_value_typeINS_12basic_stringIcNS_11char_traitsIcEENS_9allocatorIcEEEEdEEPvED2B8ne180100Ev, symObjAddr: 0xEC38, symBinAddr: 0x10000FF04, symSize: 0x14 }
  - { offset: 0x5230F, size: 0x8, addend: 0x0, symName: __ZNSt3__19allocatorINS_11__hash_nodeINS_17__hash_value_typeINS_12basic_stringIcNS_11char_traitsIcEENS0_IcEEEEdEEPvEEE10deallocateB8ne180100EPSA_m, symObjAddr: 0xEC4C, symBinAddr: 0x10000FF18, symSize: 0x44 }
  - { offset: 0x52351, size: 0x8, addend: 0x0, symName: __ZNSt3__14pairINS_15__hash_iteratorIPNS_11__hash_nodeINS_17__hash_value_typeINS_12basic_stringIcNS_11char_traitsIcEENS_9allocatorIcEEEEdEEPvEEEEbEC2B8ne180100ISE_RbLi0EEEOT_OT0_, symObjAddr: 0xEC90, symBinAddr: 0x10000FF5C, symSize: 0x38 }
  - { offset: 0x523AF, size: 0x8, addend: 0x0, symName: __ZNSt3__15tupleIJRKNS_12basic_stringIcNS_11char_traitsIcEENS_9allocatorIcEEEEEEC1B8ne180100INS_4_AndELi0EEES8_, symObjAddr: 0xECC8, symBinAddr: 0x10000FF94, symSize: 0x34 }
  - { offset: 0x523F7, size: 0x8, addend: 0x0, symName: __ZNSt3__15tupleIJRKNS_12basic_stringIcNS_11char_traitsIcEENS_9allocatorIcEEEEEEC2B8ne180100INS_4_AndELi0EEES8_, symObjAddr: 0xECFC, symBinAddr: 0x10000FFC8, symSize: 0x34 }
  - { offset: 0x5243F, size: 0x8, addend: 0x0, symName: __ZNSt3__112__tuple_implINS_15__tuple_indicesIJLm0EEEEJRKNS_12basic_stringIcNS_11char_traitsIcEENS_9allocatorIcEEEEEEC1B8ne180100IJLm0EEJSA_EJEJEJSA_EEENS1_IJXspT_EEEENS_13__tuple_typesIJDpT0_EEENS1_IJXspT1_EEEENSE_IJDpT2_EEEDpOT3_, symObjAddr: 0xED30, symBinAddr: 0x10000FFFC, symSize: 0x34 }
  - { offset: 0x524D4, size: 0x8, addend: 0x0, symName: __ZNSt3__112__tuple_implINS_15__tuple_indicesIJLm0EEEEJRKNS_12basic_stringIcNS_11char_traitsIcEENS_9allocatorIcEEEEEEC2B8ne180100IJLm0EEJSA_EJEJEJSA_EEENS1_IJXspT_EEEENS_13__tuple_typesIJDpT0_EEENS1_IJXspT1_EEEENSE_IJDpT2_EEEDpOT3_, symObjAddr: 0xED64, symBinAddr: 0x100010030, symSize: 0x34 }
  - { offset: 0x52569, size: 0x8, addend: 0x0, symName: __ZNSt3__112__tuple_leafILm0ERKNS_12basic_stringIcNS_11char_traitsIcEENS_9allocatorIcEEEELb0EEC2B8ne180100IS8_vEEOT_, symObjAddr: 0xED98, symBinAddr: 0x100010064, symSize: 0x20 }
  - { offset: 0x525AC, size: 0x8, addend: 0x0, symName: __ZNSt3__114pointer_traitsIPNS_17__hash_value_typeINS_12basic_stringIcNS_11char_traitsIcEENS_9allocatorIcEEEEdEEE10pointer_toB8ne180100ERS8_, symObjAddr: 0xEDB8, symBinAddr: 0x100010084, symSize: 0x14 }
  - { offset: 0x525CF, size: 0x8, addend: 0x0, symName: __ZNSt3__16vectorINS0_IdNS_9allocatorIdEEEENS1_IS3_EEE9__end_capB8ne180100Ev, symObjAddr: 0xEE04, symBinAddr: 0x1000100D0, symSize: 0x28 }
  - { offset: 0x525F5, size: 0x8, addend: 0x0, symName: __ZNSt3__16vectorINS0_IdNS_9allocatorIdEEEENS1_IS3_EEE22__construct_one_at_endB8ne180100IJRKS3_EEEvDpOT_, symObjAddr: 0xEE2C, symBinAddr: 0x1000100F8, symSize: 0x90 }
  - { offset: 0x52644, size: 0x8, addend: 0x0, symName: __ZNSt3__16vectorINS0_IdNS_9allocatorIdEEEENS1_IS3_EEE21__push_back_slow_pathIRKS3_EEPS3_OT_, symObjAddr: 0xEEBC, symBinAddr: 0x100010188, symSize: 0xE8 }
  - { offset: 0x526A2, size: 0x8, addend: 0x0, symName: __ZNSt3__117__compressed_pairIPNS_6vectorIdNS_9allocatorIdEEEENS2_IS4_EEE5firstB8ne180100Ev, symObjAddr: 0xEFA4, symBinAddr: 0x100010270, symSize: 0x24 }
  - { offset: 0x526C8, size: 0x8, addend: 0x0, symName: __ZNSt3__122__compressed_pair_elemIPNS_6vectorIdNS_9allocatorIdEEEELi0ELb0EE5__getB8ne180100Ev, symObjAddr: 0xEFC8, symBinAddr: 0x100010294, symSize: 0x14 }
  - { offset: 0x5270A, size: 0x8, addend: 0x0, symName: __ZNSt3__16vectorINS0_IdNS_9allocatorIdEEEENS1_IS3_EEE21_ConstructTransactionC1B8ne180100ERS5_m, symObjAddr: 0xEFDC, symBinAddr: 0x1000102A8, symSize: 0x3C }
  - { offset: 0x52752, size: 0x8, addend: 0x0, symName: __ZNSt3__116allocator_traitsINS_9allocatorINS_6vectorIdNS1_IdEEEEEEE9constructB8ne180100IS4_JRKS4_EvEEvRS5_PT_DpOT0_, symObjAddr: 0xF018, symBinAddr: 0x1000102E4, symSize: 0x34 }
  - { offset: 0x527A9, size: 0x8, addend: 0x0, symName: __ZNSt3__16vectorINS0_IdNS_9allocatorIdEEEENS1_IS3_EEE7__allocB8ne180100Ev, symObjAddr: 0xF04C, symBinAddr: 0x100010318, symSize: 0x28 }
  - { offset: 0x527CF, size: 0x8, addend: 0x0, symName: __ZNSt3__16vectorINS0_IdNS_9allocatorIdEEEENS1_IS3_EEE21_ConstructTransactionD1B8ne180100Ev, symObjAddr: 0xF088, symBinAddr: 0x100010354, symSize: 0x2C }
  - { offset: 0x527F9, size: 0x8, addend: 0x0, symName: __ZNSt3__16vectorINS0_IdNS_9allocatorIdEEEENS1_IS3_EEE21_ConstructTransactionC2B8ne180100ERS5_m, symObjAddr: 0xF0B4, symBinAddr: 0x100010380, symSize: 0x4C }
  - { offset: 0x52841, size: 0x8, addend: 0x0, symName: __ZNSt3__19allocatorINS_6vectorIdNS0_IdEEEEE9constructB8ne180100IS3_JRKS3_EEEvPT_DpOT0_, symObjAddr: 0xF100, symBinAddr: 0x1000103CC, symSize: 0x30 }
  - { offset: 0x52897, size: 0x8, addend: 0x0, symName: __ZNSt3__16vectorIdNS_9allocatorIdEEEC1ERKS3_, symObjAddr: 0xF130, symBinAddr: 0x1000103FC, symSize: 0x34 }
  - { offset: 0x528D2, size: 0x8, addend: 0x0, symName: __ZNSt3__16vectorIdNS_9allocatorIdEEEC2ERKS3_, symObjAddr: 0xF164, symBinAddr: 0x100010430, symSize: 0x94 }
  - { offset: 0x5290D, size: 0x8, addend: 0x0, symName: __ZNSt3__116allocator_traitsINS_9allocatorIdEEE37select_on_container_copy_constructionB8ne180100IS2_vvEES2_RKS2_, symObjAddr: 0xF1F8, symBinAddr: 0x1000104C4, symSize: 0x10 }
  - { offset: 0x52942, size: 0x8, addend: 0x0, symName: __ZNSt3__117__compressed_pairIPdNS_9allocatorIdEEEC1B8ne180100IDnS3_EEOT_OT0_, symObjAddr: 0xF208, symBinAddr: 0x1000104D4, symSize: 0x3C }
  - { offset: 0x5299A, size: 0x8, addend: 0x0, symName: __ZNSt3__16vectorIdNS_9allocatorIdEEE16__init_with_sizeB8ne180100IPdS5_EEvT_T0_m, symObjAddr: 0xF244, symBinAddr: 0x100010510, symSize: 0xB8 }
  - { offset: 0x52A0E, size: 0x8, addend: 0x0, symName: __ZNSt3__117__compressed_pairIPdNS_9allocatorIdEEEC2B8ne180100IDnS3_EEOT_OT0_, symObjAddr: 0xF2FC, symBinAddr: 0x1000105C8, symSize: 0x44 }
  - { offset: 0x52A66, size: 0x8, addend: 0x0, symName: __ZNSt3__122__compressed_pair_elemINS_9allocatorIdEELi1ELb1EEC2B8ne180100IS2_vEEOT_, symObjAddr: 0xF340, symBinAddr: 0x10001060C, symSize: 0x18 }
  - { offset: 0x52AA8, size: 0x8, addend: 0x0, symName: __ZNSt3__16vectorIdNS_9allocatorIdEEE16__destroy_vectorC1B8ne180100ERS3_, symObjAddr: 0xF398, symBinAddr: 0x100010664, symSize: 0x34 }
  - { offset: 0x52AE1, size: 0x8, addend: 0x0, symName: __ZNSt3__16vectorIdNS_9allocatorIdEEE11__vallocateB8ne180100Em, symObjAddr: 0xF3CC, symBinAddr: 0x100010698, symSize: 0xAC }
  - { offset: 0x52B25, size: 0x8, addend: 0x0, symName: __ZNSt3__16vectorIdNS_9allocatorIdEEE18__construct_at_endIPdS5_EEvT_T0_m, symObjAddr: 0xF478, symBinAddr: 0x100010744, symSize: 0x8C }
  - { offset: 0x52B9B, size: 0x8, addend: 0x0, symName: __ZNSt3__128__exception_guard_exceptionsINS_6vectorIdNS_9allocatorIdEEE16__destroy_vectorEE10__completeB8ne180100Ev, symObjAddr: 0xF504, symBinAddr: 0x1000107D0, symSize: 0x1C }
  - { offset: 0x52BC1, size: 0x8, addend: 0x0, symName: __ZNSt3__128__exception_guard_exceptionsINS_6vectorIdNS_9allocatorIdEEE16__destroy_vectorEED1B8ne180100Ev, symObjAddr: 0xF520, symBinAddr: 0x1000107EC, symSize: 0x2C }
  - { offset: 0x52BEB, size: 0x8, addend: 0x0, symName: __ZNSt3__128__exception_guard_exceptionsINS_6vectorIdNS_9allocatorIdEEE16__destroy_vectorEEC1B8ne180100ES5_, symObjAddr: 0xF54C, symBinAddr: 0x100010818, symSize: 0x34 }
  - { offset: 0x52C23, size: 0x8, addend: 0x0, symName: __ZNSt3__128__exception_guard_exceptionsINS_6vectorIdNS_9allocatorIdEEE16__destroy_vectorEEC2B8ne180100ES5_, symObjAddr: 0xF580, symBinAddr: 0x10001084C, symSize: 0x24 }
  - { offset: 0x52C5B, size: 0x8, addend: 0x0, symName: __ZNSt3__16vectorIdNS_9allocatorIdEEE16__destroy_vectorC2B8ne180100ERS3_, symObjAddr: 0xF5A4, symBinAddr: 0x100010870, symSize: 0x20 }
  - { offset: 0x52CB7, size: 0x8, addend: 0x0, symName: __ZNSt3__14pairIPdS1_EC1B8ne180100IS1_S1_Li0EEEOT_OT0_, symObjAddr: 0xF774, symBinAddr: 0x100010A40, symSize: 0x3C }
  - { offset: 0x52D15, size: 0x8, addend: 0x0, symName: __ZNSt3__14pairIPdS1_EC2B8ne180100IS1_S1_Li0EEEOT_OT0_, symObjAddr: 0xF7B0, symBinAddr: 0x100010A7C, symSize: 0x34 }
  - { offset: 0x52D73, size: 0x8, addend: 0x0, symName: __ZNKSt3__114__copy_trivialclB8ne180100IddLi0EEENS_4pairIPT_PT0_EES4_S4_S6_, symObjAddr: 0xF960, symBinAddr: 0x100010C2C, symSize: 0x48 }
  - { offset: 0x52DDB, size: 0x8, addend: 0x0, symName: __ZNSt3__14pairIPdS1_EC1B8ne180100IRS1_S1_Li0EEEOT_OT0_, symObjAddr: 0xFAF0, symBinAddr: 0x100010DBC, symSize: 0x3C }
  - { offset: 0x52E39, size: 0x8, addend: 0x0, symName: __ZNSt3__14pairIPdS1_EC2B8ne180100IRS1_S1_Li0EEEOT_OT0_, symObjAddr: 0xFB2C, symBinAddr: 0x100010DF8, symSize: 0x34 }
  - { offset: 0x52E97, size: 0x8, addend: 0x0, symName: __ZNSt3__118__unwrap_iter_implIPdLb1EE8__unwrapB8ne180100ES1_, symObjAddr: 0xFB60, symBinAddr: 0x100010E2C, symSize: 0x24 }
  - { offset: 0x52EBA, size: 0x8, addend: 0x0, symName: __ZNSt3__118__unwrap_iter_implIPdLb1EE8__rewrapB8ne180100ES1_S1_, symObjAddr: 0xFB84, symBinAddr: 0x100010E50, symSize: 0x50 }
  - { offset: 0x52EEB, size: 0x8, addend: 0x0, symName: __ZNSt3__128__exception_guard_exceptionsINS_6vectorIdNS_9allocatorIdEEE16__destroy_vectorEED2B8ne180100Ev, symObjAddr: 0xFBD4, symBinAddr: 0x100010EA0, symSize: 0x50 }
  - { offset: 0x52F15, size: 0x8, addend: 0x0, symName: __ZNSt3__16vectorIdNS_9allocatorIdEEE16__destroy_vectorclB8ne180100Ev, symObjAddr: 0xFC24, symBinAddr: 0x100010EF0, symSize: 0x90 }
  - { offset: 0x52F3B, size: 0x8, addend: 0x0, symName: __ZNSt3__16vectorIdNS_9allocatorIdEEE7__clearB8ne180100Ev, symObjAddr: 0xFCB4, symBinAddr: 0x100010F80, symSize: 0x28 }
  - { offset: 0x52F61, size: 0x8, addend: 0x0, symName: __ZNSt3__16vectorIdNS_9allocatorIdEEE22__base_destruct_at_endB8ne180100EPd, symObjAddr: 0xFCDC, symBinAddr: 0x100010FA8, symSize: 0x8C }
  - { offset: 0x52FA5, size: 0x8, addend: 0x0, symName: __ZNSt3__117__compressed_pairIPNS_6vectorIdNS_9allocatorIdEEEENS2_IS4_EEE6secondB8ne180100Ev, symObjAddr: 0xFD68, symBinAddr: 0x100011034, symSize: 0x24 }
  - { offset: 0x52FCB, size: 0x8, addend: 0x0, symName: __ZNSt3__122__compressed_pair_elemINS_9allocatorINS_6vectorIdNS1_IdEEEEEELi1ELb1EE5__getB8ne180100Ev, symObjAddr: 0xFD8C, symBinAddr: 0x100011058, symSize: 0x14 }
  - { offset: 0x52FF1, size: 0x8, addend: 0x0, symName: __ZNSt3__16vectorINS0_IdNS_9allocatorIdEEEENS1_IS3_EEE21_ConstructTransactionD2B8ne180100Ev, symObjAddr: 0xFDA0, symBinAddr: 0x10001106C, symSize: 0x20 }
  - { offset: 0x5301B, size: 0x8, addend: 0x0, symName: __ZNKSt3__16vectorINS0_IdNS_9allocatorIdEEEENS1_IS3_EEE11__recommendB8ne180100Em, symObjAddr: 0xFDC0, symBinAddr: 0x10001108C, symSize: 0xB4 }
  - { offset: 0x53070, size: 0x8, addend: 0x0, symName: __ZNKSt3__16vectorINS0_IdNS_9allocatorIdEEEENS1_IS3_EEE4sizeB8ne180100Ev, symObjAddr: 0xFE74, symBinAddr: 0x100011140, symSize: 0x28 }
  - { offset: 0x53096, size: 0x8, addend: 0x0, symName: __ZNSt3__114__split_bufferINS_6vectorIdNS_9allocatorIdEEEERNS2_IS4_EEEC1EmmS6_, symObjAddr: 0xFE9C, symBinAddr: 0x100011168, symSize: 0x44 }
  - { offset: 0x530EC, size: 0x8, addend: 0x0, symName: __ZNSt3__114__split_bufferINS_6vectorIdNS_9allocatorIdEEEERNS2_IS4_EEED1Ev, symObjAddr: 0xFFF0, symBinAddr: 0x1000112BC, symSize: 0x2C }
  - { offset: 0x53118, size: 0x8, addend: 0x0, symName: __ZNKSt3__16vectorINS0_IdNS_9allocatorIdEEEENS1_IS3_EEE8max_sizeEv, symObjAddr: 0x1001C, symBinAddr: 0x1000112E8, symSize: 0x60 }
  - { offset: 0x53140, size: 0x8, addend: 0x0, symName: __ZNKSt3__16vectorINS0_IdNS_9allocatorIdEEEENS1_IS3_EEE20__throw_length_errorB8ne180100Ev, symObjAddr: 0x1007C, symBinAddr: 0x100011348, symSize: 0x1C }
  - { offset: 0x53166, size: 0x8, addend: 0x0, symName: __ZNKSt3__16vectorINS0_IdNS_9allocatorIdEEEENS1_IS3_EEE8capacityB8ne180100Ev, symObjAddr: 0x10098, symBinAddr: 0x100011364, symSize: 0x40 }
  - { offset: 0x53197, size: 0x8, addend: 0x0, symName: __ZNSt3__116allocator_traitsINS_9allocatorINS_6vectorIdNS1_IdEEEEEEE8max_sizeB8ne180100IS5_vEEmRKS5_, symObjAddr: 0x100D8, symBinAddr: 0x1000113A4, symSize: 0x24 }
  - { offset: 0x531C5, size: 0x8, addend: 0x0, symName: __ZNKSt3__16vectorINS0_IdNS_9allocatorIdEEEENS1_IS3_EEE7__allocB8ne180100Ev, symObjAddr: 0x100FC, symBinAddr: 0x1000113C8, symSize: 0x28 }
  - { offset: 0x531EB, size: 0x8, addend: 0x0, symName: __ZNKSt3__19allocatorINS_6vectorIdNS0_IdEEEEE8max_sizeB8ne180100Ev, symObjAddr: 0x10124, symBinAddr: 0x1000113F0, symSize: 0x18 }
  - { offset: 0x53211, size: 0x8, addend: 0x0, symName: __ZNKSt3__117__compressed_pairIPNS_6vectorIdNS_9allocatorIdEEEENS2_IS4_EEE6secondB8ne180100Ev, symObjAddr: 0x1013C, symBinAddr: 0x100011408, symSize: 0x24 }
  - { offset: 0x53237, size: 0x8, addend: 0x0, symName: __ZNKSt3__122__compressed_pair_elemINS_9allocatorINS_6vectorIdNS1_IdEEEEEELi1ELb1EE5__getB8ne180100Ev, symObjAddr: 0x10160, symBinAddr: 0x10001142C, symSize: 0x14 }
  - { offset: 0x5325D, size: 0x8, addend: 0x0, symName: __ZNKSt3__16vectorINS0_IdNS_9allocatorIdEEEENS1_IS3_EEE9__end_capB8ne180100Ev, symObjAddr: 0x10174, symBinAddr: 0x100011440, symSize: 0x28 }
  - { offset: 0x53283, size: 0x8, addend: 0x0, symName: __ZNKSt3__117__compressed_pairIPNS_6vectorIdNS_9allocatorIdEEEENS2_IS4_EEE5firstB8ne180100Ev, symObjAddr: 0x1019C, symBinAddr: 0x100011468, symSize: 0x24 }
  - { offset: 0x532A9, size: 0x8, addend: 0x0, symName: __ZNKSt3__122__compressed_pair_elemIPNS_6vectorIdNS_9allocatorIdEEEELi0ELb0EE5__getB8ne180100Ev, symObjAddr: 0x101C0, symBinAddr: 0x10001148C, symSize: 0x14 }
  - { offset: 0x532CF, size: 0x8, addend: 0x0, symName: __ZNSt3__114__split_bufferINS_6vectorIdNS_9allocatorIdEEEERNS2_IS4_EEEC2EmmS6_, symObjAddr: 0x101D4, symBinAddr: 0x1000114A0, symSize: 0xE0 }
  - { offset: 0x53342, size: 0x8, addend: 0x0, symName: __ZNSt3__117__compressed_pairIPNS_6vectorIdNS_9allocatorIdEEEERNS2_IS4_EEEC1B8ne180100IDnS7_EEOT_OT0_, symObjAddr: 0x102B4, symBinAddr: 0x100011580, symSize: 0x3C }
  - { offset: 0x5339A, size: 0x8, addend: 0x0, symName: __ZNSt3__114__split_bufferINS_6vectorIdNS_9allocatorIdEEEERNS2_IS4_EEE7__allocB8ne180100Ev, symObjAddr: 0x10330, symBinAddr: 0x1000115FC, symSize: 0x28 }
  - { offset: 0x533C0, size: 0x8, addend: 0x0, symName: __ZNSt3__114__split_bufferINS_6vectorIdNS_9allocatorIdEEEERNS2_IS4_EEE9__end_capB8ne180100Ev, symObjAddr: 0x10358, symBinAddr: 0x100011624, symSize: 0x28 }
  - { offset: 0x533E6, size: 0x8, addend: 0x0, symName: __ZNSt3__117__compressed_pairIPNS_6vectorIdNS_9allocatorIdEEEERNS2_IS4_EEEC2B8ne180100IDnS7_EEOT_OT0_, symObjAddr: 0x10380, symBinAddr: 0x10001164C, symSize: 0x48 }
  - { offset: 0x5343E, size: 0x8, addend: 0x0, symName: __ZNSt3__122__compressed_pair_elemIRNS_9allocatorINS_6vectorIdNS1_IdEEEEEELi1ELb0EEC2B8ne180100IS6_vEEOT_, symObjAddr: 0x103C8, symBinAddr: 0x100011694, symSize: 0x20 }
  - { offset: 0x53480, size: 0x8, addend: 0x0, symName: __ZNSt3__19allocatorINS_6vectorIdNS0_IdEEEEE8allocateB8ne180100Em, symObjAddr: 0x103E8, symBinAddr: 0x1000116B4, symSize: 0x5C }
  - { offset: 0x534B4, size: 0x8, addend: 0x0, symName: __ZNSt3__117__compressed_pairIPNS_6vectorIdNS_9allocatorIdEEEERNS2_IS4_EEE6secondB8ne180100Ev, symObjAddr: 0x10444, symBinAddr: 0x100011710, symSize: 0x28 }
  - { offset: 0x534DA, size: 0x8, addend: 0x0, symName: __ZNSt3__122__compressed_pair_elemIRNS_9allocatorINS_6vectorIdNS1_IdEEEEEELi1ELb0EE5__getB8ne180100Ev, symObjAddr: 0x1046C, symBinAddr: 0x100011738, symSize: 0x18 }
  - { offset: 0x53500, size: 0x8, addend: 0x0, symName: __ZNSt3__117__compressed_pairIPNS_6vectorIdNS_9allocatorIdEEEERNS2_IS4_EEE5firstB8ne180100Ev, symObjAddr: 0x10484, symBinAddr: 0x100011750, symSize: 0x24 }
  - { offset: 0x53526, size: 0x8, addend: 0x0, symName: __ZNKSt3__16vectorINS0_IdNS_9allocatorIdEEEENS1_IS3_EEE17__annotate_deleteB8ne180100Ev, symObjAddr: 0x104A8, symBinAddr: 0x100011774, symSize: 0x10 }
  - { offset: 0x5354C, size: 0x8, addend: 0x0, symName: __ZNSt3__116reverse_iteratorIPNS_6vectorIdNS_9allocatorIdEEEEEC1B8ne180100ES5_, symObjAddr: 0x105E4, symBinAddr: 0x1000118B0, symSize: 0x34 }
  - { offset: 0x53584, size: 0x8, addend: 0x0, symName: __ZNKSt3__116reverse_iteratorIPNS_6vectorIdNS_9allocatorIdEEEEE4baseB8ne180100Ev, symObjAddr: 0x10618, symBinAddr: 0x1000118E4, symSize: 0x18 }
  - { offset: 0x535AA, size: 0x8, addend: 0x0, symName: __ZNKSt3__16vectorINS0_IdNS_9allocatorIdEEEENS1_IS3_EEE14__annotate_newB8ne180100Em, symObjAddr: 0x1066C, symBinAddr: 0x100011938, symSize: 0x14 }
  - { offset: 0x535DF, size: 0x8, addend: 0x0, symName: __ZNSt3__129_AllocatorDestroyRangeReverseINS_9allocatorINS_6vectorIdNS1_IdEEEEEENS_16reverse_iteratorIPS4_EEEC1B8ne180100ERS5_RS8_SB_, symObjAddr: 0x106CC, symBinAddr: 0x100011998, symSize: 0x44 }
  - { offset: 0x53636, size: 0x8, addend: 0x0, symName: __ZNSt3__116allocator_traitsINS_9allocatorINS_6vectorIdNS1_IdEEEEEEE9constructB8ne180100IS4_JS4_EvEEvRS5_PT_DpOT0_, symObjAddr: 0x10758, symBinAddr: 0x100011A24, symSize: 0x34 }
  - { offset: 0x5368D, size: 0x8, addend: 0x0, symName: __ZNKSt3__116reverse_iteratorIPNS_6vectorIdNS_9allocatorIdEEEEEdeB8ne180100Ev, symObjAddr: 0x107B0, symBinAddr: 0x100011A7C, symSize: 0x28 }
  - { offset: 0x536C1, size: 0x8, addend: 0x0, symName: __ZNSt3__116reverse_iteratorIPNS_6vectorIdNS_9allocatorIdEEEEEppB8ne180100Ev, symObjAddr: 0x107D8, symBinAddr: 0x100011AA4, symSize: 0x20 }
  - { offset: 0x536E7, size: 0x8, addend: 0x0, symName: __ZNSt3__128__exception_guard_exceptionsINS_29_AllocatorDestroyRangeReverseINS_9allocatorINS_6vectorIdNS2_IdEEEEEENS_16reverse_iteratorIPS5_EEEEE10__completeB8ne180100Ev, symObjAddr: 0x107F8, symBinAddr: 0x100011AC4, symSize: 0x1C }
  - { offset: 0x5370D, size: 0x8, addend: 0x0, symName: __ZNSt3__128__exception_guard_exceptionsINS_29_AllocatorDestroyRangeReverseINS_9allocatorINS_6vectorIdNS2_IdEEEEEENS_16reverse_iteratorIPS5_EEEEED1B8ne180100Ev, symObjAddr: 0x10814, symBinAddr: 0x100011AE0, symSize: 0x2C }
  - { offset: 0x53737, size: 0x8, addend: 0x0, symName: __ZNSt3__128__exception_guard_exceptionsINS_29_AllocatorDestroyRangeReverseINS_9allocatorINS_6vectorIdNS2_IdEEEEEENS_16reverse_iteratorIPS5_EEEEEC1B8ne180100ESA_, symObjAddr: 0x10840, symBinAddr: 0x100011B0C, symSize: 0x34 }
  - { offset: 0x53770, size: 0x8, addend: 0x0, symName: __ZNSt3__128__exception_guard_exceptionsINS_29_AllocatorDestroyRangeReverseINS_9allocatorINS_6vectorIdNS2_IdEEEEEENS_16reverse_iteratorIPS5_EEEEEC2B8ne180100ESA_, symObjAddr: 0x10874, symBinAddr: 0x100011B40, symSize: 0x30 }
  - { offset: 0x537A9, size: 0x8, addend: 0x0, symName: __ZNSt3__129_AllocatorDestroyRangeReverseINS_9allocatorINS_6vectorIdNS1_IdEEEEEENS_16reverse_iteratorIPS4_EEEC2B8ne180100ERS5_RS8_SB_, symObjAddr: 0x108A4, symBinAddr: 0x100011B70, symSize: 0x38 }
  - { offset: 0x53800, size: 0x8, addend: 0x0, symName: __ZNSt3__19allocatorINS_6vectorIdNS0_IdEEEEE9constructB8ne180100IS3_JS3_EEEvPT_DpOT0_, symObjAddr: 0x108DC, symBinAddr: 0x100011BA8, symSize: 0x30 }
  - { offset: 0x53856, size: 0x8, addend: 0x0, symName: __ZNSt3__16vectorIdNS_9allocatorIdEEEC1B8ne180100EOS3_, symObjAddr: 0x1090C, symBinAddr: 0x100011BD8, symSize: 0x34 }
  - { offset: 0x53891, size: 0x8, addend: 0x0, symName: __ZNSt3__16vectorIdNS_9allocatorIdEEEC2B8ne180100EOS3_, symObjAddr: 0x10940, symBinAddr: 0x100011C0C, symSize: 0xC4 }
  - { offset: 0x538D2, size: 0x8, addend: 0x0, symName: __ZNSt3__119__to_address_helperINS_16reverse_iteratorIPNS_6vectorIdNS_9allocatorIdEEEEEEvE6__callB8ne180100ERKS7_, symObjAddr: 0x10A04, symBinAddr: 0x100011CD0, symSize: 0x38 }
  - { offset: 0x538F5, size: 0x8, addend: 0x0, symName: __ZNKSt3__116reverse_iteratorIPNS_6vectorIdNS_9allocatorIdEEEEEptB8ne180100Ev, symObjAddr: 0x10A3C, symBinAddr: 0x100011D08, symSize: 0x24 }
  - { offset: 0x5391B, size: 0x8, addend: 0x0, symName: __ZNSt3__128__exception_guard_exceptionsINS_29_AllocatorDestroyRangeReverseINS_9allocatorINS_6vectorIdNS2_IdEEEEEENS_16reverse_iteratorIPS5_EEEEED2B8ne180100Ev, symObjAddr: 0x10A60, symBinAddr: 0x100011D2C, symSize: 0x50 }
  - { offset: 0x53945, size: 0x8, addend: 0x0, symName: __ZNKSt3__129_AllocatorDestroyRangeReverseINS_9allocatorINS_6vectorIdNS1_IdEEEEEENS_16reverse_iteratorIPS4_EEEclB8ne180100Ev, symObjAddr: 0x10AB0, symBinAddr: 0x100011D7C, symSize: 0xB4 }
  - { offset: 0x5396C, size: 0x8, addend: 0x0, symName: __ZNSt3__116reverse_iteratorINS0_IPNS_6vectorIdNS_9allocatorIdEEEEEEEC1B8ne180100ES6_, symObjAddr: 0x10BD4, symBinAddr: 0x100011EA0, symSize: 0x3C }
  - { offset: 0x539A4, size: 0x8, addend: 0x0, symName: __ZNSt3__116allocator_traitsINS_9allocatorINS_6vectorIdNS1_IdEEEEEEE7destroyB8ne180100IS4_vEEvRS5_PT_, symObjAddr: 0x10C70, symBinAddr: 0x100011F3C, symSize: 0x2C }
  - { offset: 0x539E1, size: 0x8, addend: 0x0, symName: __ZNSt3__116reverse_iteratorINS0_IPNS_6vectorIdNS_9allocatorIdEEEEEEEppB8ne180100Ev, symObjAddr: 0x10CC0, symBinAddr: 0x100011F8C, symSize: 0x30 }
  - { offset: 0x53A07, size: 0x8, addend: 0x0, symName: __ZNKSt3__116reverse_iteratorINS0_IPNS_6vectorIdNS_9allocatorIdEEEEEEE4baseB8ne180100Ev, symObjAddr: 0x10CF0, symBinAddr: 0x100011FBC, symSize: 0x24 }
  - { offset: 0x53A2D, size: 0x8, addend: 0x0, symName: __ZNSt3__19allocatorINS_6vectorIdNS0_IdEEEEE7destroyB8ne180100EPS3_, symObjAddr: 0x10D14, symBinAddr: 0x100011FE0, symSize: 0x28 }
  - { offset: 0x53A67, size: 0x8, addend: 0x0, symName: __ZNSt3__119__to_address_helperINS_16reverse_iteratorINS1_IPNS_6vectorIdNS_9allocatorIdEEEEEEEEvE6__callB8ne180100ERKS8_, symObjAddr: 0x10D3C, symBinAddr: 0x100012008, symSize: 0x38 }
  - { offset: 0x53A8A, size: 0x8, addend: 0x0, symName: __ZNKSt3__116reverse_iteratorINS0_IPNS_6vectorIdNS_9allocatorIdEEEEEEEptB8ne180100Ev, symObjAddr: 0x10D74, symBinAddr: 0x100012040, symSize: 0x24 }
  - { offset: 0x53AB0, size: 0x8, addend: 0x0, symName: __ZNKSt3__116reverse_iteratorINS0_IPNS_6vectorIdNS_9allocatorIdEEEEEEEdeB8ne180100Ev, symObjAddr: 0x10D98, symBinAddr: 0x100012064, symSize: 0x34 }
  - { offset: 0x53AE4, size: 0x8, addend: 0x0, symName: __ZNSt3__116reverse_iteratorIPNS_6vectorIdNS_9allocatorIdEEEEEmmB8ne180100Ev, symObjAddr: 0x10DCC, symBinAddr: 0x100012098, symSize: 0x20 }
  - { offset: 0x53B0A, size: 0x8, addend: 0x0, symName: __ZNSt3__116reverse_iteratorINS0_IPNS_6vectorIdNS_9allocatorIdEEEEEEEC2B8ne180100ES6_, symObjAddr: 0x10DEC, symBinAddr: 0x1000120B8, symSize: 0x2C }
  - { offset: 0x53B42, size: 0x8, addend: 0x0, symName: __ZNSt3__116reverse_iteratorIPNS_6vectorIdNS_9allocatorIdEEEEEC2B8ne180100ES5_, symObjAddr: 0x10E18, symBinAddr: 0x1000120E4, symSize: 0x28 }
  - { offset: 0x53B7A, size: 0x8, addend: 0x0, symName: __ZNSt3__114__split_bufferINS_6vectorIdNS_9allocatorIdEEEERNS2_IS4_EEED2Ev, symObjAddr: 0x10E40, symBinAddr: 0x10001210C, symSize: 0x8C }
  - { offset: 0x53BA6, size: 0x8, addend: 0x0, symName: __ZNSt3__114__split_bufferINS_6vectorIdNS_9allocatorIdEEEERNS2_IS4_EEE5clearB8ne180100Ev, symObjAddr: 0x10ECC, symBinAddr: 0x100012198, symSize: 0x28 }
  - { offset: 0x53BCC, size: 0x8, addend: 0x0, symName: __ZNSt3__116allocator_traitsINS_9allocatorINS_6vectorIdNS1_IdEEEEEEE10deallocateB8ne180100ERS5_PS4_m, symObjAddr: 0x10EF4, symBinAddr: 0x1000121C0, symSize: 0x34 }
  - { offset: 0x53C0E, size: 0x8, addend: 0x0, symName: __ZNKSt3__114__split_bufferINS_6vectorIdNS_9allocatorIdEEEERNS2_IS4_EEE8capacityB8ne180100Ev, symObjAddr: 0x10F28, symBinAddr: 0x1000121F4, symSize: 0x40 }
  - { offset: 0x53C34, size: 0x8, addend: 0x0, symName: __ZNSt3__114__split_bufferINS_6vectorIdNS_9allocatorIdEEEERNS2_IS4_EEE17__destruct_at_endB8ne180100EPS4_, symObjAddr: 0x10F68, symBinAddr: 0x100012234, symSize: 0x2C }
  - { offset: 0x53C68, size: 0x8, addend: 0x0, symName: __ZNSt3__114__split_bufferINS_6vectorIdNS_9allocatorIdEEEERNS2_IS4_EEE17__destruct_at_endB8ne180100EPS4_NS_17integral_constantIbLb0EEE, symObjAddr: 0x10F94, symBinAddr: 0x100012260, symSize: 0x80 }
  - { offset: 0x53CA8, size: 0x8, addend: 0x0, symName: __ZNSt3__19allocatorINS_6vectorIdNS0_IdEEEEE10deallocateB8ne180100EPS3_m, symObjAddr: 0x11014, symBinAddr: 0x1000122E0, symSize: 0x44 }
  - { offset: 0x53CEA, size: 0x8, addend: 0x0, symName: __ZNKSt3__114__split_bufferINS_6vectorIdNS_9allocatorIdEEEERNS2_IS4_EEE9__end_capB8ne180100Ev, symObjAddr: 0x11058, symBinAddr: 0x100012324, symSize: 0x28 }
  - { offset: 0x53D10, size: 0x8, addend: 0x0, symName: __ZNKSt3__117__compressed_pairIPNS_6vectorIdNS_9allocatorIdEEEERNS2_IS4_EEE5firstB8ne180100Ev, symObjAddr: 0x11080, symBinAddr: 0x10001234C, symSize: 0x24 }
  - { offset: 0x53D36, size: 0x8, addend: 0x0, symName: __ZNSt3__16vectorIdNS_9allocatorIdEEED2B8ne180100Ev, symObjAddr: 0x110A4, symBinAddr: 0x100012370, symSize: 0x40 }
  - { offset: 0x53D60, size: 0x8, addend: 0x0, symName: __ZNSt3__113unordered_mapINS_12basic_stringIcNS_11char_traitsIcEENS_9allocatorIcEEEEdNS_4hashIS6_EENS_8equal_toIS6_EENS4_INS_4pairIKS6_dEEEEED2B8ne180100Ev, symObjAddr: 0x110E4, symBinAddr: 0x1000123B0, symSize: 0x2C }
  - { offset: 0x53D8A, size: 0x8, addend: 0x0, symName: __ZNSt3__112__hash_tableINS_17__hash_value_typeINS_12basic_stringIcNS_11char_traitsIcEENS_9allocatorIcEEEEdEENS_22__unordered_map_hasherIS7_S8_NS_4hashIS7_EENS_8equal_toIS7_EELb1EEENS_21__unordered_map_equalIS7_S8_SD_SB_Lb1EEENS5_IS8_EEED1Ev, symObjAddr: 0x11110, symBinAddr: 0x1000123DC, symSize: 0x2C }
  - { offset: 0x53DB6, size: 0x8, addend: 0x0, symName: __ZNSt3__112__hash_tableINS_17__hash_value_typeINS_12basic_stringIcNS_11char_traitsIcEENS_9allocatorIcEEEEdEENS_22__unordered_map_hasherIS7_S8_NS_4hashIS7_EENS_8equal_toIS7_EELb1EEENS_21__unordered_map_equalIS7_S8_SD_SB_Lb1EEENS5_IS8_EEED2Ev, symObjAddr: 0x1113C, symBinAddr: 0x100012408, symSize: 0x48 }
  - { offset: 0x53DE2, size: 0x8, addend: 0x0, symName: __ZNSt3__112__hash_tableINS_17__hash_value_typeINS_12basic_stringIcNS_11char_traitsIcEENS_9allocatorIcEEEEdEENS_22__unordered_map_hasherIS7_S8_NS_4hashIS7_EENS_8equal_toIS7_EELb1EEENS_21__unordered_map_equalIS7_S8_SD_SB_Lb1EEENS5_IS8_EEE17__deallocate_nodeEPNS_16__hash_node_baseIPNS_11__hash_nodeIS8_PvEEEE, symObjAddr: 0x11184, symBinAddr: 0x100012450, symSize: 0xB0 }
  - { offset: 0x53E4C, size: 0x8, addend: 0x0, symName: __ZNSt3__110unique_ptrIA_PNS_16__hash_node_baseIPNS_11__hash_nodeINS_17__hash_value_typeINS_12basic_stringIcNS_11char_traitsIcEENS_9allocatorIcEEEEdEEPvEEEENS_25__bucket_list_deallocatorINS7_ISF_EEEEED1B8ne180100Ev, symObjAddr: 0x11234, symBinAddr: 0x100012500, symSize: 0x2C }
  - { offset: 0x53E76, size: 0x8, addend: 0x0, symName: __ZNSt3__110unique_ptrIA_PNS_16__hash_node_baseIPNS_11__hash_nodeINS_17__hash_value_typeINS_12basic_stringIcNS_11char_traitsIcEENS_9allocatorIcEEEEdEEPvEEEENS_25__bucket_list_deallocatorINS7_ISF_EEEEED2B8ne180100Ev, symObjAddr: 0x11260, symBinAddr: 0x10001252C, symSize: 0x30 }
  - { offset: 0x53EA0, size: 0x8, addend: 0x0, symName: __ZNSt3__110unique_ptrIA_PNS_16__hash_node_baseIPNS_11__hash_nodeINS_17__hash_value_typeINS_12basic_stringIcNS_11char_traitsIcEENS_9allocatorIcEEEEdEEPvEEEENS_25__bucket_list_deallocatorINS7_ISF_EEEEE5resetB8ne180100EDn, symObjAddr: 0x11290, symBinAddr: 0x10001255C, symSize: 0x6C }
  - { offset: 0x53EE1, size: 0x8, addend: 0x0, symName: __ZNSt3__16vectorINS_4pairINS0_INS_10shared_ptrI5ValueEENS_9allocatorIS4_EEEES7_EENS5_IS8_EEEC1B8ne180100Ev, symObjAddr: 0x112FC, symBinAddr: 0x1000125C8, symSize: 0x2C }
  - { offset: 0x53F0B, size: 0x8, addend: 0x0, symName: __ZNKSt3__16vectorINS0_IdNS_9allocatorIdEEEENS1_IS3_EEE5beginB8ne180100Ev, symObjAddr: 0x11328, symBinAddr: 0x1000125F4, symSize: 0x30 }
  - { offset: 0x53F33, size: 0x8, addend: 0x0, symName: __ZNKSt3__16vectorINS0_IdNS_9allocatorIdEEEENS1_IS3_EEE3endB8ne180100Ev, symObjAddr: 0x11358, symBinAddr: 0x100012624, symSize: 0x30 }
  - { offset: 0x53F5B, size: 0x8, addend: 0x0, symName: __ZNKSt3__111__wrap_iterIPKNS_6vectorIdNS_9allocatorIdEEEEEdeB8ne180100Ev, symObjAddr: 0x113BC, symBinAddr: 0x100012688, symSize: 0x18 }
  - { offset: 0x53F81, size: 0x8, addend: 0x0, symName: __ZNKSt3__16vectorIdNS_9allocatorIdEEE5emptyB8ne180100Ev, symObjAddr: 0x113D4, symBinAddr: 0x1000126A0, symSize: 0x28 }
  - { offset: 0x53FA7, size: 0x8, addend: 0x0, symName: __ZNSt3__16vectorINS_10shared_ptrI5ValueEENS_9allocatorIS3_EEEC1B8ne180100Ev, symObjAddr: 0x113FC, symBinAddr: 0x1000126C8, symSize: 0x2C }
  - { offset: 0x53FD1, size: 0x8, addend: 0x0, symName: __ZNSt3__16vectorINS_10shared_ptrI5ValueEENS_9allocatorIS3_EEE9push_backB8ne180100EOS3_, symObjAddr: 0x11428, symBinAddr: 0x1000126F4, symSize: 0x90 }
  - { offset: 0x54017, size: 0x8, addend: 0x0, symName: __ZNKSt3__16vectorIdNS_9allocatorIdEEEixB8ne180100Em, symObjAddr: 0x114F8, symBinAddr: 0x1000127C4, symSize: 0x24 }
  - { offset: 0x5404E, size: 0x8, addend: 0x0, symName: __ZNSt3__110shared_ptrI5ValueED1B8ne180100Ev, symObjAddr: 0x1151C, symBinAddr: 0x1000127E8, symSize: 0x2C }
  - { offset: 0x54078, size: 0x8, addend: 0x0, symName: __ZNSt3__16vectorINS_4pairINS0_INS_10shared_ptrI5ValueEENS_9allocatorIS4_EEEES7_EENS5_IS8_EEE12emplace_backIJRS7_SC_EEERS8_DpOT_, symObjAddr: 0x11548, symBinAddr: 0x100012814, symSize: 0xA4 }
  - { offset: 0x540DD, size: 0x8, addend: 0x0, symName: __ZNSt3__16vectorINS_10shared_ptrI5ValueEENS_9allocatorIS3_EEED1B8ne180100Ev, symObjAddr: 0x115EC, symBinAddr: 0x1000128B8, symSize: 0x2C }
  - { offset: 0x54107, size: 0x8, addend: 0x0, symName: __ZNSt3__111__wrap_iterIPKNS_6vectorIdNS_9allocatorIdEEEEEppB8ne180100Ev, symObjAddr: 0x11618, symBinAddr: 0x1000128E4, symSize: 0x20 }
  - { offset: 0x5412D, size: 0x8, addend: 0x0, symName: __ZNSt3__16vectorINS_4pairINS0_INS_10shared_ptrI5ValueEENS_9allocatorIS4_EEEES7_EENS5_IS8_EEEC2B8ne180100Ev, symObjAddr: 0x11638, symBinAddr: 0x100012904, symSize: 0x4C }
  - { offset: 0x54157, size: 0x8, addend: 0x0, symName: __ZNSt3__117__compressed_pairIPNS_4pairINS_6vectorINS_10shared_ptrI5ValueEENS_9allocatorIS5_EEEES8_EENS6_IS9_EEEC1B8ne180100IDnNS_18__default_init_tagEEEOT_OT0_, symObjAddr: 0x11684, symBinAddr: 0x100012950, symSize: 0x3C }
  - { offset: 0x541AF, size: 0x8, addend: 0x0, symName: __ZNSt3__117__compressed_pairIPNS_4pairINS_6vectorINS_10shared_ptrI5ValueEENS_9allocatorIS5_EEEES8_EENS6_IS9_EEEC2B8ne180100IDnNS_18__default_init_tagEEEOT_OT0_, symObjAddr: 0x116C0, symBinAddr: 0x10001298C, symSize: 0x40 }
  - { offset: 0x54207, size: 0x8, addend: 0x0, symName: __ZNSt3__122__compressed_pair_elemIPNS_4pairINS_6vectorINS_10shared_ptrI5ValueEENS_9allocatorIS5_EEEES8_EELi0ELb0EEC2B8ne180100IDnvEEOT_, symObjAddr: 0x11700, symBinAddr: 0x1000129CC, symSize: 0x1C }
  - { offset: 0x54249, size: 0x8, addend: 0x0, symName: __ZNSt3__122__compressed_pair_elemINS_9allocatorINS_4pairINS_6vectorINS_10shared_ptrI5ValueEENS1_IS6_EEEES8_EEEELi1ELb1EEC2B8ne180100ENS_18__default_init_tagE, symObjAddr: 0x1171C, symBinAddr: 0x1000129E8, symSize: 0x2C }
  - { offset: 0x5427D, size: 0x8, addend: 0x0, symName: __ZNSt3__19allocatorINS_4pairINS_6vectorINS_10shared_ptrI5ValueEENS0_IS5_EEEES7_EEEC2B8ne180100Ev, symObjAddr: 0x11748, symBinAddr: 0x100012A14, symSize: 0x2C }
  - { offset: 0x542A7, size: 0x8, addend: 0x0, symName: __ZNSt3__116__non_trivial_ifILb1ENS_9allocatorINS_4pairINS_6vectorINS_10shared_ptrI5ValueEENS1_IS6_EEEES8_EEEEEC2B8ne180100Ev, symObjAddr: 0x11774, symBinAddr: 0x100012A40, symSize: 0x14 }
  - { offset: 0x542D1, size: 0x8, addend: 0x0, symName: __ZNKSt3__16vectorINS0_IdNS_9allocatorIdEEEENS1_IS3_EEE11__make_iterB8ne180100EPKS3_, symObjAddr: 0x11788, symBinAddr: 0x100012A54, symSize: 0x30 }
  - { offset: 0x54306, size: 0x8, addend: 0x0, symName: __ZNSt3__111__wrap_iterIPKNS_6vectorIdNS_9allocatorIdEEEEEC1B8ne180100ES6_, symObjAddr: 0x117B8, symBinAddr: 0x100012A84, symSize: 0x34 }
  - { offset: 0x5433E, size: 0x8, addend: 0x0, symName: __ZNSt3__111__wrap_iterIPKNS_6vectorIdNS_9allocatorIdEEEEEC2B8ne180100ES6_, symObjAddr: 0x117EC, symBinAddr: 0x100012AB8, symSize: 0x20 }
  - { offset: 0x54376, size: 0x8, addend: 0x0, symName: __ZNKSt3__111__wrap_iterIPKNS_6vectorIdNS_9allocatorIdEEEEE4baseB8ne180100Ev, symObjAddr: 0x11854, symBinAddr: 0x100012B20, symSize: 0x18 }
  - { offset: 0x5439C, size: 0x8, addend: 0x0, symName: __ZNSt3__16vectorINS_10shared_ptrI5ValueEENS_9allocatorIS3_EEEC2B8ne180100Ev, symObjAddr: 0x1186C, symBinAddr: 0x100012B38, symSize: 0x4C }
  - { offset: 0x543C6, size: 0x8, addend: 0x0, symName: __ZNSt3__117__compressed_pairIPNS_10shared_ptrI5ValueEENS_9allocatorIS3_EEEC1B8ne180100IDnNS_18__default_init_tagEEEOT_OT0_, symObjAddr: 0x118B8, symBinAddr: 0x100012B84, symSize: 0x3C }
  - { offset: 0x5441E, size: 0x8, addend: 0x0, symName: __ZNSt3__117__compressed_pairIPNS_10shared_ptrI5ValueEENS_9allocatorIS3_EEEC2B8ne180100IDnNS_18__default_init_tagEEEOT_OT0_, symObjAddr: 0x118F4, symBinAddr: 0x100012BC0, symSize: 0x40 }
  - { offset: 0x54476, size: 0x8, addend: 0x0, symName: __ZNSt3__122__compressed_pair_elemIPNS_10shared_ptrI5ValueEELi0ELb0EEC2B8ne180100IDnvEEOT_, symObjAddr: 0x11934, symBinAddr: 0x100012C00, symSize: 0x1C }
  - { offset: 0x544B8, size: 0x8, addend: 0x0, symName: __ZNSt3__122__compressed_pair_elemINS_9allocatorINS_10shared_ptrI5ValueEEEELi1ELb1EEC2B8ne180100ENS_18__default_init_tagE, symObjAddr: 0x11950, symBinAddr: 0x100012C1C, symSize: 0x2C }
  - { offset: 0x544EC, size: 0x8, addend: 0x0, symName: __ZNSt3__19allocatorINS_10shared_ptrI5ValueEEEC2B8ne180100Ev, symObjAddr: 0x1197C, symBinAddr: 0x100012C48, symSize: 0x2C }
  - { offset: 0x54516, size: 0x8, addend: 0x0, symName: __ZNSt3__116__non_trivial_ifILb1ENS_9allocatorINS_10shared_ptrI5ValueEEEEEC2B8ne180100Ev, symObjAddr: 0x119A8, symBinAddr: 0x100012C74, symSize: 0x14 }
  - { offset: 0x54540, size: 0x8, addend: 0x0, symName: __ZNSt3__16vectorINS_10shared_ptrI5ValueEENS_9allocatorIS3_EEE9__end_capB8ne180100Ev, symObjAddr: 0x119BC, symBinAddr: 0x100012C88, symSize: 0x28 }
  - { offset: 0x54566, size: 0x8, addend: 0x0, symName: __ZNSt3__16vectorINS_10shared_ptrI5ValueEENS_9allocatorIS3_EEE22__construct_one_at_endB8ne180100IJS3_EEEvDpOT_, symObjAddr: 0x119E4, symBinAddr: 0x100012CB0, symSize: 0x90 }
  - { offset: 0x545B5, size: 0x8, addend: 0x0, symName: __ZNSt3__16vectorINS_10shared_ptrI5ValueEENS_9allocatorIS3_EEE21__push_back_slow_pathIS3_EEPS3_OT_, symObjAddr: 0x11A74, symBinAddr: 0x100012D40, symSize: 0xE8 }
  - { offset: 0x54613, size: 0x8, addend: 0x0, symName: __ZNSt3__117__compressed_pairIPNS_10shared_ptrI5ValueEENS_9allocatorIS3_EEE5firstB8ne180100Ev, symObjAddr: 0x11B5C, symBinAddr: 0x100012E28, symSize: 0x24 }
  - { offset: 0x54639, size: 0x8, addend: 0x0, symName: __ZNSt3__122__compressed_pair_elemIPNS_10shared_ptrI5ValueEELi0ELb0EE5__getB8ne180100Ev, symObjAddr: 0x11B80, symBinAddr: 0x100012E4C, symSize: 0x14 }
  - { offset: 0x5467B, size: 0x8, addend: 0x0, symName: __ZNSt3__16vectorINS_10shared_ptrI5ValueEENS_9allocatorIS3_EEE21_ConstructTransactionC1B8ne180100ERS6_m, symObjAddr: 0x11B94, symBinAddr: 0x100012E60, symSize: 0x3C }
  - { offset: 0x546C3, size: 0x8, addend: 0x0, symName: __ZNSt3__116allocator_traitsINS_9allocatorINS_10shared_ptrI5ValueEEEEE9constructB8ne180100IS4_JS4_EvEEvRS5_PT_DpOT0_, symObjAddr: 0x11BD0, symBinAddr: 0x100012E9C, symSize: 0x34 }
  - { offset: 0x5471A, size: 0x8, addend: 0x0, symName: __ZNSt3__16vectorINS_10shared_ptrI5ValueEENS_9allocatorIS3_EEE7__allocB8ne180100Ev, symObjAddr: 0x11C04, symBinAddr: 0x100012ED0, symSize: 0x28 }
  - { offset: 0x54740, size: 0x8, addend: 0x0, symName: __ZNSt3__16vectorINS_10shared_ptrI5ValueEENS_9allocatorIS3_EEE21_ConstructTransactionD1B8ne180100Ev, symObjAddr: 0x11C40, symBinAddr: 0x100012F0C, symSize: 0x2C }
  - { offset: 0x5476A, size: 0x8, addend: 0x0, symName: __ZNSt3__16vectorINS_10shared_ptrI5ValueEENS_9allocatorIS3_EEE21_ConstructTransactionC2B8ne180100ERS6_m, symObjAddr: 0x11C6C, symBinAddr: 0x100012F38, symSize: 0x44 }
  - { offset: 0x547B2, size: 0x8, addend: 0x0, symName: __ZNSt3__19allocatorINS_10shared_ptrI5ValueEEE9constructB8ne180100IS3_JS3_EEEvPT_DpOT0_, symObjAddr: 0x11CB0, symBinAddr: 0x100012F7C, symSize: 0x30 }
  - { offset: 0x54808, size: 0x8, addend: 0x0, symName: __ZNSt3__110shared_ptrI5ValueEC1B8ne180100EOS2_, symObjAddr: 0x11CE0, symBinAddr: 0x100012FAC, symSize: 0x34 }
  - { offset: 0x54841, size: 0x8, addend: 0x0, symName: __ZNSt3__110shared_ptrI5ValueEC2B8ne180100EOS2_, symObjAddr: 0x11D14, symBinAddr: 0x100012FE0, symSize: 0x40 }
  - { offset: 0x5487A, size: 0x8, addend: 0x0, symName: __ZNSt3__117__compressed_pairIPNS_10shared_ptrI5ValueEENS_9allocatorIS3_EEE6secondB8ne180100Ev, symObjAddr: 0x11D54, symBinAddr: 0x100013020, symSize: 0x24 }
  - { offset: 0x548A0, size: 0x8, addend: 0x0, symName: __ZNSt3__122__compressed_pair_elemINS_9allocatorINS_10shared_ptrI5ValueEEEELi1ELb1EE5__getB8ne180100Ev, symObjAddr: 0x11D78, symBinAddr: 0x100013044, symSize: 0x14 }
  - { offset: 0x548C6, size: 0x8, addend: 0x0, symName: __ZNSt3__16vectorINS_10shared_ptrI5ValueEENS_9allocatorIS3_EEE21_ConstructTransactionD2B8ne180100Ev, symObjAddr: 0x11D8C, symBinAddr: 0x100013058, symSize: 0x20 }
  - { offset: 0x548F0, size: 0x8, addend: 0x0, symName: __ZNKSt3__16vectorINS_10shared_ptrI5ValueEENS_9allocatorIS3_EEE11__recommendB8ne180100Em, symObjAddr: 0x11DAC, symBinAddr: 0x100013078, symSize: 0xB4 }
  - { offset: 0x54945, size: 0x8, addend: 0x0, symName: __ZNSt3__114__split_bufferINS_10shared_ptrI5ValueEERNS_9allocatorIS3_EEEC1EmmS6_, symObjAddr: 0x11E60, symBinAddr: 0x10001312C, symSize: 0x44 }
  - { offset: 0x5499B, size: 0x8, addend: 0x0, symName: __ZNSt3__114__split_bufferINS_10shared_ptrI5ValueEERNS_9allocatorIS3_EEED1Ev, symObjAddr: 0x11FB4, symBinAddr: 0x100013280, symSize: 0x2C }
  - { offset: 0x549C7, size: 0x8, addend: 0x0, symName: __ZNKSt3__16vectorINS_10shared_ptrI5ValueEENS_9allocatorIS3_EEE8max_sizeEv, symObjAddr: 0x11FE0, symBinAddr: 0x1000132AC, symSize: 0x60 }
  - { offset: 0x549EF, size: 0x8, addend: 0x0, symName: __ZNKSt3__16vectorINS_10shared_ptrI5ValueEENS_9allocatorIS3_EEE20__throw_length_errorB8ne180100Ev, symObjAddr: 0x12040, symBinAddr: 0x10001330C, symSize: 0x1C }
  - { offset: 0x54A15, size: 0x8, addend: 0x0, symName: __ZNKSt3__16vectorINS_10shared_ptrI5ValueEENS_9allocatorIS3_EEE8capacityB8ne180100Ev, symObjAddr: 0x1205C, symBinAddr: 0x100013328, symSize: 0x40 }
  - { offset: 0x54A46, size: 0x8, addend: 0x0, symName: __ZNSt3__116allocator_traitsINS_9allocatorINS_10shared_ptrI5ValueEEEEE8max_sizeB8ne180100IS5_vEEmRKS5_, symObjAddr: 0x1209C, symBinAddr: 0x100013368, symSize: 0x24 }
  - { offset: 0x54A74, size: 0x8, addend: 0x0, symName: __ZNKSt3__16vectorINS_10shared_ptrI5ValueEENS_9allocatorIS3_EEE7__allocB8ne180100Ev, symObjAddr: 0x120C0, symBinAddr: 0x10001338C, symSize: 0x28 }
  - { offset: 0x54A9A, size: 0x8, addend: 0x0, symName: __ZNKSt3__19allocatorINS_10shared_ptrI5ValueEEE8max_sizeB8ne180100Ev, symObjAddr: 0x120E8, symBinAddr: 0x1000133B4, symSize: 0x14 }
  - { offset: 0x54AC0, size: 0x8, addend: 0x0, symName: __ZNKSt3__117__compressed_pairIPNS_10shared_ptrI5ValueEENS_9allocatorIS3_EEE6secondB8ne180100Ev, symObjAddr: 0x120FC, symBinAddr: 0x1000133C8, symSize: 0x24 }
  - { offset: 0x54AE6, size: 0x8, addend: 0x0, symName: __ZNKSt3__122__compressed_pair_elemINS_9allocatorINS_10shared_ptrI5ValueEEEELi1ELb1EE5__getB8ne180100Ev, symObjAddr: 0x12120, symBinAddr: 0x1000133EC, symSize: 0x14 }
  - { offset: 0x54B0C, size: 0x8, addend: 0x0, symName: __ZNKSt3__16vectorINS_10shared_ptrI5ValueEENS_9allocatorIS3_EEE9__end_capB8ne180100Ev, symObjAddr: 0x12134, symBinAddr: 0x100013400, symSize: 0x28 }
  - { offset: 0x54B32, size: 0x8, addend: 0x0, symName: __ZNKSt3__117__compressed_pairIPNS_10shared_ptrI5ValueEENS_9allocatorIS3_EEE5firstB8ne180100Ev, symObjAddr: 0x1215C, symBinAddr: 0x100013428, symSize: 0x24 }
  - { offset: 0x54B58, size: 0x8, addend: 0x0, symName: __ZNKSt3__122__compressed_pair_elemIPNS_10shared_ptrI5ValueEELi0ELb0EE5__getB8ne180100Ev, symObjAddr: 0x12180, symBinAddr: 0x10001344C, symSize: 0x14 }
  - { offset: 0x54B7E, size: 0x8, addend: 0x0, symName: __ZNSt3__114__split_bufferINS_10shared_ptrI5ValueEERNS_9allocatorIS3_EEEC2EmmS6_, symObjAddr: 0x12194, symBinAddr: 0x100013460, symSize: 0xD4 }
  - { offset: 0x54BF1, size: 0x8, addend: 0x0, symName: __ZNSt3__117__compressed_pairIPNS_10shared_ptrI5ValueEERNS_9allocatorIS3_EEEC1B8ne180100IDnS7_EEOT_OT0_, symObjAddr: 0x12268, symBinAddr: 0x100013534, symSize: 0x3C }
  - { offset: 0x54C49, size: 0x8, addend: 0x0, symName: __ZNSt3__114__split_bufferINS_10shared_ptrI5ValueEERNS_9allocatorIS3_EEE7__allocB8ne180100Ev, symObjAddr: 0x122E4, symBinAddr: 0x1000135B0, symSize: 0x28 }
  - { offset: 0x54C6F, size: 0x8, addend: 0x0, symName: __ZNSt3__114__split_bufferINS_10shared_ptrI5ValueEERNS_9allocatorIS3_EEE9__end_capB8ne180100Ev, symObjAddr: 0x1230C, symBinAddr: 0x1000135D8, symSize: 0x28 }
  - { offset: 0x54C95, size: 0x8, addend: 0x0, symName: __ZNSt3__117__compressed_pairIPNS_10shared_ptrI5ValueEERNS_9allocatorIS3_EEEC2B8ne180100IDnS7_EEOT_OT0_, symObjAddr: 0x12334, symBinAddr: 0x100013600, symSize: 0x48 }
  - { offset: 0x54CED, size: 0x8, addend: 0x0, symName: __ZNSt3__122__compressed_pair_elemIRNS_9allocatorINS_10shared_ptrI5ValueEEEELi1ELb0EEC2B8ne180100IS6_vEEOT_, symObjAddr: 0x1237C, symBinAddr: 0x100013648, symSize: 0x20 }
  - { offset: 0x54D2F, size: 0x8, addend: 0x0, symName: __ZNSt3__19allocatorINS_10shared_ptrI5ValueEEE8allocateB8ne180100Em, symObjAddr: 0x1239C, symBinAddr: 0x100013668, symSize: 0x58 }
  - { offset: 0x54D63, size: 0x8, addend: 0x0, symName: __ZNSt3__117__compressed_pairIPNS_10shared_ptrI5ValueEERNS_9allocatorIS3_EEE6secondB8ne180100Ev, symObjAddr: 0x123F4, symBinAddr: 0x1000136C0, symSize: 0x28 }
  - { offset: 0x54D89, size: 0x8, addend: 0x0, symName: __ZNSt3__122__compressed_pair_elemIRNS_9allocatorINS_10shared_ptrI5ValueEEEELi1ELb0EE5__getB8ne180100Ev, symObjAddr: 0x1241C, symBinAddr: 0x1000136E8, symSize: 0x18 }
  - { offset: 0x54DAF, size: 0x8, addend: 0x0, symName: __ZNSt3__117__compressed_pairIPNS_10shared_ptrI5ValueEERNS_9allocatorIS3_EEE5firstB8ne180100Ev, symObjAddr: 0x12434, symBinAddr: 0x100013700, symSize: 0x24 }
  - { offset: 0x54DD5, size: 0x8, addend: 0x0, symName: __ZNKSt3__16vectorINS_10shared_ptrI5ValueEENS_9allocatorIS3_EEE17__annotate_deleteB8ne180100Ev, symObjAddr: 0x12458, symBinAddr: 0x100013724, symSize: 0x10 }
  - { offset: 0x54DFB, size: 0x8, addend: 0x0, symName: __ZNSt3__116reverse_iteratorIPNS_10shared_ptrI5ValueEEEC1B8ne180100ES4_, symObjAddr: 0x12594, symBinAddr: 0x100013860, symSize: 0x34 }
  - { offset: 0x54E33, size: 0x8, addend: 0x0, symName: __ZNKSt3__116reverse_iteratorIPNS_10shared_ptrI5ValueEEE4baseB8ne180100Ev, symObjAddr: 0x125C8, symBinAddr: 0x100013894, symSize: 0x18 }
  - { offset: 0x54E59, size: 0x8, addend: 0x0, symName: __ZNKSt3__16vectorINS_10shared_ptrI5ValueEENS_9allocatorIS3_EEE14__annotate_newB8ne180100Em, symObjAddr: 0x1261C, symBinAddr: 0x1000138E8, symSize: 0x14 }
  - { offset: 0x54E8E, size: 0x8, addend: 0x0, symName: __ZNSt3__129_AllocatorDestroyRangeReverseINS_9allocatorINS_10shared_ptrI5ValueEEEENS_16reverse_iteratorIPS4_EEEC1B8ne180100ERS5_RS8_SB_, symObjAddr: 0x1267C, symBinAddr: 0x100013948, symSize: 0x44 }
  - { offset: 0x54EE5, size: 0x8, addend: 0x0, symName: __ZNKSt3__116reverse_iteratorIPNS_10shared_ptrI5ValueEEEdeB8ne180100Ev, symObjAddr: 0x1272C, symBinAddr: 0x1000139F8, symSize: 0x28 }
  - { offset: 0x54F19, size: 0x8, addend: 0x0, symName: __ZNSt3__116reverse_iteratorIPNS_10shared_ptrI5ValueEEEppB8ne180100Ev, symObjAddr: 0x12754, symBinAddr: 0x100013A20, symSize: 0x20 }
  - { offset: 0x54F3F, size: 0x8, addend: 0x0, symName: __ZNSt3__128__exception_guard_exceptionsINS_29_AllocatorDestroyRangeReverseINS_9allocatorINS_10shared_ptrI5ValueEEEENS_16reverse_iteratorIPS5_EEEEE10__completeB8ne180100Ev, symObjAddr: 0x12774, symBinAddr: 0x100013A40, symSize: 0x1C }
  - { offset: 0x54F65, size: 0x8, addend: 0x0, symName: __ZNSt3__128__exception_guard_exceptionsINS_29_AllocatorDestroyRangeReverseINS_9allocatorINS_10shared_ptrI5ValueEEEENS_16reverse_iteratorIPS5_EEEEED1B8ne180100Ev, symObjAddr: 0x12790, symBinAddr: 0x100013A5C, symSize: 0x2C }
  - { offset: 0x54F8F, size: 0x8, addend: 0x0, symName: __ZNSt3__128__exception_guard_exceptionsINS_29_AllocatorDestroyRangeReverseINS_9allocatorINS_10shared_ptrI5ValueEEEENS_16reverse_iteratorIPS5_EEEEEC1B8ne180100ESA_, symObjAddr: 0x127BC, symBinAddr: 0x100013A88, symSize: 0x34 }
  - { offset: 0x54FC8, size: 0x8, addend: 0x0, symName: __ZNSt3__128__exception_guard_exceptionsINS_29_AllocatorDestroyRangeReverseINS_9allocatorINS_10shared_ptrI5ValueEEEENS_16reverse_iteratorIPS5_EEEEEC2B8ne180100ESA_, symObjAddr: 0x127F0, symBinAddr: 0x100013ABC, symSize: 0x30 }
  - { offset: 0x55001, size: 0x8, addend: 0x0, symName: __ZNSt3__129_AllocatorDestroyRangeReverseINS_9allocatorINS_10shared_ptrI5ValueEEEENS_16reverse_iteratorIPS4_EEEC2B8ne180100ERS5_RS8_SB_, symObjAddr: 0x12820, symBinAddr: 0x100013AEC, symSize: 0x38 }
  - { offset: 0x5505E, size: 0x8, addend: 0x0, symName: __ZNSt3__119__to_address_helperINS_16reverse_iteratorIPNS_10shared_ptrI5ValueEEEEvE6__callB8ne180100ERKS6_, symObjAddr: 0x12858, symBinAddr: 0x100013B24, symSize: 0x38 }
  - { offset: 0x55081, size: 0x8, addend: 0x0, symName: __ZNKSt3__116reverse_iteratorIPNS_10shared_ptrI5ValueEEEptB8ne180100Ev, symObjAddr: 0x12890, symBinAddr: 0x100013B5C, symSize: 0x24 }
  - { offset: 0x550A7, size: 0x8, addend: 0x0, symName: __ZNSt3__128__exception_guard_exceptionsINS_29_AllocatorDestroyRangeReverseINS_9allocatorINS_10shared_ptrI5ValueEEEENS_16reverse_iteratorIPS5_EEEEED2B8ne180100Ev, symObjAddr: 0x128B4, symBinAddr: 0x100013B80, symSize: 0x50 }
  - { offset: 0x550D1, size: 0x8, addend: 0x0, symName: __ZNKSt3__129_AllocatorDestroyRangeReverseINS_9allocatorINS_10shared_ptrI5ValueEEEENS_16reverse_iteratorIPS4_EEEclB8ne180100Ev, symObjAddr: 0x12904, symBinAddr: 0x100013BD0, symSize: 0xB4 }
  - { offset: 0x550F8, size: 0x8, addend: 0x0, symName: __ZNSt3__116reverse_iteratorINS0_IPNS_10shared_ptrI5ValueEEEEEC1B8ne180100ES5_, symObjAddr: 0x12A28, symBinAddr: 0x100013CF4, symSize: 0x3C }
  - { offset: 0x55130, size: 0x8, addend: 0x0, symName: __ZNSt3__116allocator_traitsINS_9allocatorINS_10shared_ptrI5ValueEEEEE7destroyB8ne180100IS4_vEEvRS5_PT_, symObjAddr: 0x12AC4, symBinAddr: 0x100013D90, symSize: 0x2C }
  - { offset: 0x5516D, size: 0x8, addend: 0x0, symName: __ZNSt3__116reverse_iteratorINS0_IPNS_10shared_ptrI5ValueEEEEEppB8ne180100Ev, symObjAddr: 0x12B14, symBinAddr: 0x100013DE0, symSize: 0x30 }
  - { offset: 0x55193, size: 0x8, addend: 0x0, symName: __ZNKSt3__116reverse_iteratorINS0_IPNS_10shared_ptrI5ValueEEEEE4baseB8ne180100Ev, symObjAddr: 0x12B44, symBinAddr: 0x100013E10, symSize: 0x24 }
  - { offset: 0x551B9, size: 0x8, addend: 0x0, symName: __ZNSt3__19allocatorINS_10shared_ptrI5ValueEEE7destroyB8ne180100EPS3_, symObjAddr: 0x12B68, symBinAddr: 0x100013E34, symSize: 0x28 }
  - { offset: 0x551F3, size: 0x8, addend: 0x0, symName: __ZNSt3__119__to_address_helperINS_16reverse_iteratorINS1_IPNS_10shared_ptrI5ValueEEEEEEvE6__callB8ne180100ERKS7_, symObjAddr: 0x12B90, symBinAddr: 0x100013E5C, symSize: 0x38 }
  - { offset: 0x55216, size: 0x8, addend: 0x0, symName: __ZNKSt3__116reverse_iteratorINS0_IPNS_10shared_ptrI5ValueEEEEEptB8ne180100Ev, symObjAddr: 0x12BC8, symBinAddr: 0x100013E94, symSize: 0x24 }
  - { offset: 0x5523C, size: 0x8, addend: 0x0, symName: __ZNKSt3__116reverse_iteratorINS0_IPNS_10shared_ptrI5ValueEEEEEdeB8ne180100Ev, symObjAddr: 0x12BEC, symBinAddr: 0x100013EB8, symSize: 0x34 }
  - { offset: 0x55270, size: 0x8, addend: 0x0, symName: __ZNSt3__116reverse_iteratorIPNS_10shared_ptrI5ValueEEEmmB8ne180100Ev, symObjAddr: 0x12C20, symBinAddr: 0x100013EEC, symSize: 0x20 }
  - { offset: 0x55296, size: 0x8, addend: 0x0, symName: __ZNSt3__116reverse_iteratorINS0_IPNS_10shared_ptrI5ValueEEEEEC2B8ne180100ES5_, symObjAddr: 0x12C40, symBinAddr: 0x100013F0C, symSize: 0x2C }
  - { offset: 0x552CE, size: 0x8, addend: 0x0, symName: __ZNSt3__116reverse_iteratorIPNS_10shared_ptrI5ValueEEEC2B8ne180100ES4_, symObjAddr: 0x12C6C, symBinAddr: 0x100013F38, symSize: 0x28 }
  - { offset: 0x55306, size: 0x8, addend: 0x0, symName: __ZNSt3__114__split_bufferINS_10shared_ptrI5ValueEERNS_9allocatorIS3_EEED2Ev, symObjAddr: 0x12C94, symBinAddr: 0x100013F60, symSize: 0x8C }
  - { offset: 0x55332, size: 0x8, addend: 0x0, symName: __ZNSt3__114__split_bufferINS_10shared_ptrI5ValueEERNS_9allocatorIS3_EEE5clearB8ne180100Ev, symObjAddr: 0x12D20, symBinAddr: 0x100013FEC, symSize: 0x28 }
  - { offset: 0x55358, size: 0x8, addend: 0x0, symName: __ZNSt3__116allocator_traitsINS_9allocatorINS_10shared_ptrI5ValueEEEEE10deallocateB8ne180100ERS5_PS4_m, symObjAddr: 0x12D48, symBinAddr: 0x100014014, symSize: 0x34 }
  - { offset: 0x5539A, size: 0x8, addend: 0x0, symName: __ZNKSt3__114__split_bufferINS_10shared_ptrI5ValueEERNS_9allocatorIS3_EEE8capacityB8ne180100Ev, symObjAddr: 0x12D7C, symBinAddr: 0x100014048, symSize: 0x40 }
  - { offset: 0x553C0, size: 0x8, addend: 0x0, symName: __ZNSt3__114__split_bufferINS_10shared_ptrI5ValueEERNS_9allocatorIS3_EEE17__destruct_at_endB8ne180100EPS3_, symObjAddr: 0x12DBC, symBinAddr: 0x100014088, symSize: 0x2C }
  - { offset: 0x553F4, size: 0x8, addend: 0x0, symName: __ZNSt3__114__split_bufferINS_10shared_ptrI5ValueEERNS_9allocatorIS3_EEE17__destruct_at_endB8ne180100EPS3_NS_17integral_constantIbLb0EEE, symObjAddr: 0x12DE8, symBinAddr: 0x1000140B4, symSize: 0x80 }
  - { offset: 0x55434, size: 0x8, addend: 0x0, symName: __ZNSt3__19allocatorINS_10shared_ptrI5ValueEEE10deallocateB8ne180100EPS3_m, symObjAddr: 0x12E68, symBinAddr: 0x100014134, symSize: 0x40 }
  - { offset: 0x55476, size: 0x8, addend: 0x0, symName: __ZNKSt3__114__split_bufferINS_10shared_ptrI5ValueEERNS_9allocatorIS3_EEE9__end_capB8ne180100Ev, symObjAddr: 0x12EA8, symBinAddr: 0x100014174, symSize: 0x28 }
  - { offset: 0x5549C, size: 0x8, addend: 0x0, symName: __ZNKSt3__117__compressed_pairIPNS_10shared_ptrI5ValueEERNS_9allocatorIS3_EEE5firstB8ne180100Ev, symObjAddr: 0x12ED0, symBinAddr: 0x10001419C, symSize: 0x24 }
  - { offset: 0x554C2, size: 0x8, addend: 0x0, symName: __ZNSt3__19allocatorI5ValueEC1B8ne180100Ev, symObjAddr: 0x12F8C, symBinAddr: 0x100014258, symSize: 0x2C }
  - { offset: 0x55543, size: 0x8, addend: 0x0, symName: __ZNSt3__118__allocation_guardINS_9allocatorINS_20__shared_ptr_emplaceI5ValueNS1_IS3_EEEEEEEC1B8ne180100IS4_EET_m, symObjAddr: 0x12FB8, symBinAddr: 0x100014284, symSize: 0x34 }
  - { offset: 0x55592, size: 0x8, addend: 0x0, symName: __ZNKSt3__118__allocation_guardINS_9allocatorINS_20__shared_ptr_emplaceI5ValueNS1_IS3_EEEEEEE5__getB8ne180100Ev, symObjAddr: 0x12FEC, symBinAddr: 0x1000142B8, symSize: 0x18 }
  - { offset: 0x555B8, size: 0x8, addend: 0x0, symName: __ZNSt3__120__shared_ptr_emplaceI5ValueNS_9allocatorIS1_EEEC1B8ne180100IJRKdES3_Li0EEES3_DpOT_, symObjAddr: 0x13004, symBinAddr: 0x1000142D0, symSize: 0x34 }
  - { offset: 0x5561A, size: 0x8, addend: 0x0, symName: __ZNSt3__118__allocation_guardINS_9allocatorINS_20__shared_ptr_emplaceI5ValueNS1_IS3_EEEEEEE13__release_ptrB8ne180100Ev, symObjAddr: 0x13038, symBinAddr: 0x100014304, symSize: 0x24 }
  - { offset: 0x5564E, size: 0x8, addend: 0x0, symName: __ZNSt3__110shared_ptrI5ValueE27__create_with_control_blockB8ne180100IS1_NS_20__shared_ptr_emplaceIS1_NS_9allocatorIS1_EEEEEES2_PT_PT0_, symObjAddr: 0x1305C, symBinAddr: 0x100014328, symSize: 0x98 }
  - { offset: 0x556A3, size: 0x8, addend: 0x0, symName: __ZNSt3__120__shared_ptr_emplaceI5ValueNS_9allocatorIS1_EEE10__get_elemB8ne180100Ev, symObjAddr: 0x130F4, symBinAddr: 0x1000143C0, symSize: 0x28 }
  - { offset: 0x556C9, size: 0x8, addend: 0x0, symName: __ZNSt3__118__allocation_guardINS_9allocatorINS_20__shared_ptr_emplaceI5ValueNS1_IS3_EEEEEEED1B8ne180100Ev, symObjAddr: 0x1311C, symBinAddr: 0x1000143E8, symSize: 0x2C }
  - { offset: 0x556F3, size: 0x8, addend: 0x0, symName: __ZNSt3__118__allocation_guardINS_9allocatorINS_20__shared_ptr_emplaceI5ValueNS1_IS3_EEEEEEEC2B8ne180100IS4_EET_m, symObjAddr: 0x13148, symBinAddr: 0x100014414, symSize: 0x50 }
  - { offset: 0x55742, size: 0x8, addend: 0x0, symName: __ZNSt3__19allocatorINS_20__shared_ptr_emplaceI5ValueNS0_IS2_EEEEEC1B8ne180100IS2_EERKNS0_IT_EE, symObjAddr: 0x13198, symBinAddr: 0x100014464, symSize: 0x34 }
  - { offset: 0x5577F, size: 0x8, addend: 0x0, symName: __ZNSt3__116allocator_traitsINS_9allocatorINS_20__shared_ptr_emplaceI5ValueNS1_IS3_EEEEEEE8allocateB8ne180100ERS6_m, symObjAddr: 0x131CC, symBinAddr: 0x100014498, symSize: 0x2C }
  - { offset: 0x557B2, size: 0x8, addend: 0x0, symName: __ZNSt3__19allocatorINS_20__shared_ptr_emplaceI5ValueNS0_IS2_EEEEEC2B8ne180100IS2_EERKNS0_IT_EE, symObjAddr: 0x131F8, symBinAddr: 0x1000144C4, symSize: 0x30 }
  - { offset: 0x557EF, size: 0x8, addend: 0x0, symName: __ZNSt3__116__non_trivial_ifILb1ENS_9allocatorINS_20__shared_ptr_emplaceI5ValueNS1_IS3_EEEEEEEC2B8ne180100Ev, symObjAddr: 0x13228, symBinAddr: 0x1000144F4, symSize: 0x14 }
  - { offset: 0x55819, size: 0x8, addend: 0x0, symName: __ZNSt3__19allocatorINS_20__shared_ptr_emplaceI5ValueNS0_IS2_EEEEE8allocateB8ne180100Em, symObjAddr: 0x1323C, symBinAddr: 0x100014508, symSize: 0x5C }
  - { offset: 0x55858, size: 0x8, addend: 0x0, symName: __ZNSt3__116allocator_traitsINS_9allocatorINS_20__shared_ptr_emplaceI5ValueNS1_IS3_EEEEEEE8max_sizeB8ne180100IS6_vEEmRKS6_, symObjAddr: 0x13298, symBinAddr: 0x100014564, symSize: 0x24 }
  - { offset: 0x55886, size: 0x8, addend: 0x0, symName: __ZNKSt3__19allocatorINS_20__shared_ptr_emplaceI5ValueNS0_IS2_EEEEE8max_sizeB8ne180100Ev, symObjAddr: 0x132BC, symBinAddr: 0x100014588, symSize: 0x18 }
  - { offset: 0x558AC, size: 0x8, addend: 0x0, symName: __ZNSt3__120__shared_ptr_emplaceI5ValueNS_9allocatorIS1_EEEC2B8ne180100IJRKdES3_Li0EEES3_DpOT_, symObjAddr: 0x132D4, symBinAddr: 0x1000145A0, symSize: 0xBC }
  - { offset: 0x5592F, size: 0x8, addend: 0x0, symName: __ZNSt3__119__shared_weak_countC2B8ne180100El, symObjAddr: 0x13390, symBinAddr: 0x10001465C, symSize: 0x4C }
  - { offset: 0x55967, size: 0x8, addend: 0x0, symName: __ZNSt3__120__shared_ptr_emplaceI5ValueNS_9allocatorIS1_EEE8_StorageC1B8ne180100EOS3_, symObjAddr: 0x133DC, symBinAddr: 0x1000146A8, symSize: 0x34 }
  - { offset: 0x559A0, size: 0x8, addend: 0x0, symName: __ZNSt3__120__shared_ptr_emplaceI5ValueNS_9allocatorIS1_EEE11__get_allocB8ne180100Ev, symObjAddr: 0x13410, symBinAddr: 0x1000146DC, symSize: 0x28 }
  - { offset: 0x559CC, size: 0x8, addend: 0x0, symName: __ZNSt3__116allocator_traitsINS_9allocatorI5ValueEEE9constructB8ne180100IS2_JRKdEvEEvRS3_PT_DpOT0_, symObjAddr: 0x13438, symBinAddr: 0x100014704, symSize: 0x34 }
  - { offset: 0x55A23, size: 0x8, addend: 0x0, symName: __ZNSt3__120__shared_ptr_emplaceI5ValueNS_9allocatorIS1_EEE8_StorageD1B8ne180100Ev, symObjAddr: 0x1346C, symBinAddr: 0x100014738, symSize: 0x2C }
  - { offset: 0x55A4D, size: 0x8, addend: 0x0, symName: __ZNSt3__120__shared_ptr_emplaceI5ValueNS_9allocatorIS1_EEED1Ev, symObjAddr: 0x13498, symBinAddr: 0x100014764, symSize: 0x2C }
  - { offset: 0x55A79, size: 0x8, addend: 0x0, symName: __ZNSt3__120__shared_ptr_emplaceI5ValueNS_9allocatorIS1_EEED0Ev, symObjAddr: 0x134C4, symBinAddr: 0x100014790, symSize: 0x30 }
  - { offset: 0x55AA5, size: 0x8, addend: 0x0, symName: __ZNSt3__120__shared_ptr_emplaceI5ValueNS_9allocatorIS1_EEE16__on_zero_sharedEv, symObjAddr: 0x134F4, symBinAddr: 0x1000147C0, symSize: 0x24 }
  - { offset: 0x55ACB, size: 0x8, addend: 0x0, symName: __ZNSt3__120__shared_ptr_emplaceI5ValueNS_9allocatorIS1_EEE21__on_zero_shared_weakEv, symObjAddr: 0x13518, symBinAddr: 0x1000147E4, symSize: 0x5C }
  - { offset: 0x55B0C, size: 0x8, addend: 0x0, symName: __ZNSt3__114__shared_countC2B8ne180100El, symObjAddr: 0x13574, symBinAddr: 0x100014840, symSize: 0x30 }
  - { offset: 0x55B44, size: 0x8, addend: 0x0, symName: __ZNSt3__120__shared_ptr_emplaceI5ValueNS_9allocatorIS1_EEE8_StorageC2B8ne180100EOS3_, symObjAddr: 0x135A4, symBinAddr: 0x100014870, symSize: 0x30 }
  - { offset: 0x55B7D, size: 0x8, addend: 0x0, symName: __ZNSt3__120__shared_ptr_emplaceI5ValueNS_9allocatorIS1_EEE8_Storage11__get_allocB8ne180100Ev, symObjAddr: 0x135D4, symBinAddr: 0x1000148A0, symSize: 0x3C }
  - { offset: 0x55BD0, size: 0x8, addend: 0x0, symName: __ZNSt3__117__compressed_pairINS_9allocatorI5ValueEES2_E16__get_first_baseB8ne180100EPS4_, symObjAddr: 0x13610, symBinAddr: 0x1000148DC, symSize: 0x14 }
  - { offset: 0x55BF3, size: 0x8, addend: 0x0, symName: __ZNSt3__19allocatorI5ValueE9constructB8ne180100IS1_JRKdEEEvPT_DpOT0_, symObjAddr: 0x13624, symBinAddr: 0x1000148F0, symSize: 0x88 }
  - { offset: 0x55C49, size: 0x8, addend: 0x0, symName: __ZN5ValueC1EdRKNSt3__112basic_stringIcNS0_11char_traitsIcEENS0_9allocatorIcEEEE, symObjAddr: 0x136AC, symBinAddr: 0x100014978, symSize: 0x3C }
  - { offset: 0x55C8F, size: 0x8, addend: 0x0, symName: __ZNSt3__123enable_shared_from_thisI5ValueEC2B8ne180100Ev, symObjAddr: 0x137AC, symBinAddr: 0x100014A78, symSize: 0x2C }
  - { offset: 0x55CB9, size: 0x8, addend: 0x0, symName: __ZNSt3__18functionIFvvEEC1IZN5ValueC1EdRKNS_12basic_stringIcNS_11char_traitsIcEENS_9allocatorIcEEEEEUlvE_vEET_, symObjAddr: 0x137D8, symBinAddr: 0x100014AA4, symSize: 0x2C }
  - { offset: 0x55CFE, size: 0x8, addend: 0x0, symName: __ZNSt3__123enable_shared_from_thisI5ValueED2B8ne180100Ev, symObjAddr: 0x13804, symBinAddr: 0x100014AD0, symSize: 0x2C }
  - { offset: 0x55D28, size: 0x8, addend: 0x0, symName: __ZNSt3__18weak_ptrI5ValueEC1Ev, symObjAddr: 0x13830, symBinAddr: 0x100014AFC, symSize: 0x2C }
  - { offset: 0x55D54, size: 0x8, addend: 0x0, symName: __ZNSt3__18weak_ptrI5ValueEC2Ev, symObjAddr: 0x1385C, symBinAddr: 0x100014B28, symSize: 0x1C }
  - { offset: 0x55D80, size: 0x8, addend: 0x0, symName: __ZNSt3__18functionIFvvEEC2IZN5ValueC1EdRKNS_12basic_stringIcNS_11char_traitsIcEENS_9allocatorIcEEEEEUlvE_vEET_, symObjAddr: 0x13878, symBinAddr: 0x100014B44, symSize: 0x30 }
  - { offset: 0x55DC5, size: 0x8, addend: 0x0, symName: __ZNSt3__110__function12__value_funcIFvvEEC1B8ne180100IZN5ValueC1EdRKNS_12basic_stringIcNS_11char_traitsIcEENS_9allocatorIcEEEEEUlvE_Li0EEEOT_, symObjAddr: 0x138A8, symBinAddr: 0x100014B74, symSize: 0x50 }
  - { offset: 0x55E0D, size: 0x8, addend: 0x0, symName: __ZNSt3__19allocatorIZN5ValueC1EdRKNS_12basic_stringIcNS_11char_traitsIcEENS0_IcEEEEEUlvE_EC1B8ne180100Ev, symObjAddr: 0x138F8, symBinAddr: 0x100014BC4, symSize: 0x2C }
  - { offset: 0x55E37, size: 0x8, addend: 0x0, symName: __ZNSt3__110__function12__value_funcIFvvEEC1B8ne180100IZN5ValueC1EdRKNS_12basic_stringIcNS_11char_traitsIcEENS_9allocatorIcEEEEEUlvE_NS9_ISE_EEEEOT_RKT0_, symObjAddr: 0x13924, symBinAddr: 0x100014BF0, symSize: 0x3C }
  - { offset: 0x55E91, size: 0x8, addend: 0x0, symName: __ZNSt3__19allocatorIZN5ValueC1EdRKNS_12basic_stringIcNS_11char_traitsIcEENS0_IcEEEEEUlvE_EC2B8ne180100Ev, symObjAddr: 0x13960, symBinAddr: 0x100014C2C, symSize: 0x2C }
  - { offset: 0x55EBB, size: 0x8, addend: 0x0, symName: __ZNSt3__116__non_trivial_ifILb1ENS_9allocatorIZN5ValueC1EdRKNS_12basic_stringIcNS_11char_traitsIcEENS1_IcEEEEEUlvE_EEEC2B8ne180100Ev, symObjAddr: 0x1398C, symBinAddr: 0x100014C58, symSize: 0x14 }
  - { offset: 0x55EE5, size: 0x8, addend: 0x0, symName: __ZNSt3__110__function12__value_funcIFvvEEC2B8ne180100IZN5ValueC1EdRKNS_12basic_stringIcNS_11char_traitsIcEENS_9allocatorIcEEEEEUlvE_NS9_ISE_EEEEOT_RKT0_, symObjAddr: 0x139A0, symBinAddr: 0x100014C6C, symSize: 0x94 }
  - { offset: 0x55F91, size: 0x8, addend: 0x0, symName: __ZNSt3__19allocatorINS_10__function6__funcIZN5ValueC1EdRKNS_12basic_stringIcNS_11char_traitsIcEENS0_IcEEEEEUlvE_NS0_ISB_EEFvvEEEEC1B8ne180100ISB_EERKNS0_IT_EE, symObjAddr: 0x13A4C, symBinAddr: 0x100014D18, symSize: 0x34 }
  - { offset: 0x55FD4, size: 0x8, addend: 0x0, symName: __ZNSt3__19allocatorIZN5ValueC1EdRKNS_12basic_stringIcNS_11char_traitsIcEENS0_IcEEEEEUlvE_EC1B8ne180100INS_10__function6__funcIS9_SA_FvvEEEEERKNS0_IT_EE, symObjAddr: 0x13A80, symBinAddr: 0x100014D4C, symSize: 0x34 }
  - { offset: 0x56011, size: 0x8, addend: 0x0, symName: __ZNSt3__110__function6__funcIZN5ValueC1EdRKNS_12basic_stringIcNS_11char_traitsIcEENS_9allocatorIcEEEEEUlvE_NS6_ISB_EEFvvEEC1B8ne180100EOSB_OSC_, symObjAddr: 0x13AB4, symBinAddr: 0x100014D80, symSize: 0x3C }
  - { offset: 0x56059, size: 0x8, addend: 0x0, symName: __ZNSt3__19allocatorINS_10__function6__funcIZN5ValueC1EdRKNS_12basic_stringIcNS_11char_traitsIcEENS0_IcEEEEEUlvE_NS0_ISB_EEFvvEEEEC2B8ne180100ISB_EERKNS0_IT_EE, symObjAddr: 0x13AF0, symBinAddr: 0x100014DBC, symSize: 0x30 }
  - { offset: 0x56096, size: 0x8, addend: 0x0, symName: __ZNSt3__116__non_trivial_ifILb1ENS_9allocatorINS_10__function6__funcIZN5ValueC1EdRKNS_12basic_stringIcNS_11char_traitsIcEENS1_IcEEEEEUlvE_NS1_ISC_EEFvvEEEEEEC2B8ne180100Ev, symObjAddr: 0x13B20, symBinAddr: 0x100014DEC, symSize: 0x14 }
  - { offset: 0x560C0, size: 0x8, addend: 0x0, symName: __ZNSt3__19allocatorIZN5ValueC1EdRKNS_12basic_stringIcNS_11char_traitsIcEENS0_IcEEEEEUlvE_EC2B8ne180100INS_10__function6__funcIS9_SA_FvvEEEEERKNS0_IT_EE, symObjAddr: 0x13B34, symBinAddr: 0x100014E00, symSize: 0x30 }
  - { offset: 0x560FD, size: 0x8, addend: 0x0, symName: __ZNSt3__110__function6__funcIZN5ValueC1EdRKNS_12basic_stringIcNS_11char_traitsIcEENS_9allocatorIcEEEEEUlvE_NS6_ISB_EEFvvEEC2B8ne180100EOSB_OSC_, symObjAddr: 0x13B64, symBinAddr: 0x100014E30, symSize: 0x80 }
  - { offset: 0x56145, size: 0x8, addend: 0x0, symName: __ZNSt3__110__function6__baseIFvvEEC2B8ne180100Ev, symObjAddr: 0x13BE4, symBinAddr: 0x100014EB0, symSize: 0x24 }
  - { offset: 0x5616F, size: 0x8, addend: 0x0, symName: __ZNSt3__110__function12__alloc_funcIZN5ValueC1EdRKNS_12basic_stringIcNS_11char_traitsIcEENS_9allocatorIcEEEEEUlvE_NS6_ISB_EEFvvEEC1B8ne180100EOSB_OSC_, symObjAddr: 0x13C08, symBinAddr: 0x100014ED4, symSize: 0x3C }
  - { offset: 0x561B5, size: 0x8, addend: 0x0, symName: __ZNSt3__110__function6__baseIFvvEED2Ev, symObjAddr: 0x13C44, symBinAddr: 0x100014F10, symSize: 0x14 }
  - { offset: 0x561DF, size: 0x8, addend: 0x0, symName: __ZNSt3__110__function6__funcIZN5ValueC1EdRKNS_12basic_stringIcNS_11char_traitsIcEENS_9allocatorIcEEEEEUlvE_NS6_ISB_EEFvvEED1Ev, symObjAddr: 0x13C58, symBinAddr: 0x100014F24, symSize: 0x2C }
  - { offset: 0x5620B, size: 0x8, addend: 0x0, symName: __ZNSt3__110__function6__funcIZN5ValueC1EdRKNS_12basic_stringIcNS_11char_traitsIcEENS_9allocatorIcEEEEEUlvE_NS6_ISB_EEFvvEED0Ev, symObjAddr: 0x13C84, symBinAddr: 0x100014F50, symSize: 0x30 }
  - { offset: 0x56237, size: 0x8, addend: 0x0, symName: __ZNKSt3__110__function6__funcIZN5ValueC1EdRKNS_12basic_stringIcNS_11char_traitsIcEENS_9allocatorIcEEEEEUlvE_NS6_ISB_EEFvvEE7__cloneEv, symObjAddr: 0x13CB4, symBinAddr: 0x100014F80, symSize: 0xFC }
  - { offset: 0x56289, size: 0x8, addend: 0x0, symName: __ZNKSt3__110__function6__funcIZN5ValueC1EdRKNS_12basic_stringIcNS_11char_traitsIcEENS_9allocatorIcEEEEEUlvE_NS6_ISB_EEFvvEE7__cloneEPNS0_6__baseISD_EE, symObjAddr: 0x13DB0, symBinAddr: 0x10001507C, symSize: 0x58 }
  - { offset: 0x562C0, size: 0x8, addend: 0x0, symName: __ZNSt3__110__function6__funcIZN5ValueC1EdRKNS_12basic_stringIcNS_11char_traitsIcEENS_9allocatorIcEEEEEUlvE_NS6_ISB_EEFvvEE7destroyEv, symObjAddr: 0x13E08, symBinAddr: 0x1000150D4, symSize: 0x28 }
  - { offset: 0x562E8, size: 0x8, addend: 0x0, symName: __ZNSt3__110__function6__funcIZN5ValueC1EdRKNS_12basic_stringIcNS_11char_traitsIcEENS_9allocatorIcEEEEEUlvE_NS6_ISB_EEFvvEE18destroy_deallocateEv, symObjAddr: 0x13E30, symBinAddr: 0x1000150FC, symSize: 0x58 }
  - { offset: 0x5632B, size: 0x8, addend: 0x0, symName: __ZNSt3__110__function6__funcIZN5ValueC1EdRKNS_12basic_stringIcNS_11char_traitsIcEENS_9allocatorIcEEEEEUlvE_NS6_ISB_EEFvvEEclEv, symObjAddr: 0x13E88, symBinAddr: 0x100015154, symSize: 0x28 }
  - { offset: 0x56353, size: 0x8, addend: 0x0, symName: __ZNKSt3__110__function6__funcIZN5ValueC1EdRKNS_12basic_stringIcNS_11char_traitsIcEENS_9allocatorIcEEEEEUlvE_NS6_ISB_EEFvvEE6targetERKSt9type_info, symObjAddr: 0x13EB0, symBinAddr: 0x10001517C, symSize: 0x60 }
  - { offset: 0x5638A, size: 0x8, addend: 0x0, symName: __ZNKSt3__110__function6__funcIZN5ValueC1EdRKNS_12basic_stringIcNS_11char_traitsIcEENS_9allocatorIcEEEEEUlvE_NS6_ISB_EEFvvEE11target_typeEv, symObjAddr: 0x13F10, symBinAddr: 0x1000151DC, symSize: 0x18 }
  - { offset: 0x563B2, size: 0x8, addend: 0x0, symName: __ZNSt3__110__function6__baseIFvvEED1Ev, symObjAddr: 0x13F28, symBinAddr: 0x1000151F4, symSize: 0x14 }
  - { offset: 0x563DC, size: 0x8, addend: 0x0, symName: __ZNSt3__110__function6__baseIFvvEED0Ev, symObjAddr: 0x13F3C, symBinAddr: 0x100015208, symSize: 0xC }
  - { offset: 0x56406, size: 0x8, addend: 0x0, symName: __ZNSt3__110__function12__alloc_funcIZN5ValueC1EdRKNS_12basic_stringIcNS_11char_traitsIcEENS_9allocatorIcEEEEEUlvE_NS6_ISB_EEFvvEEC2B8ne180100EOSB_OSC_, symObjAddr: 0x13F48, symBinAddr: 0x100015214, symSize: 0x5C }
  - { offset: 0x5644C, size: 0x8, addend: 0x0, symName: __ZNSt3__117__compressed_pairIZN5ValueC1EdRKNS_12basic_stringIcNS_11char_traitsIcEENS_9allocatorIcEEEEEUlvE_NS5_ISA_EEEC1B8ne180100IJOSA_EJOSB_EEENS_21piecewise_construct_tENS_5tupleIJDpT_EEENSH_IJDpT0_EEE, symObjAddr: 0x13FFC, symBinAddr: 0x1000152C8, symSize: 0x3C }
  - { offset: 0x564B6, size: 0x8, addend: 0x0, symName: __ZNSt3__15tupleIJOZN5ValueC1EdRKNS_12basic_stringIcNS_11char_traitsIcEENS_9allocatorIcEEEEEUlvE_EEC1B8ne180100IJSA_ELi0EEEDpOT_, symObjAddr: 0x14038, symBinAddr: 0x100015304, symSize: 0x34 }
  - { offset: 0x56500, size: 0x8, addend: 0x0, symName: __ZNSt3__15tupleIJOZN5ValueC1EdRKNS_12basic_stringIcNS_11char_traitsIcEENS_9allocatorIcEEEEEUlvE_EEC2B8ne180100IJSA_ELi0EEEDpOT_, symObjAddr: 0x1406C, symBinAddr: 0x100015338, symSize: 0x34 }
  - { offset: 0x5654A, size: 0x8, addend: 0x0, symName: __ZNSt3__112__tuple_implINS_15__tuple_indicesIJLm0EEEEJOZN5ValueC1EdRKNS_12basic_stringIcNS_11char_traitsIcEENS_9allocatorIcEEEEEUlvE_EEC1B8ne180100IJLm0EEJSD_EJEJEJSC_EEENS1_IJXspT_EEEENS_13__tuple_typesIJDpT0_EEENS1_IJXspT1_EEEENSH_IJDpT2_EEEDpOT3_, symObjAddr: 0x140A0, symBinAddr: 0x10001536C, symSize: 0x34 }
  - { offset: 0x565DF, size: 0x8, addend: 0x0, symName: __ZNSt3__112__tuple_implINS_15__tuple_indicesIJLm0EEEEJOZN5ValueC1EdRKNS_12basic_stringIcNS_11char_traitsIcEENS_9allocatorIcEEEEEUlvE_EEC2B8ne180100IJLm0EEJSD_EJEJEJSC_EEENS1_IJXspT_EEEENS_13__tuple_typesIJDpT0_EEENS1_IJXspT1_EEEENSH_IJDpT2_EEEDpOT3_, symObjAddr: 0x140D4, symBinAddr: 0x1000153A0, symSize: 0x34 }
  - { offset: 0x56674, size: 0x8, addend: 0x0, symName: __ZNSt3__112__tuple_leafILm0EOZN5ValueC1EdRKNS_12basic_stringIcNS_11char_traitsIcEENS_9allocatorIcEEEEEUlvE_Lb0EEC2B8ne180100ISA_vEEOT_, symObjAddr: 0x14108, symBinAddr: 0x1000153D4, symSize: 0x20 }
  - { offset: 0x566B7, size: 0x8, addend: 0x0, symName: __ZNSt3__15tupleIJONS_9allocatorIZN5ValueC1EdRKNS_12basic_stringIcNS_11char_traitsIcEENS1_IcEEEEEUlvE_EEEEC1B8ne180100IJSB_ELi0EEEDpOT_, symObjAddr: 0x14128, symBinAddr: 0x1000153F4, symSize: 0x34 }
  - { offset: 0x56701, size: 0x8, addend: 0x0, symName: __ZNSt3__15tupleIJONS_9allocatorIZN5ValueC1EdRKNS_12basic_stringIcNS_11char_traitsIcEENS1_IcEEEEEUlvE_EEEEC2B8ne180100IJSB_ELi0EEEDpOT_, symObjAddr: 0x1415C, symBinAddr: 0x100015428, symSize: 0x34 }
  - { offset: 0x5674B, size: 0x8, addend: 0x0, symName: __ZNSt3__112__tuple_implINS_15__tuple_indicesIJLm0EEEEJONS_9allocatorIZN5ValueC1EdRKNS_12basic_stringIcNS_11char_traitsIcEENS3_IcEEEEEUlvE_EEEEC1B8ne180100IJLm0EEJSE_EJEJEJSD_EEENS1_IJXspT_EEEENS_13__tuple_typesIJDpT0_EEENS1_IJXspT1_EEEENSI_IJDpT2_EEEDpOT3_, symObjAddr: 0x14190, symBinAddr: 0x10001545C, symSize: 0x34 }
  - { offset: 0x567E0, size: 0x8, addend: 0x0, symName: __ZNSt3__112__tuple_implINS_15__tuple_indicesIJLm0EEEEJONS_9allocatorIZN5ValueC1EdRKNS_12basic_stringIcNS_11char_traitsIcEENS3_IcEEEEEUlvE_EEEEC2B8ne180100IJLm0EEJSE_EJEJEJSD_EEENS1_IJXspT_EEEENS_13__tuple_typesIJDpT0_EEENS1_IJXspT1_EEEENSI_IJDpT2_EEEDpOT3_, symObjAddr: 0x141C4, symBinAddr: 0x100015490, symSize: 0x34 }
  - { offset: 0x56875, size: 0x8, addend: 0x0, symName: __ZNSt3__112__tuple_leafILm0EONS_9allocatorIZN5ValueC1EdRKNS_12basic_stringIcNS_11char_traitsIcEENS1_IcEEEEEUlvE_EELb0EEC2B8ne180100ISB_vEEOT_, symObjAddr: 0x141F8, symBinAddr: 0x1000154C4, symSize: 0x20 }
  - { offset: 0x568B8, size: 0x8, addend: 0x0, symName: __ZNSt3__117__compressed_pairIZN5ValueC1EdRKNS_12basic_stringIcNS_11char_traitsIcEENS_9allocatorIcEEEEEUlvE_NS5_ISA_EEEC2B8ne180100IJOSA_EJOSB_EEENS_21piecewise_construct_tENS_5tupleIJDpT_EEENSH_IJDpT0_EEE, symObjAddr: 0x14218, symBinAddr: 0x1000154E4, symSize: 0x54 }
  - { offset: 0x56922, size: 0x8, addend: 0x0, symName: __ZNSt3__122__compressed_pair_elemIZN5ValueC1EdRKNS_12basic_stringIcNS_11char_traitsIcEENS_9allocatorIcEEEEEUlvE_Li0ELb1EEC2B8ne180100IJOSA_EJLm0EEEENS_21piecewise_construct_tENS_5tupleIJDpT_EEENS_15__tuple_indicesIJXspT0_EEEE, symObjAddr: 0x1426C, symBinAddr: 0x100015538, symSize: 0x38 }
  - { offset: 0x56985, size: 0x8, addend: 0x0, symName: __ZNSt3__122__compressed_pair_elemINS_9allocatorIZN5ValueC1EdRKNS_12basic_stringIcNS_11char_traitsIcEENS1_IcEEEEEUlvE_EELi1ELb1EEC2B8ne180100IJOSB_EJLm0EEEENS_21piecewise_construct_tENS_5tupleIJDpT_EEENS_15__tuple_indicesIJXspT0_EEEE, symObjAddr: 0x142A4, symBinAddr: 0x100015570, symSize: 0x38 }
  - { offset: 0x569E8, size: 0x8, addend: 0x0, symName: __ZNSt3__112__tuple_leafILm0EOZN5ValueC1EdRKNS_12basic_stringIcNS_11char_traitsIcEENS_9allocatorIcEEEEEUlvE_Lb0EE3getB8ne180100Ev, symObjAddr: 0x14300, symBinAddr: 0x1000155CC, symSize: 0x18 }
  - { offset: 0x56A0E, size: 0x8, addend: 0x0, symName: __ZNSt3__112__tuple_leafILm0EONS_9allocatorIZN5ValueC1EdRKNS_12basic_stringIcNS_11char_traitsIcEENS1_IcEEEEEUlvE_EELb0EE3getB8ne180100Ev, symObjAddr: 0x1433C, symBinAddr: 0x100015608, symSize: 0x18 }
  - { offset: 0x56A34, size: 0x8, addend: 0x0, symName: __ZNSt3__110__function6__funcIZN5ValueC1EdRKNS_12basic_stringIcNS_11char_traitsIcEENS_9allocatorIcEEEEEUlvE_NS6_ISB_EEFvvEED2Ev, symObjAddr: 0x14354, symBinAddr: 0x100015620, symSize: 0x2C }
  - { offset: 0x56A60, size: 0x8, addend: 0x0, symName: __ZNKSt3__110__function12__alloc_funcIZN5ValueC1EdRKNS_12basic_stringIcNS_11char_traitsIcEENS_9allocatorIcEEEEEUlvE_NS6_ISB_EEFvvEE15__get_allocatorB8ne180100Ev, symObjAddr: 0x14380, symBinAddr: 0x10001564C, symSize: 0x24 }
  - { offset: 0x56A86, size: 0x8, addend: 0x0, symName: __ZNSt3__19allocatorINS_10__function6__funcIZN5ValueC1EdRKNS_12basic_stringIcNS_11char_traitsIcEENS0_IcEEEEEUlvE_NS0_ISB_EEFvvEEEE8allocateB8ne180100Em, symObjAddr: 0x143A4, symBinAddr: 0x100015670, symSize: 0x58 }
  - { offset: 0x56ACC, size: 0x8, addend: 0x0, symName: __ZNSt3__122__allocator_destructorINS_9allocatorINS_10__function6__funcIZN5ValueC1EdRKNS_12basic_stringIcNS_11char_traitsIcEENS1_IcEEEEEUlvE_NS1_ISC_EEFvvEEEEEEC1B8ne180100ERSG_m, symObjAddr: 0x143FC, symBinAddr: 0x1000156C8, symSize: 0x3C }
  - { offset: 0x56BB3, size: 0x8, addend: 0x0, symName: __ZNSt3__110unique_ptrINS_10__function6__funcIZN5ValueC1EdRKNS_12basic_stringIcNS_11char_traitsIcEENS_9allocatorIcEEEEEUlvE_NS7_ISC_EEFvvEEENS_22__allocator_destructorINS7_ISF_EEEEEC1B8ne180100ILb1EvEEPSF_NS_16__dependent_typeINS_27__unique_ptr_deleter_sfinaeISI_EEXT_EE20__good_rval_ref_typeE, symObjAddr: 0x14438, symBinAddr: 0x100015704, symSize: 0x3C }
  - { offset: 0x56C04, size: 0x8, addend: 0x0, symName: __ZNKSt3__110unique_ptrINS_10__function6__funcIZN5ValueC1EdRKNS_12basic_stringIcNS_11char_traitsIcEENS_9allocatorIcEEEEEUlvE_NS7_ISC_EEFvvEEENS_22__allocator_destructorINS7_ISF_EEEEE3getB8ne180100Ev, symObjAddr: 0x14474, symBinAddr: 0x100015740, symSize: 0x28 }
  - { offset: 0x56C2A, size: 0x8, addend: 0x0, symName: __ZNKSt3__110__function12__alloc_funcIZN5ValueC1EdRKNS_12basic_stringIcNS_11char_traitsIcEENS_9allocatorIcEEEEEUlvE_NS6_ISB_EEFvvEE8__targetB8ne180100Ev, symObjAddr: 0x1449C, symBinAddr: 0x100015768, symSize: 0x24 }
  - { offset: 0x56C50, size: 0x8, addend: 0x0, symName: __ZNSt3__110__function6__funcIZN5ValueC1EdRKNS_12basic_stringIcNS_11char_traitsIcEENS_9allocatorIcEEEEEUlvE_NS6_ISB_EEFvvEEC1B8ne180100ERKSB_OSC_, symObjAddr: 0x144C0, symBinAddr: 0x10001578C, symSize: 0x3C }
  - { offset: 0x56C98, size: 0x8, addend: 0x0, symName: __ZNSt3__110unique_ptrINS_10__function6__funcIZN5ValueC1EdRKNS_12basic_stringIcNS_11char_traitsIcEENS_9allocatorIcEEEEEUlvE_NS7_ISC_EEFvvEEENS_22__allocator_destructorINS7_ISF_EEEEE7releaseB8ne180100Ev, symObjAddr: 0x144FC, symBinAddr: 0x1000157C8, symSize: 0x44 }
  - { offset: 0x56CCD, size: 0x8, addend: 0x0, symName: __ZNSt3__110unique_ptrINS_10__function6__funcIZN5ValueC1EdRKNS_12basic_stringIcNS_11char_traitsIcEENS_9allocatorIcEEEEEUlvE_NS7_ISC_EEFvvEEENS_22__allocator_destructorINS7_ISF_EEEEED1B8ne180100Ev, symObjAddr: 0x14540, symBinAddr: 0x10001580C, symSize: 0x2C }
  - { offset: 0x56CF7, size: 0x8, addend: 0x0, symName: __ZNKSt3__117__compressed_pairIZN5ValueC1EdRKNS_12basic_stringIcNS_11char_traitsIcEENS_9allocatorIcEEEEEUlvE_NS5_ISA_EEE6secondB8ne180100Ev, symObjAddr: 0x1456C, symBinAddr: 0x100015838, symSize: 0x24 }
  - { offset: 0x56D1D, size: 0x8, addend: 0x0, symName: __ZNKSt3__122__compressed_pair_elemINS_9allocatorIZN5ValueC1EdRKNS_12basic_stringIcNS_11char_traitsIcEENS1_IcEEEEEUlvE_EELi1ELb1EE5__getB8ne180100Ev, symObjAddr: 0x14590, symBinAddr: 0x10001585C, symSize: 0x14 }
  - { offset: 0x56D4E, size: 0x8, addend: 0x0, symName: __ZNSt3__116allocator_traitsINS_9allocatorINS_10__function6__funcIZN5ValueC1EdRKNS_12basic_stringIcNS_11char_traitsIcEENS1_IcEEEEEUlvE_NS1_ISC_EEFvvEEEEEE8max_sizeB8ne180100ISG_vEEmRKSG_, symObjAddr: 0x145A4, symBinAddr: 0x100015870, symSize: 0x24 }
  - { offset: 0x56D7C, size: 0x8, addend: 0x0, symName: __ZNKSt3__19allocatorINS_10__function6__funcIZN5ValueC1EdRKNS_12basic_stringIcNS_11char_traitsIcEENS0_IcEEEEEUlvE_NS0_ISB_EEFvvEEEE8max_sizeB8ne180100Ev, symObjAddr: 0x145C8, symBinAddr: 0x100015894, symSize: 0x14 }
  - { offset: 0x56DA2, size: 0x8, addend: 0x0, symName: __ZNSt3__122__allocator_destructorINS_9allocatorINS_10__function6__funcIZN5ValueC1EdRKNS_12basic_stringIcNS_11char_traitsIcEENS1_IcEEEEEUlvE_NS1_ISC_EEFvvEEEEEEC2B8ne180100ERSG_m, symObjAddr: 0x145DC, symBinAddr: 0x1000158A8, symSize: 0x2C }
  - { offset: 0x56DE8, size: 0x8, addend: 0x0, symName: __ZNSt3__110unique_ptrINS_10__function6__funcIZN5ValueC1EdRKNS_12basic_stringIcNS_11char_traitsIcEENS_9allocatorIcEEEEEUlvE_NS7_ISC_EEFvvEEENS_22__allocator_destructorINS7_ISF_EEEEEC2B8ne180100ILb1EvEEPSF_NS_16__dependent_typeINS_27__unique_ptr_deleter_sfinaeISI_EEXT_EE20__good_rval_ref_typeE, symObjAddr: 0x14608, symBinAddr: 0x1000158D4, symSize: 0x48 }
  - { offset: 0x56E39, size: 0x8, addend: 0x0, symName: __ZNSt3__117__compressed_pairIPNS_10__function6__funcIZN5ValueC1EdRKNS_12basic_stringIcNS_11char_traitsIcEENS_9allocatorIcEEEEEUlvE_NS7_ISC_EEFvvEEENS_22__allocator_destructorINS7_ISF_EEEEEC1B8ne180100IRSG_SJ_EEOT_OT0_, symObjAddr: 0x14650, symBinAddr: 0x10001591C, symSize: 0x3C }
  - { offset: 0x56E91, size: 0x8, addend: 0x0, symName: __ZNSt3__117__compressed_pairIPNS_10__function6__funcIZN5ValueC1EdRKNS_12basic_stringIcNS_11char_traitsIcEENS_9allocatorIcEEEEEUlvE_NS7_ISC_EEFvvEEENS_22__allocator_destructorINS7_ISF_EEEEEC2B8ne180100IRSG_SJ_EEOT_OT0_, symObjAddr: 0x1468C, symBinAddr: 0x100015958, symSize: 0x48 }
  - { offset: 0x56EE9, size: 0x8, addend: 0x0, symName: __ZNSt3__122__compressed_pair_elemIPNS_10__function6__funcIZN5ValueC1EdRKNS_12basic_stringIcNS_11char_traitsIcEENS_9allocatorIcEEEEEUlvE_NS7_ISC_EEFvvEEELi0ELb0EEC2B8ne180100IRSG_vEEOT_, symObjAddr: 0x146D4, symBinAddr: 0x1000159A0, symSize: 0x24 }
  - { offset: 0x56F2B, size: 0x8, addend: 0x0, symName: __ZNSt3__122__compressed_pair_elemINS_22__allocator_destructorINS_9allocatorINS_10__function6__funcIZN5ValueC1EdRKNS_12basic_stringIcNS_11char_traitsIcEENS2_IcEEEEEUlvE_NS2_ISD_EEFvvEEEEEEELi1ELb0EEC2B8ne180100ISI_vEEOT_, symObjAddr: 0x146F8, symBinAddr: 0x1000159C4, symSize: 0x24 }
  - { offset: 0x56F6D, size: 0x8, addend: 0x0, symName: __ZNKSt3__117__compressed_pairIPNS_10__function6__funcIZN5ValueC1EdRKNS_12basic_stringIcNS_11char_traitsIcEENS_9allocatorIcEEEEEUlvE_NS7_ISC_EEFvvEEENS_22__allocator_destructorINS7_ISF_EEEEE5firstB8ne180100Ev, symObjAddr: 0x1471C, symBinAddr: 0x1000159E8, symSize: 0x24 }
  - { offset: 0x56F93, size: 0x8, addend: 0x0, symName: __ZNKSt3__122__compressed_pair_elemIPNS_10__function6__funcIZN5ValueC1EdRKNS_12basic_stringIcNS_11char_traitsIcEENS_9allocatorIcEEEEEUlvE_NS7_ISC_EEFvvEEELi0ELb0EE5__getB8ne180100Ev, symObjAddr: 0x14740, symBinAddr: 0x100015A0C, symSize: 0x14 }
  - { offset: 0x56FB9, size: 0x8, addend: 0x0, symName: __ZNKSt3__117__compressed_pairIZN5ValueC1EdRKNS_12basic_stringIcNS_11char_traitsIcEENS_9allocatorIcEEEEEUlvE_NS5_ISA_EEE5firstB8ne180100Ev, symObjAddr: 0x14754, symBinAddr: 0x100015A20, symSize: 0x24 }
  - { offset: 0x56FDF, size: 0x8, addend: 0x0, symName: __ZNKSt3__122__compressed_pair_elemIZN5ValueC1EdRKNS_12basic_stringIcNS_11char_traitsIcEENS_9allocatorIcEEEEEUlvE_Li0ELb1EE5__getB8ne180100Ev, symObjAddr: 0x14778, symBinAddr: 0x100015A44, symSize: 0x14 }
  - { offset: 0x57005, size: 0x8, addend: 0x0, symName: __ZNSt3__110__function6__funcIZN5ValueC1EdRKNS_12basic_stringIcNS_11char_traitsIcEENS_9allocatorIcEEEEEUlvE_NS6_ISB_EEFvvEEC2B8ne180100ERKSB_OSC_, symObjAddr: 0x1478C, symBinAddr: 0x100015A58, symSize: 0x80 }
  - { offset: 0x5704D, size: 0x8, addend: 0x0, symName: __ZNSt3__110__function12__alloc_funcIZN5ValueC1EdRKNS_12basic_stringIcNS_11char_traitsIcEENS_9allocatorIcEEEEEUlvE_NS6_ISB_EEFvvEEC1B8ne180100ERKSB_OSC_, symObjAddr: 0x1480C, symBinAddr: 0x100015AD8, symSize: 0x3C }
  - { offset: 0x57093, size: 0x8, addend: 0x0, symName: __ZNSt3__110__function12__alloc_funcIZN5ValueC1EdRKNS_12basic_stringIcNS_11char_traitsIcEENS_9allocatorIcEEEEEUlvE_NS6_ISB_EEFvvEEC2B8ne180100ERKSB_OSC_, symObjAddr: 0x14848, symBinAddr: 0x100015B14, symSize: 0x5C }
  - { offset: 0x570D9, size: 0x8, addend: 0x0, symName: __ZNSt3__117__compressed_pairIZN5ValueC1EdRKNS_12basic_stringIcNS_11char_traitsIcEENS_9allocatorIcEEEEEUlvE_NS5_ISA_EEEC1B8ne180100IJRKSA_EJOSB_EEENS_21piecewise_construct_tENS_5tupleIJDpT_EEENSI_IJDpT0_EEE, symObjAddr: 0x148D0, symBinAddr: 0x100015B9C, symSize: 0x3C }
  - { offset: 0x57143, size: 0x8, addend: 0x0, symName: __ZNSt3__15tupleIJRKZN5ValueC1EdRKNS_12basic_stringIcNS_11char_traitsIcEENS_9allocatorIcEEEEEUlvE_EEC1B8ne180100INS_4_AndELi0EEESC_, symObjAddr: 0x1490C, symBinAddr: 0x100015BD8, symSize: 0x34 }
  - { offset: 0x5718B, size: 0x8, addend: 0x0, symName: __ZNSt3__15tupleIJRKZN5ValueC1EdRKNS_12basic_stringIcNS_11char_traitsIcEENS_9allocatorIcEEEEEUlvE_EEC2B8ne180100INS_4_AndELi0EEESC_, symObjAddr: 0x14940, symBinAddr: 0x100015C0C, symSize: 0x34 }
  - { offset: 0x571D3, size: 0x8, addend: 0x0, symName: __ZNSt3__112__tuple_implINS_15__tuple_indicesIJLm0EEEEJRKZN5ValueC1EdRKNS_12basic_stringIcNS_11char_traitsIcEENS_9allocatorIcEEEEEUlvE_EEC1B8ne180100IJLm0EEJSE_EJEJEJSE_EEENS1_IJXspT_EEEENS_13__tuple_typesIJDpT0_EEENS1_IJXspT1_EEEENSI_IJDpT2_EEEDpOT3_, symObjAddr: 0x14974, symBinAddr: 0x100015C40, symSize: 0x34 }
  - { offset: 0x57268, size: 0x8, addend: 0x0, symName: __ZNSt3__112__tuple_implINS_15__tuple_indicesIJLm0EEEEJRKZN5ValueC1EdRKNS_12basic_stringIcNS_11char_traitsIcEENS_9allocatorIcEEEEEUlvE_EEC2B8ne180100IJLm0EEJSE_EJEJEJSE_EEENS1_IJXspT_EEEENS_13__tuple_typesIJDpT0_EEENS1_IJXspT1_EEEENSI_IJDpT2_EEEDpOT3_, symObjAddr: 0x149A8, symBinAddr: 0x100015C74, symSize: 0x34 }
  - { offset: 0x572FD, size: 0x8, addend: 0x0, symName: __ZNSt3__112__tuple_leafILm0ERKZN5ValueC1EdRKNS_12basic_stringIcNS_11char_traitsIcEENS_9allocatorIcEEEEEUlvE_Lb0EEC2B8ne180100ISC_vEEOT_, symObjAddr: 0x149DC, symBinAddr: 0x100015CA8, symSize: 0x20 }
  - { offset: 0x57340, size: 0x8, addend: 0x0, symName: __ZNSt3__117__compressed_pairIZN5ValueC1EdRKNS_12basic_stringIcNS_11char_traitsIcEENS_9allocatorIcEEEEEUlvE_NS5_ISA_EEEC2B8ne180100IJRKSA_EJOSB_EEENS_21piecewise_construct_tENS_5tupleIJDpT_EEENSI_IJDpT0_EEE, symObjAddr: 0x149FC, symBinAddr: 0x100015CC8, symSize: 0x54 }
  - { offset: 0x573AA, size: 0x8, addend: 0x0, symName: __ZNSt3__122__compressed_pair_elemIZN5ValueC1EdRKNS_12basic_stringIcNS_11char_traitsIcEENS_9allocatorIcEEEEEUlvE_Li0ELb1EEC2B8ne180100IJRKSA_EJLm0EEEENS_21piecewise_construct_tENS_5tupleIJDpT_EEENS_15__tuple_indicesIJXspT0_EEEE, symObjAddr: 0x14A50, symBinAddr: 0x100015D1C, symSize: 0x38 }
  - { offset: 0x5740D, size: 0x8, addend: 0x0, symName: __ZNSt3__112__tuple_leafILm0ERKZN5ValueC1EdRKNS_12basic_stringIcNS_11char_traitsIcEENS_9allocatorIcEEEEEUlvE_Lb0EE3getB8ne180100Ev, symObjAddr: 0x14AAC, symBinAddr: 0x100015D78, symSize: 0x18 }
  - { offset: 0x57433, size: 0x8, addend: 0x0, symName: __ZNSt3__117__compressed_pairIPNS_10__function6__funcIZN5ValueC1EdRKNS_12basic_stringIcNS_11char_traitsIcEENS_9allocatorIcEEEEEUlvE_NS7_ISC_EEFvvEEENS_22__allocator_destructorINS7_ISF_EEEEE5firstB8ne180100Ev, symObjAddr: 0x14AC4, symBinAddr: 0x100015D90, symSize: 0x24 }
  - { offset: 0x57459, size: 0x8, addend: 0x0, symName: __ZNSt3__122__compressed_pair_elemIPNS_10__function6__funcIZN5ValueC1EdRKNS_12basic_stringIcNS_11char_traitsIcEENS_9allocatorIcEEEEEUlvE_NS7_ISC_EEFvvEEELi0ELb0EE5__getB8ne180100Ev, symObjAddr: 0x14AE8, symBinAddr: 0x100015DB4, symSize: 0x14 }
  - { offset: 0x5747F, size: 0x8, addend: 0x0, symName: __ZNSt3__110unique_ptrINS_10__function6__funcIZN5ValueC1EdRKNS_12basic_stringIcNS_11char_traitsIcEENS_9allocatorIcEEEEEUlvE_NS7_ISC_EEFvvEEENS_22__allocator_destructorINS7_ISF_EEEEED2B8ne180100Ev, symObjAddr: 0x14AFC, symBinAddr: 0x100015DC8, symSize: 0x30 }
  - { offset: 0x574A9, size: 0x8, addend: 0x0, symName: __ZNSt3__110unique_ptrINS_10__function6__funcIZN5ValueC1EdRKNS_12basic_stringIcNS_11char_traitsIcEENS_9allocatorIcEEEEEUlvE_NS7_ISC_EEFvvEEENS_22__allocator_destructorINS7_ISF_EEEEE5resetB8ne180100EPSF_, symObjAddr: 0x14B2C, symBinAddr: 0x100015DF8, symSize: 0x78 }
  - { offset: 0x574ED, size: 0x8, addend: 0x0, symName: __ZNSt3__117__compressed_pairIPNS_10__function6__funcIZN5ValueC1EdRKNS_12basic_stringIcNS_11char_traitsIcEENS_9allocatorIcEEEEEUlvE_NS7_ISC_EEFvvEEENS_22__allocator_destructorINS7_ISF_EEEEE6secondB8ne180100Ev, symObjAddr: 0x14BA4, symBinAddr: 0x100015E70, symSize: 0x28 }
  - { offset: 0x57513, size: 0x8, addend: 0x0, symName: __ZNSt3__122__allocator_destructorINS_9allocatorINS_10__function6__funcIZN5ValueC1EdRKNS_12basic_stringIcNS_11char_traitsIcEENS1_IcEEEEEUlvE_NS1_ISC_EEFvvEEEEEEclB8ne180100EPSF_, symObjAddr: 0x14BCC, symBinAddr: 0x100015E98, symSize: 0x34 }
  - { offset: 0x57547, size: 0x8, addend: 0x0, symName: __ZNSt3__122__compressed_pair_elemINS_22__allocator_destructorINS_9allocatorINS_10__function6__funcIZN5ValueC1EdRKNS_12basic_stringIcNS_11char_traitsIcEENS2_IcEEEEEUlvE_NS2_ISD_EEFvvEEEEEEELi1ELb0EE5__getB8ne180100Ev, symObjAddr: 0x14C00, symBinAddr: 0x100015ECC, symSize: 0x14 }
  - { offset: 0x5756D, size: 0x8, addend: 0x0, symName: __ZNSt3__116allocator_traitsINS_9allocatorINS_10__function6__funcIZN5ValueC1EdRKNS_12basic_stringIcNS_11char_traitsIcEENS1_IcEEEEEUlvE_NS1_ISC_EEFvvEEEEEE10deallocateB8ne180100ERSG_PSF_m, symObjAddr: 0x14C14, symBinAddr: 0x100015EE0, symSize: 0x34 }
  - { offset: 0x575AF, size: 0x8, addend: 0x0, symName: __ZNSt3__19allocatorINS_10__function6__funcIZN5ValueC1EdRKNS_12basic_stringIcNS_11char_traitsIcEENS0_IcEEEEEUlvE_NS0_ISB_EEFvvEEEE10deallocateB8ne180100EPSE_m, symObjAddr: 0x14C48, symBinAddr: 0x100015F14, symSize: 0x40 }
  - { offset: 0x575F1, size: 0x8, addend: 0x0, symName: __ZNSt3__110__function6__funcIZN5ValueC1EdRKNS_12basic_stringIcNS_11char_traitsIcEENS_9allocatorIcEEEEEUlvE_NS6_ISB_EEFvvEEC1B8ne180100ERKSB_RKSC_, symObjAddr: 0x14C88, symBinAddr: 0x100015F54, symSize: 0x3C }
  - { offset: 0x57639, size: 0x8, addend: 0x0, symName: __ZNSt3__110__function6__funcIZN5ValueC1EdRKNS_12basic_stringIcNS_11char_traitsIcEENS_9allocatorIcEEEEEUlvE_NS6_ISB_EEFvvEEC2B8ne180100ERKSB_RKSC_, symObjAddr: 0x14CC4, symBinAddr: 0x100015F90, symSize: 0x80 }
  - { offset: 0x57681, size: 0x8, addend: 0x0, symName: __ZNSt3__110__function12__alloc_funcIZN5ValueC1EdRKNS_12basic_stringIcNS_11char_traitsIcEENS_9allocatorIcEEEEEUlvE_NS6_ISB_EEFvvEEC1B8ne180100ERKSB_RKSC_, symObjAddr: 0x14D44, symBinAddr: 0x100016010, symSize: 0x3C }
  - { offset: 0x576C7, size: 0x8, addend: 0x0, symName: __ZNSt3__110__function12__alloc_funcIZN5ValueC1EdRKNS_12basic_stringIcNS_11char_traitsIcEENS_9allocatorIcEEEEEUlvE_NS6_ISB_EEFvvEEC2B8ne180100ERKSB_RKSC_, symObjAddr: 0x14D80, symBinAddr: 0x10001604C, symSize: 0x5C }
  - { offset: 0x5770D, size: 0x8, addend: 0x0, symName: __ZNSt3__117__compressed_pairIZN5ValueC1EdRKNS_12basic_stringIcNS_11char_traitsIcEENS_9allocatorIcEEEEEUlvE_NS5_ISA_EEEC1B8ne180100IJRKSA_EJRKSB_EEENS_21piecewise_construct_tENS_5tupleIJDpT_EEENSJ_IJDpT0_EEE, symObjAddr: 0x14E08, symBinAddr: 0x1000160D4, symSize: 0x3C }
  - { offset: 0x57777, size: 0x8, addend: 0x0, symName: __ZNSt3__15tupleIJRKNS_9allocatorIZN5ValueC1EdRKNS_12basic_stringIcNS_11char_traitsIcEENS1_IcEEEEEUlvE_EEEEC1B8ne180100INS_4_AndELi0EEESD_, symObjAddr: 0x14E44, symBinAddr: 0x100016110, symSize: 0x34 }
  - { offset: 0x577BF, size: 0x8, addend: 0x0, symName: __ZNSt3__15tupleIJRKNS_9allocatorIZN5ValueC1EdRKNS_12basic_stringIcNS_11char_traitsIcEENS1_IcEEEEEUlvE_EEEEC2B8ne180100INS_4_AndELi0EEESD_, symObjAddr: 0x14E78, symBinAddr: 0x100016144, symSize: 0x34 }
  - { offset: 0x57807, size: 0x8, addend: 0x0, symName: __ZNSt3__112__tuple_implINS_15__tuple_indicesIJLm0EEEEJRKNS_9allocatorIZN5ValueC1EdRKNS_12basic_stringIcNS_11char_traitsIcEENS3_IcEEEEEUlvE_EEEEC1B8ne180100IJLm0EEJSF_EJEJEJSF_EEENS1_IJXspT_EEEENS_13__tuple_typesIJDpT0_EEENS1_IJXspT1_EEEENSJ_IJDpT2_EEEDpOT3_, symObjAddr: 0x14EAC, symBinAddr: 0x100016178, symSize: 0x34 }
  - { offset: 0x5789C, size: 0x8, addend: 0x0, symName: __ZNSt3__112__tuple_implINS_15__tuple_indicesIJLm0EEEEJRKNS_9allocatorIZN5ValueC1EdRKNS_12basic_stringIcNS_11char_traitsIcEENS3_IcEEEEEUlvE_EEEEC2B8ne180100IJLm0EEJSF_EJEJEJSF_EEENS1_IJXspT_EEEENS_13__tuple_typesIJDpT0_EEENS1_IJXspT1_EEEENSJ_IJDpT2_EEEDpOT3_, symObjAddr: 0x14EE0, symBinAddr: 0x1000161AC, symSize: 0x34 }
  - { offset: 0x57931, size: 0x8, addend: 0x0, symName: __ZNSt3__112__tuple_leafILm0ERKNS_9allocatorIZN5ValueC1EdRKNS_12basic_stringIcNS_11char_traitsIcEENS1_IcEEEEEUlvE_EELb0EEC2B8ne180100ISD_vEEOT_, symObjAddr: 0x14F14, symBinAddr: 0x1000161E0, symSize: 0x20 }
  - { offset: 0x57974, size: 0x8, addend: 0x0, symName: __ZNSt3__117__compressed_pairIZN5ValueC1EdRKNS_12basic_stringIcNS_11char_traitsIcEENS_9allocatorIcEEEEEUlvE_NS5_ISA_EEEC2B8ne180100IJRKSA_EJRKSB_EEENS_21piecewise_construct_tENS_5tupleIJDpT_EEENSJ_IJDpT0_EEE, symObjAddr: 0x14F34, symBinAddr: 0x100016200, symSize: 0x54 }
  - { offset: 0x579DE, size: 0x8, addend: 0x0, symName: __ZNSt3__122__compressed_pair_elemINS_9allocatorIZN5ValueC1EdRKNS_12basic_stringIcNS_11char_traitsIcEENS1_IcEEEEEUlvE_EELi1ELb1EEC2B8ne180100IJRKSB_EJLm0EEEENS_21piecewise_construct_tENS_5tupleIJDpT_EEENS_15__tuple_indicesIJXspT0_EEEE, symObjAddr: 0x14F88, symBinAddr: 0x100016254, symSize: 0x38 }
  - { offset: 0x57A41, size: 0x8, addend: 0x0, symName: __ZNSt3__112__tuple_leafILm0ERKNS_9allocatorIZN5ValueC1EdRKNS_12basic_stringIcNS_11char_traitsIcEENS1_IcEEEEEUlvE_EELb0EE3getB8ne180100Ev, symObjAddr: 0x14FE4, symBinAddr: 0x1000162B0, symSize: 0x18 }
  - { offset: 0x57A67, size: 0x8, addend: 0x0, symName: __ZNSt3__110__function12__alloc_funcIZN5ValueC1EdRKNS_12basic_stringIcNS_11char_traitsIcEENS_9allocatorIcEEEEEUlvE_NS6_ISB_EEFvvEE7destroyB8ne180100Ev, symObjAddr: 0x14FFC, symBinAddr: 0x1000162C8, symSize: 0x10 }
  - { offset: 0x57A8D, size: 0x8, addend: 0x0, symName: __ZNSt3__110__function12__alloc_funcIZN5ValueC1EdRKNS_12basic_stringIcNS_11char_traitsIcEENS_9allocatorIcEEEEEUlvE_NS6_ISB_EEFvvEEclB8ne180100Ev, symObjAddr: 0x1500C, symBinAddr: 0x1000162D8, symSize: 0x28 }
  - { offset: 0x57AB3, size: 0x8, addend: 0x0, symName: __ZNSt3__128__invoke_void_return_wrapperIvLb1EE6__callB8ne180100IJRZN5ValueC1EdRKNS_12basic_stringIcNS_11char_traitsIcEENS_9allocatorIcEEEEEUlvE_EEEvDpOT_, symObjAddr: 0x15034, symBinAddr: 0x100016300, symSize: 0x24 }
  - { offset: 0x57AE2, size: 0x8, addend: 0x0, symName: __ZNSt3__117__compressed_pairIZN5ValueC1EdRKNS_12basic_stringIcNS_11char_traitsIcEENS_9allocatorIcEEEEEUlvE_NS5_ISA_EEE5firstB8ne180100Ev, symObjAddr: 0x15058, symBinAddr: 0x100016324, symSize: 0x24 }
  - { offset: 0x57B0E, size: 0x8, addend: 0x0, symName: __ZZN5ValueC1EdRKNSt3__112basic_stringIcNS0_11char_traitsIcEENS0_9allocatorIcEEEEENKUlvE_clEv, symObjAddr: 0x150A0, symBinAddr: 0x10001636C, symSize: 0x10 }
  - { offset: 0x57B38, size: 0x8, addend: 0x0, symName: __ZNSt3__122__compressed_pair_elemIZN5ValueC1EdRKNS_12basic_stringIcNS_11char_traitsIcEENS_9allocatorIcEEEEEUlvE_Li0ELb1EE5__getB8ne180100Ev, symObjAddr: 0x150B0, symBinAddr: 0x10001637C, symSize: 0x14 }
  - { offset: 0x57B92, size: 0x8, addend: 0x0, symName: __ZNKSt9type_infoeqB8ne180100ERKS_, symObjAddr: 0x150C4, symBinAddr: 0x100016390, symSize: 0xDC }
  - { offset: 0x57C2E, size: 0x8, addend: 0x0, symName: __ZNSt27__type_info_implementations30__non_unique_arm_rtti_bit_impl21__is_type_name_uniqueB8ne180100Em, symObjAddr: 0x151A0, symBinAddr: 0x10001646C, symSize: 0x20 }
  - { offset: 0x57C52, size: 0x8, addend: 0x0, symName: __ZNSt3__18weak_ptrI5ValueED1Ev, symObjAddr: 0x151C0, symBinAddr: 0x10001648C, symSize: 0x2C }
  - { offset: 0x57C7E, size: 0x8, addend: 0x0, symName: __ZNSt3__18weak_ptrI5ValueED2Ev, symObjAddr: 0x151EC, symBinAddr: 0x1000164B8, symSize: 0x54 }
  - { offset: 0x57CAA, size: 0x8, addend: 0x0, symName: __ZNSt3__120__shared_ptr_emplaceI5ValueNS_9allocatorIS1_EEE8_StorageD2B8ne180100Ev, symObjAddr: 0x15240, symBinAddr: 0x10001650C, symSize: 0x2C }
  - { offset: 0x57CD4, size: 0x8, addend: 0x0, symName: __ZNSt3__120__shared_ptr_emplaceI5ValueNS_9allocatorIS1_EEED2Ev, symObjAddr: 0x1526C, symBinAddr: 0x100016538, symSize: 0x48 }
  - { offset: 0x57D00, size: 0x8, addend: 0x0, symName: __ZNSt3__120__shared_ptr_emplaceI5ValueNS_9allocatorIS1_EEE21__on_zero_shared_implB8ne180100IS3_Li0EEEvv, symObjAddr: 0x152B4, symBinAddr: 0x100016580, symSize: 0x44 }
  - { offset: 0x57D50, size: 0x8, addend: 0x0, symName: __ZNSt3__116allocator_traitsINS_9allocatorI5ValueEEE7destroyB8ne180100IS2_vEEvRS3_PT_, symObjAddr: 0x152F8, symBinAddr: 0x1000165C4, symSize: 0x2C }
  - { offset: 0x57D8D, size: 0x8, addend: 0x0, symName: __ZNSt3__19allocatorI5ValueE7destroyB8ne180100EPS1_, symObjAddr: 0x15324, symBinAddr: 0x1000165F0, symSize: 0x28 }
  - { offset: 0x57DC1, size: 0x8, addend: 0x0, symName: __ZN5ValueD1Ev, symObjAddr: 0x1534C, symBinAddr: 0x100016618, symSize: 0x2C }
  - { offset: 0x57DED, size: 0x8, addend: 0x0, symName: __ZN5ValueD2Ev, symObjAddr: 0x15378, symBinAddr: 0x100016644, symSize: 0x50 }
  - { offset: 0x57E19, size: 0x8, addend: 0x0, symName: __ZNSt3__18functionIFvvEED1Ev, symObjAddr: 0x153C8, symBinAddr: 0x100016694, symSize: 0x2C }
  - { offset: 0x57E45, size: 0x8, addend: 0x0, symName: __ZNSt3__18functionIFvvEED2Ev, symObjAddr: 0x153F4, symBinAddr: 0x1000166C0, symSize: 0x2C }
  - { offset: 0x57E71, size: 0x8, addend: 0x0, symName: __ZNSt3__110__function12__value_funcIFvvEED1B8ne180100Ev, symObjAddr: 0x15420, symBinAddr: 0x1000166EC, symSize: 0x2C }
  - { offset: 0x57E9B, size: 0x8, addend: 0x0, symName: __ZNSt3__110__function12__value_funcIFvvEED2B8ne180100Ev, symObjAddr: 0x1544C, symBinAddr: 0x100016718, symSize: 0x90 }
  - { offset: 0x57EC5, size: 0x8, addend: 0x0, symName: __ZNSt3__116allocator_traitsINS_9allocatorINS_20__shared_ptr_emplaceI5ValueNS1_IS3_EEEEEEE10deallocateB8ne180100ERS6_PS5_m, symObjAddr: 0x154DC, symBinAddr: 0x1000167A8, symSize: 0x34 }
  - { offset: 0x57F07, size: 0x8, addend: 0x0, symName: __ZNSt3__114pointer_traitsIPNS_20__shared_ptr_emplaceI5ValueNS_9allocatorIS2_EEEEE10pointer_toB8ne180100ERS5_, symObjAddr: 0x15510, symBinAddr: 0x1000167DC, symSize: 0x14 }
  - { offset: 0x57F2A, size: 0x8, addend: 0x0, symName: __ZNSt3__19allocatorINS_20__shared_ptr_emplaceI5ValueNS0_IS2_EEEEE10deallocateB8ne180100EPS4_m, symObjAddr: 0x15524, symBinAddr: 0x1000167F0, symSize: 0x44 }
  - { offset: 0x57F6C, size: 0x8, addend: 0x0, symName: __ZNSt3__110shared_ptrI5ValueEC1B8ne180100Ev, symObjAddr: 0x15568, symBinAddr: 0x100016834, symSize: 0x2C }
  - { offset: 0x57F96, size: 0x8, addend: 0x0, symName: __ZNSt3__110shared_ptrI5ValueEC2B8ne180100Ev, symObjAddr: 0x15610, symBinAddr: 0x1000168DC, symSize: 0x1C }
  - { offset: 0x57FC0, size: 0x8, addend: 0x0, symName: __ZNKSt3__18weak_ptrI5ValueE7expiredB8ne180100Ev, symObjAddr: 0x1562C, symBinAddr: 0x1000168F8, symSize: 0x64 }
  - { offset: 0x57FE6, size: 0x8, addend: 0x0, symName: __ZNSt3__110shared_ptrI5ValueEC1B8ne180100IS1_EERKNS0_IT_EEPS1_, symObjAddr: 0x15690, symBinAddr: 0x10001695C, symSize: 0x3C }
  - { offset: 0x58037, size: 0x8, addend: 0x0, symName: __ZNSt3__18weak_ptrI5ValueEaSIS1_Li0EEERS2_RKNS_10shared_ptrIT_EE, symObjAddr: 0x156CC, symBinAddr: 0x100016998, symSize: 0x50 }
  - { offset: 0x5807D, size: 0x8, addend: 0x0, symName: __ZNKSt3__119__shared_weak_count9use_countB8ne180100Ev, symObjAddr: 0x1571C, symBinAddr: 0x1000169E8, symSize: 0x24 }
  - { offset: 0x580A3, size: 0x8, addend: 0x0, symName: __ZNKSt3__114__shared_count9use_countB8ne180100Ev, symObjAddr: 0x15740, symBinAddr: 0x100016A0C, symSize: 0x3C }
  - { offset: 0x580C9, size: 0x8, addend: 0x0, symName: __ZNSt3__110shared_ptrI5ValueEC2B8ne180100IS1_EERKNS0_IT_EEPS1_, symObjAddr: 0x1579C, symBinAddr: 0x100016A68, symSize: 0x70 }
  - { offset: 0x5811A, size: 0x8, addend: 0x0, symName: __ZNSt3__119__shared_weak_count12__add_sharedB8ne180100Ev, symObjAddr: 0x1580C, symBinAddr: 0x100016AD8, symSize: 0x24 }
  - { offset: 0x58140, size: 0x8, addend: 0x0, symName: __ZNSt3__114__shared_count12__add_sharedB8ne180100Ev, symObjAddr: 0x15830, symBinAddr: 0x100016AFC, symSize: 0x28 }
  - { offset: 0x58166, size: 0x8, addend: 0x0, symName: __ZNSt3__18weak_ptrI5ValueEC1IS1_Li0EEERKNS_10shared_ptrIT_EE, symObjAddr: 0x15888, symBinAddr: 0x100016B54, symSize: 0x34 }
  - { offset: 0x581B0, size: 0x8, addend: 0x0, symName: __ZNSt3__18weak_ptrI5ValueE4swapERS2_, symObjAddr: 0x158BC, symBinAddr: 0x100016B88, symSize: 0x44 }
  - { offset: 0x581E7, size: 0x8, addend: 0x0, symName: __ZNSt3__18weak_ptrI5ValueEC2IS1_Li0EEERKNS_10shared_ptrIT_EE, symObjAddr: 0x15900, symBinAddr: 0x100016BCC, symSize: 0x70 }
  - { offset: 0x58231, size: 0x8, addend: 0x0, symName: __ZNSt3__119__shared_weak_count10__add_weakB8ne180100Ev, symObjAddr: 0x15970, symBinAddr: 0x100016C3C, symSize: 0x28 }
  - { offset: 0x58257, size: 0x8, addend: 0x0, symName: __ZNSt3__120__shared_ptr_emplaceI5ValueNS_9allocatorIS1_EEE8_Storage10__get_elemB8ne180100Ev, symObjAddr: 0x15A10, symBinAddr: 0x100016CDC, symSize: 0x3C }
  - { offset: 0x582AA, size: 0x8, addend: 0x0, symName: __ZNSt3__117__compressed_pairINS_9allocatorI5ValueEES2_E17__get_second_baseB8ne180100EPS4_, symObjAddr: 0x15A4C, symBinAddr: 0x100016D18, symSize: 0x14 }
  - { offset: 0x582CD, size: 0x8, addend: 0x0, symName: __ZNSt3__118__allocation_guardINS_9allocatorINS_20__shared_ptr_emplaceI5ValueNS1_IS3_EEEEEEED2B8ne180100Ev, symObjAddr: 0x15A60, symBinAddr: 0x100016D2C, symSize: 0x2C }
  - { offset: 0x582F7, size: 0x8, addend: 0x0, symName: __ZNSt3__118__allocation_guardINS_9allocatorINS_20__shared_ptr_emplaceI5ValueNS1_IS3_EEEEEEE9__destroyB8ne180100Ev, symObjAddr: 0x15A8C, symBinAddr: 0x100016D58, symSize: 0x4C }
  - { offset: 0x5831D, size: 0x8, addend: 0x0, symName: __ZNSt3__19allocatorI5ValueEC2B8ne180100Ev, symObjAddr: 0x15AD8, symBinAddr: 0x100016DA4, symSize: 0x2C }
  - { offset: 0x58347, size: 0x8, addend: 0x0, symName: __ZNSt3__116__non_trivial_ifILb1ENS_9allocatorI5ValueEEEC2B8ne180100Ev, symObjAddr: 0x15B04, symBinAddr: 0x100016DD0, symSize: 0x14 }
  - { offset: 0x58371, size: 0x8, addend: 0x0, symName: __ZNSt3__110shared_ptrI5ValueED2B8ne180100Ev, symObjAddr: 0x15B18, symBinAddr: 0x100016DE4, symSize: 0x54 }
  - { offset: 0x5839B, size: 0x8, addend: 0x0, symName: __ZNSt3__119__shared_weak_count16__release_sharedB8ne180100Ev, symObjAddr: 0x15B6C, symBinAddr: 0x100016E38, symSize: 0x3C }
  - { offset: 0x583C1, size: 0x8, addend: 0x0, symName: __ZNSt3__114__shared_count16__release_sharedB8ne180100Ev, symObjAddr: 0x15BA8, symBinAddr: 0x100016E74, symSize: 0x7C }
  - { offset: 0x583E7, size: 0x8, addend: 0x0, symName: __ZNSt3__16vectorINS_4pairINS0_INS_10shared_ptrI5ValueEENS_9allocatorIS4_EEEES7_EENS5_IS8_EEE9__end_capB8ne180100Ev, symObjAddr: 0x15C54, symBinAddr: 0x100016F20, symSize: 0x28 }
  - { offset: 0x5840D, size: 0x8, addend: 0x0, symName: __ZNSt3__16vectorINS_4pairINS0_INS_10shared_ptrI5ValueEENS_9allocatorIS4_EEEES7_EENS5_IS8_EEE22__construct_one_at_endB8ne180100IJRS7_SC_EEEvDpOT_, symObjAddr: 0x15C7C, symBinAddr: 0x100016F48, symSize: 0x98 }
  - { offset: 0x58470, size: 0x8, addend: 0x0, symName: __ZNSt3__16vectorINS_4pairINS0_INS_10shared_ptrI5ValueEENS_9allocatorIS4_EEEES7_EENS5_IS8_EEE24__emplace_back_slow_pathIJRS7_SC_EEEPS8_DpOT_, symObjAddr: 0x15D14, symBinAddr: 0x100016FE0, symSize: 0xF0 }
  - { offset: 0x584E4, size: 0x8, addend: 0x0, symName: __ZNSt3__117__compressed_pairIPNS_4pairINS_6vectorINS_10shared_ptrI5ValueEENS_9allocatorIS5_EEEES8_EENS6_IS9_EEE5firstB8ne180100Ev, symObjAddr: 0x15E04, symBinAddr: 0x1000170D0, symSize: 0x24 }
  - { offset: 0x5850A, size: 0x8, addend: 0x0, symName: __ZNSt3__122__compressed_pair_elemIPNS_4pairINS_6vectorINS_10shared_ptrI5ValueEENS_9allocatorIS5_EEEES8_EELi0ELb0EE5__getB8ne180100Ev, symObjAddr: 0x15E28, symBinAddr: 0x1000170F4, symSize: 0x14 }
  - { offset: 0x5854C, size: 0x8, addend: 0x0, symName: __ZNSt3__16vectorINS_4pairINS0_INS_10shared_ptrI5ValueEENS_9allocatorIS4_EEEES7_EENS5_IS8_EEE21_ConstructTransactionC1B8ne180100ERSA_m, symObjAddr: 0x15E3C, symBinAddr: 0x100017108, symSize: 0x3C }
  - { offset: 0x58594, size: 0x8, addend: 0x0, symName: __ZNSt3__116allocator_traitsINS_9allocatorINS_4pairINS_6vectorINS_10shared_ptrI5ValueEENS1_IS6_EEEES8_EEEEE9constructB8ne180100IS9_JRS8_SD_EvEEvRSA_PT_DpOT0_, symObjAddr: 0x15E78, symBinAddr: 0x100017144, symSize: 0x3C }
  - { offset: 0x585FF, size: 0x8, addend: 0x0, symName: __ZNSt3__16vectorINS_4pairINS0_INS_10shared_ptrI5ValueEENS_9allocatorIS4_EEEES7_EENS5_IS8_EEE7__allocB8ne180100Ev, symObjAddr: 0x15EB4, symBinAddr: 0x100017180, symSize: 0x28 }
  - { offset: 0x58625, size: 0x8, addend: 0x0, symName: __ZNSt3__16vectorINS_4pairINS0_INS_10shared_ptrI5ValueEENS_9allocatorIS4_EEEES7_EENS5_IS8_EEE21_ConstructTransactionD1B8ne180100Ev, symObjAddr: 0x15EF0, symBinAddr: 0x1000171BC, symSize: 0x2C }
  - { offset: 0x5864F, size: 0x8, addend: 0x0, symName: __ZNSt3__16vectorINS_4pairINS0_INS_10shared_ptrI5ValueEENS_9allocatorIS4_EEEES7_EENS5_IS8_EEE21_ConstructTransactionC2B8ne180100ERSA_m, symObjAddr: 0x15F1C, symBinAddr: 0x1000171E8, symSize: 0x4C }
  - { offset: 0x58697, size: 0x8, addend: 0x0, symName: __ZNSt3__19allocatorINS_4pairINS_6vectorINS_10shared_ptrI5ValueEENS0_IS5_EEEES7_EEE9constructB8ne180100IS8_JRS7_SB_EEEvPT_DpOT0_, symObjAddr: 0x15F68, symBinAddr: 0x100017234, symSize: 0x38 }
  - { offset: 0x58700, size: 0x8, addend: 0x0, symName: __ZNSt3__14pairINS_6vectorINS_10shared_ptrI5ValueEENS_9allocatorIS4_EEEES7_EC1B8ne180100IRS7_SA_Li0EEEOT_OT0_, symObjAddr: 0x15FA0, symBinAddr: 0x10001726C, symSize: 0x3C }
  - { offset: 0x5875E, size: 0x8, addend: 0x0, symName: __ZNSt3__14pairINS_6vectorINS_10shared_ptrI5ValueEENS_9allocatorIS4_EEEES7_EC2B8ne180100IRS7_SA_Li0EEEOT_OT0_, symObjAddr: 0x15FDC, symBinAddr: 0x1000172A8, symSize: 0x70 }
  - { offset: 0x587BC, size: 0x8, addend: 0x0, symName: __ZNSt3__16vectorINS_10shared_ptrI5ValueEENS_9allocatorIS3_EEEC1ERKS6_, symObjAddr: 0x1604C, symBinAddr: 0x100017318, symSize: 0x34 }
  - { offset: 0x587F7, size: 0x8, addend: 0x0, symName: __ZNSt3__16vectorINS_10shared_ptrI5ValueEENS_9allocatorIS3_EEEC2ERKS6_, symObjAddr: 0x16080, symBinAddr: 0x10001734C, symSize: 0x94 }
  - { offset: 0x58832, size: 0x8, addend: 0x0, symName: __ZNSt3__116allocator_traitsINS_9allocatorINS_10shared_ptrI5ValueEEEEE37select_on_container_copy_constructionB8ne180100IS5_vvEES5_RKS5_, symObjAddr: 0x16114, symBinAddr: 0x1000173E0, symSize: 0x10 }
  - { offset: 0x58867, size: 0x8, addend: 0x0, symName: __ZNSt3__117__compressed_pairIPNS_10shared_ptrI5ValueEENS_9allocatorIS3_EEEC1B8ne180100IDnS6_EEOT_OT0_, symObjAddr: 0x16124, symBinAddr: 0x1000173F0, symSize: 0x3C }
  - { offset: 0x588BF, size: 0x8, addend: 0x0, symName: __ZNSt3__16vectorINS_10shared_ptrI5ValueEENS_9allocatorIS3_EEE16__init_with_sizeB8ne180100IPS3_S8_EEvT_T0_m, symObjAddr: 0x16160, symBinAddr: 0x10001742C, symSize: 0xB8 }
  - { offset: 0x58933, size: 0x8, addend: 0x0, symName: __ZNSt3__117__compressed_pairIPNS_10shared_ptrI5ValueEENS_9allocatorIS3_EEEC2B8ne180100IDnS6_EEOT_OT0_, symObjAddr: 0x16218, symBinAddr: 0x1000174E4, symSize: 0x44 }
  - { offset: 0x5898B, size: 0x8, addend: 0x0, symName: __ZNSt3__122__compressed_pair_elemINS_9allocatorINS_10shared_ptrI5ValueEEEELi1ELb1EEC2B8ne180100IS5_vEEOT_, symObjAddr: 0x1625C, symBinAddr: 0x100017528, symSize: 0x18 }
  - { offset: 0x589CD, size: 0x8, addend: 0x0, symName: __ZNSt3__16vectorINS_10shared_ptrI5ValueEENS_9allocatorIS3_EEE16__destroy_vectorC1B8ne180100ERS6_, symObjAddr: 0x162B4, symBinAddr: 0x100017580, symSize: 0x34 }
  - { offset: 0x58A06, size: 0x8, addend: 0x0, symName: __ZNSt3__16vectorINS_10shared_ptrI5ValueEENS_9allocatorIS3_EEE11__vallocateB8ne180100Em, symObjAddr: 0x162E8, symBinAddr: 0x1000175B4, symSize: 0xAC }
  - { offset: 0x58A4A, size: 0x8, addend: 0x0, symName: __ZNSt3__16vectorINS_10shared_ptrI5ValueEENS_9allocatorIS3_EEE18__construct_at_endIPS3_S8_EEvT_T0_m, symObjAddr: 0x16394, symBinAddr: 0x100017660, symSize: 0x8C }
  - { offset: 0x58AC0, size: 0x8, addend: 0x0, symName: __ZNSt3__128__exception_guard_exceptionsINS_6vectorINS_10shared_ptrI5ValueEENS_9allocatorIS4_EEE16__destroy_vectorEE10__completeB8ne180100Ev, symObjAddr: 0x16420, symBinAddr: 0x1000176EC, symSize: 0x1C }
  - { offset: 0x58AE6, size: 0x8, addend: 0x0, symName: __ZNSt3__128__exception_guard_exceptionsINS_6vectorINS_10shared_ptrI5ValueEENS_9allocatorIS4_EEE16__destroy_vectorEED1B8ne180100Ev, symObjAddr: 0x1643C, symBinAddr: 0x100017708, symSize: 0x2C }
  - { offset: 0x58B10, size: 0x8, addend: 0x0, symName: __ZNSt3__128__exception_guard_exceptionsINS_6vectorINS_10shared_ptrI5ValueEENS_9allocatorIS4_EEE16__destroy_vectorEEC1B8ne180100ES8_, symObjAddr: 0x16468, symBinAddr: 0x100017734, symSize: 0x34 }
  - { offset: 0x58B48, size: 0x8, addend: 0x0, symName: __ZNSt3__128__exception_guard_exceptionsINS_6vectorINS_10shared_ptrI5ValueEENS_9allocatorIS4_EEE16__destroy_vectorEEC2B8ne180100ES8_, symObjAddr: 0x1649C, symBinAddr: 0x100017768, symSize: 0x24 }
  - { offset: 0x58B80, size: 0x8, addend: 0x0, symName: __ZNSt3__16vectorINS_10shared_ptrI5ValueEENS_9allocatorIS3_EEE16__destroy_vectorC2B8ne180100ERS6_, symObjAddr: 0x164C0, symBinAddr: 0x10001778C, symSize: 0x20 }
  - { offset: 0x58BDC, size: 0x8, addend: 0x0, symName: __ZNSt3__14pairIPNS_10shared_ptrI5ValueEES4_EC1B8ne180100IS4_S4_Li0EEEOT_OT0_, symObjAddr: 0x1674C, symBinAddr: 0x100017A18, symSize: 0x3C }
  - { offset: 0x58C3A, size: 0x8, addend: 0x0, symName: __ZNSt3__14pairIPNS_10shared_ptrI5ValueEES4_EC2B8ne180100IS4_S4_Li0EEEOT_OT0_, symObjAddr: 0x16788, symBinAddr: 0x100017A54, symSize: 0x34 }
  - { offset: 0x58C98, size: 0x8, addend: 0x0, symName: __ZNSt3__129_AllocatorDestroyRangeReverseINS_9allocatorINS_10shared_ptrI5ValueEEEEPS4_EC1B8ne180100ERS5_RS6_S9_, symObjAddr: 0x16808, symBinAddr: 0x100017AD4, symSize: 0x44 }
  - { offset: 0x58CEF, size: 0x8, addend: 0x0, symName: __ZNSt3__116allocator_traitsINS_9allocatorINS_10shared_ptrI5ValueEEEEE9constructB8ne180100IS4_JRS4_EvEEvRS5_PT_DpOT0_, symObjAddr: 0x1684C, symBinAddr: 0x100017B18, symSize: 0x34 }
  - { offset: 0x58D46, size: 0x8, addend: 0x0, symName: __ZNSt3__128__exception_guard_exceptionsINS_29_AllocatorDestroyRangeReverseINS_9allocatorINS_10shared_ptrI5ValueEEEEPS5_EEE10__completeB8ne180100Ev, symObjAddr: 0x16880, symBinAddr: 0x100017B4C, symSize: 0x1C }
  - { offset: 0x58D6C, size: 0x8, addend: 0x0, symName: __ZNSt3__128__exception_guard_exceptionsINS_29_AllocatorDestroyRangeReverseINS_9allocatorINS_10shared_ptrI5ValueEEEEPS5_EEED1B8ne180100Ev, symObjAddr: 0x1689C, symBinAddr: 0x100017B68, symSize: 0x2C }
  - { offset: 0x58D96, size: 0x8, addend: 0x0, symName: __ZNSt3__128__exception_guard_exceptionsINS_29_AllocatorDestroyRangeReverseINS_9allocatorINS_10shared_ptrI5ValueEEEEPS5_EEEC1B8ne180100ES8_, symObjAddr: 0x168C8, symBinAddr: 0x100017B94, symSize: 0x34 }
  - { offset: 0x58DCF, size: 0x8, addend: 0x0, symName: __ZNSt3__128__exception_guard_exceptionsINS_29_AllocatorDestroyRangeReverseINS_9allocatorINS_10shared_ptrI5ValueEEEEPS5_EEEC2B8ne180100ES8_, symObjAddr: 0x168FC, symBinAddr: 0x100017BC8, symSize: 0x30 }
  - { offset: 0x58E08, size: 0x8, addend: 0x0, symName: __ZNSt3__129_AllocatorDestroyRangeReverseINS_9allocatorINS_10shared_ptrI5ValueEEEEPS4_EC2B8ne180100ERS5_RS6_S9_, symObjAddr: 0x1692C, symBinAddr: 0x100017BF8, symSize: 0x38 }
  - { offset: 0x58E5F, size: 0x8, addend: 0x0, symName: __ZNSt3__19allocatorINS_10shared_ptrI5ValueEEE9constructB8ne180100IS3_JRS3_EEEvPT_DpOT0_, symObjAddr: 0x16964, symBinAddr: 0x100017C30, symSize: 0x30 }
  - { offset: 0x58EB5, size: 0x8, addend: 0x0, symName: __ZNSt3__110shared_ptrI5ValueEC1B8ne180100ERKS2_, symObjAddr: 0x16994, symBinAddr: 0x100017C60, symSize: 0x34 }
  - { offset: 0x58EEE, size: 0x8, addend: 0x0, symName: __ZNSt3__110shared_ptrI5ValueEC2B8ne180100ERKS2_, symObjAddr: 0x169C8, symBinAddr: 0x100017C94, symSize: 0x70 }
  - { offset: 0x58F27, size: 0x8, addend: 0x0, symName: __ZNSt3__128__exception_guard_exceptionsINS_29_AllocatorDestroyRangeReverseINS_9allocatorINS_10shared_ptrI5ValueEEEEPS5_EEED2B8ne180100Ev, symObjAddr: 0x16A38, symBinAddr: 0x100017D04, symSize: 0x50 }
  - { offset: 0x58F51, size: 0x8, addend: 0x0, symName: __ZNKSt3__129_AllocatorDestroyRangeReverseINS_9allocatorINS_10shared_ptrI5ValueEEEEPS4_EclB8ne180100Ev, symObjAddr: 0x16A88, symBinAddr: 0x100017D54, symSize: 0x68 }
  - { offset: 0x58F77, size: 0x8, addend: 0x0, symName: __ZNSt3__118__unwrap_iter_implIPNS_10shared_ptrI5ValueEELb1EE8__unwrapB8ne180100ES4_, symObjAddr: 0x16B60, symBinAddr: 0x100017E2C, symSize: 0x24 }
  - { offset: 0x58F9A, size: 0x8, addend: 0x0, symName: __ZNSt3__118__unwrap_iter_implIPNS_10shared_ptrI5ValueEELb1EE8__rewrapB8ne180100ES4_S4_, symObjAddr: 0x16B84, symBinAddr: 0x100017E50, symSize: 0x50 }
  - { offset: 0x58FCB, size: 0x8, addend: 0x0, symName: __ZNSt3__128__exception_guard_exceptionsINS_6vectorINS_10shared_ptrI5ValueEENS_9allocatorIS4_EEE16__destroy_vectorEED2B8ne180100Ev, symObjAddr: 0x16BD4, symBinAddr: 0x100017EA0, symSize: 0x50 }
  - { offset: 0x58FF5, size: 0x8, addend: 0x0, symName: __ZNSt3__16vectorINS_10shared_ptrI5ValueEENS_9allocatorIS3_EEE16__destroy_vectorclB8ne180100Ev, symObjAddr: 0x16C24, symBinAddr: 0x100017EF0, symSize: 0x90 }
  - { offset: 0x5901B, size: 0x8, addend: 0x0, symName: __ZNSt3__16vectorINS_10shared_ptrI5ValueEENS_9allocatorIS3_EEE7__clearB8ne180100Ev, symObjAddr: 0x16CB4, symBinAddr: 0x100017F80, symSize: 0x28 }
  - { offset: 0x59041, size: 0x8, addend: 0x0, symName: __ZNSt3__16vectorINS_10shared_ptrI5ValueEENS_9allocatorIS3_EEE22__base_destruct_at_endB8ne180100EPS3_, symObjAddr: 0x16CDC, symBinAddr: 0x100017FA8, symSize: 0x8C }
  - { offset: 0x59085, size: 0x8, addend: 0x0, symName: __ZNSt3__117__compressed_pairIPNS_4pairINS_6vectorINS_10shared_ptrI5ValueEENS_9allocatorIS5_EEEES8_EENS6_IS9_EEE6secondB8ne180100Ev, symObjAddr: 0x16D68, symBinAddr: 0x100018034, symSize: 0x24 }
  - { offset: 0x590AB, size: 0x8, addend: 0x0, symName: __ZNSt3__122__compressed_pair_elemINS_9allocatorINS_4pairINS_6vectorINS_10shared_ptrI5ValueEENS1_IS6_EEEES8_EEEELi1ELb1EE5__getB8ne180100Ev, symObjAddr: 0x16D8C, symBinAddr: 0x100018058, symSize: 0x14 }
  - { offset: 0x590D1, size: 0x8, addend: 0x0, symName: __ZNSt3__16vectorINS_4pairINS0_INS_10shared_ptrI5ValueEENS_9allocatorIS4_EEEES7_EENS5_IS8_EEE21_ConstructTransactionD2B8ne180100Ev, symObjAddr: 0x16DA0, symBinAddr: 0x10001806C, symSize: 0x20 }
  - { offset: 0x590FB, size: 0x8, addend: 0x0, symName: __ZNKSt3__16vectorINS_4pairINS0_INS_10shared_ptrI5ValueEENS_9allocatorIS4_EEEES7_EENS5_IS8_EEE11__recommendB8ne180100Em, symObjAddr: 0x16DC0, symBinAddr: 0x10001808C, symSize: 0xB4 }
  - { offset: 0x59150, size: 0x8, addend: 0x0, symName: __ZNSt3__114__split_bufferINS_4pairINS_6vectorINS_10shared_ptrI5ValueEENS_9allocatorIS5_EEEES8_EERNS6_IS9_EEEC1EmmSB_, symObjAddr: 0x16E74, symBinAddr: 0x100018140, symSize: 0x44 }
  - { offset: 0x591A6, size: 0x8, addend: 0x0, symName: __ZNSt3__114__split_bufferINS_4pairINS_6vectorINS_10shared_ptrI5ValueEENS_9allocatorIS5_EEEES8_EERNS6_IS9_EEED1Ev, symObjAddr: 0x16FC8, symBinAddr: 0x100018294, symSize: 0x2C }
  - { offset: 0x591D2, size: 0x8, addend: 0x0, symName: __ZNKSt3__16vectorINS_4pairINS0_INS_10shared_ptrI5ValueEENS_9allocatorIS4_EEEES7_EENS5_IS8_EEE8max_sizeEv, symObjAddr: 0x16FF4, symBinAddr: 0x1000182C0, symSize: 0x60 }
  - { offset: 0x591FA, size: 0x8, addend: 0x0, symName: __ZNKSt3__16vectorINS_4pairINS0_INS_10shared_ptrI5ValueEENS_9allocatorIS4_EEEES7_EENS5_IS8_EEE20__throw_length_errorB8ne180100Ev, symObjAddr: 0x17054, symBinAddr: 0x100018320, symSize: 0x1C }
  - { offset: 0x59220, size: 0x8, addend: 0x0, symName: __ZNKSt3__16vectorINS_4pairINS0_INS_10shared_ptrI5ValueEENS_9allocatorIS4_EEEES7_EENS5_IS8_EEE8capacityB8ne180100Ev, symObjAddr: 0x17070, symBinAddr: 0x10001833C, symSize: 0x40 }
  - { offset: 0x59251, size: 0x8, addend: 0x0, symName: __ZNSt3__116allocator_traitsINS_9allocatorINS_4pairINS_6vectorINS_10shared_ptrI5ValueEENS1_IS6_EEEES8_EEEEE8max_sizeB8ne180100ISA_vEEmRKSA_, symObjAddr: 0x170B0, symBinAddr: 0x10001837C, symSize: 0x24 }
  - { offset: 0x5927F, size: 0x8, addend: 0x0, symName: __ZNKSt3__16vectorINS_4pairINS0_INS_10shared_ptrI5ValueEENS_9allocatorIS4_EEEES7_EENS5_IS8_EEE7__allocB8ne180100Ev, symObjAddr: 0x170D4, symBinAddr: 0x1000183A0, symSize: 0x28 }
  - { offset: 0x592A5, size: 0x8, addend: 0x0, symName: __ZNKSt3__19allocatorINS_4pairINS_6vectorINS_10shared_ptrI5ValueEENS0_IS5_EEEES7_EEE8max_sizeB8ne180100Ev, symObjAddr: 0x170FC, symBinAddr: 0x1000183C8, symSize: 0x18 }
  - { offset: 0x592CB, size: 0x8, addend: 0x0, symName: __ZNKSt3__117__compressed_pairIPNS_4pairINS_6vectorINS_10shared_ptrI5ValueEENS_9allocatorIS5_EEEES8_EENS6_IS9_EEE6secondB8ne180100Ev, symObjAddr: 0x17114, symBinAddr: 0x1000183E0, symSize: 0x24 }
  - { offset: 0x592F1, size: 0x8, addend: 0x0, symName: __ZNKSt3__122__compressed_pair_elemINS_9allocatorINS_4pairINS_6vectorINS_10shared_ptrI5ValueEENS1_IS6_EEEES8_EEEELi1ELb1EE5__getB8ne180100Ev, symObjAddr: 0x17138, symBinAddr: 0x100018404, symSize: 0x14 }
  - { offset: 0x59317, size: 0x8, addend: 0x0, symName: __ZNKSt3__16vectorINS_4pairINS0_INS_10shared_ptrI5ValueEENS_9allocatorIS4_EEEES7_EENS5_IS8_EEE9__end_capB8ne180100Ev, symObjAddr: 0x1714C, symBinAddr: 0x100018418, symSize: 0x28 }
  - { offset: 0x5933D, size: 0x8, addend: 0x0, symName: __ZNKSt3__117__compressed_pairIPNS_4pairINS_6vectorINS_10shared_ptrI5ValueEENS_9allocatorIS5_EEEES8_EENS6_IS9_EEE5firstB8ne180100Ev, symObjAddr: 0x17174, symBinAddr: 0x100018440, symSize: 0x24 }
  - { offset: 0x59363, size: 0x8, addend: 0x0, symName: __ZNKSt3__122__compressed_pair_elemIPNS_4pairINS_6vectorINS_10shared_ptrI5ValueEENS_9allocatorIS5_EEEES8_EELi0ELb0EE5__getB8ne180100Ev, symObjAddr: 0x17198, symBinAddr: 0x100018464, symSize: 0x14 }
  - { offset: 0x59389, size: 0x8, addend: 0x0, symName: __ZNSt3__114__split_bufferINS_4pairINS_6vectorINS_10shared_ptrI5ValueEENS_9allocatorIS5_EEEES8_EERNS6_IS9_EEEC2EmmSB_, symObjAddr: 0x171AC, symBinAddr: 0x100018478, symSize: 0xE0 }
  - { offset: 0x593FC, size: 0x8, addend: 0x0, symName: __ZNSt3__117__compressed_pairIPNS_4pairINS_6vectorINS_10shared_ptrI5ValueEENS_9allocatorIS5_EEEES8_EERNS6_IS9_EEEC1B8ne180100IDnSC_EEOT_OT0_, symObjAddr: 0x1728C, symBinAddr: 0x100018558, symSize: 0x3C }
  - { offset: 0x59454, size: 0x8, addend: 0x0, symName: __ZNSt3__114__split_bufferINS_4pairINS_6vectorINS_10shared_ptrI5ValueEENS_9allocatorIS5_EEEES8_EERNS6_IS9_EEE7__allocB8ne180100Ev, symObjAddr: 0x17308, symBinAddr: 0x1000185D4, symSize: 0x28 }
  - { offset: 0x5947A, size: 0x8, addend: 0x0, symName: __ZNSt3__114__split_bufferINS_4pairINS_6vectorINS_10shared_ptrI5ValueEENS_9allocatorIS5_EEEES8_EERNS6_IS9_EEE9__end_capB8ne180100Ev, symObjAddr: 0x17330, symBinAddr: 0x1000185FC, symSize: 0x28 }
  - { offset: 0x594A0, size: 0x8, addend: 0x0, symName: __ZNSt3__117__compressed_pairIPNS_4pairINS_6vectorINS_10shared_ptrI5ValueEENS_9allocatorIS5_EEEES8_EERNS6_IS9_EEEC2B8ne180100IDnSC_EEOT_OT0_, symObjAddr: 0x17358, symBinAddr: 0x100018624, symSize: 0x48 }
  - { offset: 0x594F8, size: 0x8, addend: 0x0, symName: __ZNSt3__122__compressed_pair_elemIRNS_9allocatorINS_4pairINS_6vectorINS_10shared_ptrI5ValueEENS1_IS6_EEEES8_EEEELi1ELb0EEC2B8ne180100ISB_vEEOT_, symObjAddr: 0x173A0, symBinAddr: 0x10001866C, symSize: 0x20 }
  - { offset: 0x5953A, size: 0x8, addend: 0x0, symName: __ZNSt3__19allocatorINS_4pairINS_6vectorINS_10shared_ptrI5ValueEENS0_IS5_EEEES7_EEE8allocateB8ne180100Em, symObjAddr: 0x173C0, symBinAddr: 0x10001868C, symSize: 0x5C }
  - { offset: 0x5956E, size: 0x8, addend: 0x0, symName: __ZNSt3__117__compressed_pairIPNS_4pairINS_6vectorINS_10shared_ptrI5ValueEENS_9allocatorIS5_EEEES8_EERNS6_IS9_EEE6secondB8ne180100Ev, symObjAddr: 0x1741C, symBinAddr: 0x1000186E8, symSize: 0x28 }
  - { offset: 0x59594, size: 0x8, addend: 0x0, symName: __ZNSt3__122__compressed_pair_elemIRNS_9allocatorINS_4pairINS_6vectorINS_10shared_ptrI5ValueEENS1_IS6_EEEES8_EEEELi1ELb0EE5__getB8ne180100Ev, symObjAddr: 0x17444, symBinAddr: 0x100018710, symSize: 0x18 }
  - { offset: 0x595BA, size: 0x8, addend: 0x0, symName: __ZNSt3__117__compressed_pairIPNS_4pairINS_6vectorINS_10shared_ptrI5ValueEENS_9allocatorIS5_EEEES8_EERNS6_IS9_EEE5firstB8ne180100Ev, symObjAddr: 0x1745C, symBinAddr: 0x100018728, symSize: 0x24 }
  - { offset: 0x595E0, size: 0x8, addend: 0x0, symName: __ZNKSt3__16vectorINS_4pairINS0_INS_10shared_ptrI5ValueEENS_9allocatorIS4_EEEES7_EENS5_IS8_EEE17__annotate_deleteB8ne180100Ev, symObjAddr: 0x17480, symBinAddr: 0x10001874C, symSize: 0x10 }
  - { offset: 0x59606, size: 0x8, addend: 0x0, symName: __ZNSt3__116reverse_iteratorIPNS_4pairINS_6vectorINS_10shared_ptrI5ValueEENS_9allocatorIS5_EEEES8_EEEC1B8ne180100ESA_, symObjAddr: 0x175BC, symBinAddr: 0x100018888, symSize: 0x34 }
  - { offset: 0x5963E, size: 0x8, addend: 0x0, symName: __ZNKSt3__116reverse_iteratorIPNS_4pairINS_6vectorINS_10shared_ptrI5ValueEENS_9allocatorIS5_EEEES8_EEE4baseB8ne180100Ev, symObjAddr: 0x175F0, symBinAddr: 0x1000188BC, symSize: 0x18 }
  - { offset: 0x59664, size: 0x8, addend: 0x0, symName: __ZNKSt3__16vectorINS_4pairINS0_INS_10shared_ptrI5ValueEENS_9allocatorIS4_EEEES7_EENS5_IS8_EEE14__annotate_newB8ne180100Em, symObjAddr: 0x17644, symBinAddr: 0x100018910, symSize: 0x14 }
  - { offset: 0x59699, size: 0x8, addend: 0x0, symName: __ZNSt3__129_AllocatorDestroyRangeReverseINS_9allocatorINS_4pairINS_6vectorINS_10shared_ptrI5ValueEENS1_IS6_EEEES8_EEEENS_16reverse_iteratorIPS9_EEEC1B8ne180100ERSA_RSD_SG_, symObjAddr: 0x176A4, symBinAddr: 0x100018970, symSize: 0x44 }
  - { offset: 0x596F0, size: 0x8, addend: 0x0, symName: __ZNSt3__116allocator_traitsINS_9allocatorINS_4pairINS_6vectorINS_10shared_ptrI5ValueEENS1_IS6_EEEES8_EEEEE9constructB8ne180100IS9_JS9_EvEEvRSA_PT_DpOT0_, symObjAddr: 0x17730, symBinAddr: 0x1000189FC, symSize: 0x34 }
  - { offset: 0x59747, size: 0x8, addend: 0x0, symName: __ZNKSt3__116reverse_iteratorIPNS_4pairINS_6vectorINS_10shared_ptrI5ValueEENS_9allocatorIS5_EEEES8_EEEdeB8ne180100Ev, symObjAddr: 0x17788, symBinAddr: 0x100018A54, symSize: 0x28 }
  - { offset: 0x5977B, size: 0x8, addend: 0x0, symName: __ZNSt3__116reverse_iteratorIPNS_4pairINS_6vectorINS_10shared_ptrI5ValueEENS_9allocatorIS5_EEEES8_EEEppB8ne180100Ev, symObjAddr: 0x177B0, symBinAddr: 0x100018A7C, symSize: 0x20 }
  - { offset: 0x597A1, size: 0x8, addend: 0x0, symName: __ZNSt3__128__exception_guard_exceptionsINS_29_AllocatorDestroyRangeReverseINS_9allocatorINS_4pairINS_6vectorINS_10shared_ptrI5ValueEENS2_IS7_EEEES9_EEEENS_16reverse_iteratorIPSA_EEEEE10__completeB8ne180100Ev, symObjAddr: 0x177D0, symBinAddr: 0x100018A9C, symSize: 0x1C }
  - { offset: 0x597C7, size: 0x8, addend: 0x0, symName: __ZNSt3__128__exception_guard_exceptionsINS_29_AllocatorDestroyRangeReverseINS_9allocatorINS_4pairINS_6vectorINS_10shared_ptrI5ValueEENS2_IS7_EEEES9_EEEENS_16reverse_iteratorIPSA_EEEEED1B8ne180100Ev, symObjAddr: 0x177EC, symBinAddr: 0x100018AB8, symSize: 0x2C }
  - { offset: 0x597F1, size: 0x8, addend: 0x0, symName: __ZNSt3__128__exception_guard_exceptionsINS_29_AllocatorDestroyRangeReverseINS_9allocatorINS_4pairINS_6vectorINS_10shared_ptrI5ValueEENS2_IS7_EEEES9_EEEENS_16reverse_iteratorIPSA_EEEEEC1B8ne180100ESF_, symObjAddr: 0x17818, symBinAddr: 0x100018AE4, symSize: 0x34 }
  - { offset: 0x5982A, size: 0x8, addend: 0x0, symName: __ZNSt3__128__exception_guard_exceptionsINS_29_AllocatorDestroyRangeReverseINS_9allocatorINS_4pairINS_6vectorINS_10shared_ptrI5ValueEENS2_IS7_EEEES9_EEEENS_16reverse_iteratorIPSA_EEEEEC2B8ne180100ESF_, symObjAddr: 0x1784C, symBinAddr: 0x100018B18, symSize: 0x30 }
  - { offset: 0x59863, size: 0x8, addend: 0x0, symName: __ZNSt3__129_AllocatorDestroyRangeReverseINS_9allocatorINS_4pairINS_6vectorINS_10shared_ptrI5ValueEENS1_IS6_EEEES8_EEEENS_16reverse_iteratorIPS9_EEEC2B8ne180100ERSA_RSD_SG_, symObjAddr: 0x1787C, symBinAddr: 0x100018B48, symSize: 0x38 }
  - { offset: 0x598BA, size: 0x8, addend: 0x0, symName: __ZNSt3__19allocatorINS_4pairINS_6vectorINS_10shared_ptrI5ValueEENS0_IS5_EEEES7_EEE9constructB8ne180100IS8_JS8_EEEvPT_DpOT0_, symObjAddr: 0x178B4, symBinAddr: 0x100018B80, symSize: 0x30 }
  - { offset: 0x59910, size: 0x8, addend: 0x0, symName: __ZNSt3__14pairINS_6vectorINS_10shared_ptrI5ValueEENS_9allocatorIS4_EEEES7_EC1B8ne180100EOS8_, symObjAddr: 0x178E4, symBinAddr: 0x100018BB0, symSize: 0x34 }
  - { offset: 0x59944, size: 0x8, addend: 0x0, symName: __ZNSt3__14pairINS_6vectorINS_10shared_ptrI5ValueEENS_9allocatorIS4_EEEES7_EC2B8ne180100EOS8_, symObjAddr: 0x17918, symBinAddr: 0x100018BE4, symSize: 0x48 }
  - { offset: 0x59978, size: 0x8, addend: 0x0, symName: __ZNSt3__16vectorINS_10shared_ptrI5ValueEENS_9allocatorIS3_EEEC1B8ne180100EOS6_, symObjAddr: 0x17960, symBinAddr: 0x100018C2C, symSize: 0x34 }
  - { offset: 0x599B3, size: 0x8, addend: 0x0, symName: __ZNSt3__16vectorINS_10shared_ptrI5ValueEENS_9allocatorIS3_EEEC2B8ne180100EOS6_, symObjAddr: 0x17994, symBinAddr: 0x100018C60, symSize: 0xC4 }
  - { offset: 0x599F4, size: 0x8, addend: 0x0, symName: __ZNSt3__119__to_address_helperINS_16reverse_iteratorIPNS_4pairINS_6vectorINS_10shared_ptrI5ValueEENS_9allocatorIS6_EEEES9_EEEEvE6__callB8ne180100ERKSC_, symObjAddr: 0x17A58, symBinAddr: 0x100018D24, symSize: 0x38 }
  - { offset: 0x59A17, size: 0x8, addend: 0x0, symName: __ZNKSt3__116reverse_iteratorIPNS_4pairINS_6vectorINS_10shared_ptrI5ValueEENS_9allocatorIS5_EEEES8_EEEptB8ne180100Ev, symObjAddr: 0x17A90, symBinAddr: 0x100018D5C, symSize: 0x24 }
  - { offset: 0x59A3D, size: 0x8, addend: 0x0, symName: __ZNSt3__128__exception_guard_exceptionsINS_29_AllocatorDestroyRangeReverseINS_9allocatorINS_4pairINS_6vectorINS_10shared_ptrI5ValueEENS2_IS7_EEEES9_EEEENS_16reverse_iteratorIPSA_EEEEED2B8ne180100Ev, symObjAddr: 0x17AB4, symBinAddr: 0x100018D80, symSize: 0x50 }
  - { offset: 0x59A67, size: 0x8, addend: 0x0, symName: __ZNKSt3__129_AllocatorDestroyRangeReverseINS_9allocatorINS_4pairINS_6vectorINS_10shared_ptrI5ValueEENS1_IS6_EEEES8_EEEENS_16reverse_iteratorIPS9_EEEclB8ne180100Ev, symObjAddr: 0x17B04, symBinAddr: 0x100018DD0, symSize: 0xB4 }
  - { offset: 0x59A8E, size: 0x8, addend: 0x0, symName: __ZNSt3__116reverse_iteratorINS0_IPNS_4pairINS_6vectorINS_10shared_ptrI5ValueEENS_9allocatorIS5_EEEES8_EEEEEC1B8ne180100ESB_, symObjAddr: 0x17C28, symBinAddr: 0x100018EF4, symSize: 0x3C }
  - { offset: 0x59AC6, size: 0x8, addend: 0x0, symName: __ZNSt3__116allocator_traitsINS_9allocatorINS_4pairINS_6vectorINS_10shared_ptrI5ValueEENS1_IS6_EEEES8_EEEEE7destroyB8ne180100IS9_vEEvRSA_PT_, symObjAddr: 0x17CC4, symBinAddr: 0x100018F90, symSize: 0x2C }
  - { offset: 0x59B03, size: 0x8, addend: 0x0, symName: __ZNSt3__116reverse_iteratorINS0_IPNS_4pairINS_6vectorINS_10shared_ptrI5ValueEENS_9allocatorIS5_EEEES8_EEEEEppB8ne180100Ev, symObjAddr: 0x17D14, symBinAddr: 0x100018FE0, symSize: 0x30 }
  - { offset: 0x59B29, size: 0x8, addend: 0x0, symName: __ZNKSt3__116reverse_iteratorINS0_IPNS_4pairINS_6vectorINS_10shared_ptrI5ValueEENS_9allocatorIS5_EEEES8_EEEEE4baseB8ne180100Ev, symObjAddr: 0x17D44, symBinAddr: 0x100019010, symSize: 0x24 }
  - { offset: 0x59B4F, size: 0x8, addend: 0x0, symName: __ZNSt3__19allocatorINS_4pairINS_6vectorINS_10shared_ptrI5ValueEENS0_IS5_EEEES7_EEE7destroyB8ne180100EPS8_, symObjAddr: 0x17D68, symBinAddr: 0x100019034, symSize: 0x28 }
  - { offset: 0x59B83, size: 0x8, addend: 0x0, symName: __ZNSt3__14pairINS_6vectorINS_10shared_ptrI5ValueEENS_9allocatorIS4_EEEES7_ED1Ev, symObjAddr: 0x17D90, symBinAddr: 0x10001905C, symSize: 0x2C }
  - { offset: 0x59BAF, size: 0x8, addend: 0x0, symName: __ZNSt3__14pairINS_6vectorINS_10shared_ptrI5ValueEENS_9allocatorIS4_EEEES7_ED2Ev, symObjAddr: 0x17DBC, symBinAddr: 0x100019088, symSize: 0x38 }
  - { offset: 0x59BE1, size: 0x8, addend: 0x0, symName: __ZNSt3__119__to_address_helperINS_16reverse_iteratorINS1_IPNS_4pairINS_6vectorINS_10shared_ptrI5ValueEENS_9allocatorIS6_EEEES9_EEEEEEvE6__callB8ne180100ERKSD_, symObjAddr: 0x17DF4, symBinAddr: 0x1000190C0, symSize: 0x38 }
  - { offset: 0x59C04, size: 0x8, addend: 0x0, symName: __ZNKSt3__116reverse_iteratorINS0_IPNS_4pairINS_6vectorINS_10shared_ptrI5ValueEENS_9allocatorIS5_EEEES8_EEEEEptB8ne180100Ev, symObjAddr: 0x17E2C, symBinAddr: 0x1000190F8, symSize: 0x24 }
  - { offset: 0x59C2A, size: 0x8, addend: 0x0, symName: __ZNKSt3__116reverse_iteratorINS0_IPNS_4pairINS_6vectorINS_10shared_ptrI5ValueEENS_9allocatorIS5_EEEES8_EEEEEdeB8ne180100Ev, symObjAddr: 0x17E50, symBinAddr: 0x10001911C, symSize: 0x34 }
  - { offset: 0x59C5E, size: 0x8, addend: 0x0, symName: __ZNSt3__116reverse_iteratorIPNS_4pairINS_6vectorINS_10shared_ptrI5ValueEENS_9allocatorIS5_EEEES8_EEEmmB8ne180100Ev, symObjAddr: 0x17E84, symBinAddr: 0x100019150, symSize: 0x20 }
  - { offset: 0x59C84, size: 0x8, addend: 0x0, symName: __ZNSt3__116reverse_iteratorINS0_IPNS_4pairINS_6vectorINS_10shared_ptrI5ValueEENS_9allocatorIS5_EEEES8_EEEEEC2B8ne180100ESB_, symObjAddr: 0x17EA4, symBinAddr: 0x100019170, symSize: 0x2C }
  - { offset: 0x59CBC, size: 0x8, addend: 0x0, symName: __ZNSt3__116reverse_iteratorIPNS_4pairINS_6vectorINS_10shared_ptrI5ValueEENS_9allocatorIS5_EEEES8_EEEC2B8ne180100ESA_, symObjAddr: 0x17ED0, symBinAddr: 0x10001919C, symSize: 0x28 }
  - { offset: 0x59CF4, size: 0x8, addend: 0x0, symName: __ZNSt3__114__split_bufferINS_4pairINS_6vectorINS_10shared_ptrI5ValueEENS_9allocatorIS5_EEEES8_EERNS6_IS9_EEED2Ev, symObjAddr: 0x17EF8, symBinAddr: 0x1000191C4, symSize: 0x8C }
  - { offset: 0x59D20, size: 0x8, addend: 0x0, symName: __ZNSt3__114__split_bufferINS_4pairINS_6vectorINS_10shared_ptrI5ValueEENS_9allocatorIS5_EEEES8_EERNS6_IS9_EEE5clearB8ne180100Ev, symObjAddr: 0x17F84, symBinAddr: 0x100019250, symSize: 0x28 }
  - { offset: 0x59D46, size: 0x8, addend: 0x0, symName: __ZNSt3__116allocator_traitsINS_9allocatorINS_4pairINS_6vectorINS_10shared_ptrI5ValueEENS1_IS6_EEEES8_EEEEE10deallocateB8ne180100ERSA_PS9_m, symObjAddr: 0x17FAC, symBinAddr: 0x100019278, symSize: 0x34 }
  - { offset: 0x59D88, size: 0x8, addend: 0x0, symName: __ZNKSt3__114__split_bufferINS_4pairINS_6vectorINS_10shared_ptrI5ValueEENS_9allocatorIS5_EEEES8_EERNS6_IS9_EEE8capacityB8ne180100Ev, symObjAddr: 0x17FE0, symBinAddr: 0x1000192AC, symSize: 0x40 }
  - { offset: 0x59DAE, size: 0x8, addend: 0x0, symName: __ZNSt3__114__split_bufferINS_4pairINS_6vectorINS_10shared_ptrI5ValueEENS_9allocatorIS5_EEEES8_EERNS6_IS9_EEE17__destruct_at_endB8ne180100EPS9_, symObjAddr: 0x18020, symBinAddr: 0x1000192EC, symSize: 0x2C }
  - { offset: 0x59DE2, size: 0x8, addend: 0x0, symName: __ZNSt3__114__split_bufferINS_4pairINS_6vectorINS_10shared_ptrI5ValueEENS_9allocatorIS5_EEEES8_EERNS6_IS9_EEE17__destruct_at_endB8ne180100EPS9_NS_17integral_constantIbLb0EEE, symObjAddr: 0x1804C, symBinAddr: 0x100019318, symSize: 0x80 }
  - { offset: 0x59E22, size: 0x8, addend: 0x0, symName: __ZNSt3__19allocatorINS_4pairINS_6vectorINS_10shared_ptrI5ValueEENS0_IS5_EEEES7_EEE10deallocateB8ne180100EPS8_m, symObjAddr: 0x180CC, symBinAddr: 0x100019398, symSize: 0x44 }
  - { offset: 0x59E64, size: 0x8, addend: 0x0, symName: __ZNKSt3__114__split_bufferINS_4pairINS_6vectorINS_10shared_ptrI5ValueEENS_9allocatorIS5_EEEES8_EERNS6_IS9_EEE9__end_capB8ne180100Ev, symObjAddr: 0x18110, symBinAddr: 0x1000193DC, symSize: 0x28 }
  - { offset: 0x59E8A, size: 0x8, addend: 0x0, symName: __ZNKSt3__117__compressed_pairIPNS_4pairINS_6vectorINS_10shared_ptrI5ValueEENS_9allocatorIS5_EEEES8_EERNS6_IS9_EEE5firstB8ne180100Ev, symObjAddr: 0x18138, symBinAddr: 0x100019404, symSize: 0x24 }
  - { offset: 0x59EB0, size: 0x8, addend: 0x0, symName: __ZNSt3__16vectorINS_10shared_ptrI5ValueEENS_9allocatorIS3_EEED2B8ne180100Ev, symObjAddr: 0x1815C, symBinAddr: 0x100019428, symSize: 0x40 }
  - { offset: 0x59EDA, size: 0x8, addend: 0x0, symName: __ZNSt3__16vectorINS0_IdNS_9allocatorIdEEEENS1_IS3_EEED2B8ne180100Ev, symObjAddr: 0x1819C, symBinAddr: 0x100019468, symSize: 0x44 }
  - { offset: 0x59F04, size: 0x8, addend: 0x0, symName: __ZNSt3__16vectorINS0_IdNS_9allocatorIdEEEENS1_IS3_EEE16__destroy_vectorC1B8ne180100ERS5_, symObjAddr: 0x181E0, symBinAddr: 0x1000194AC, symSize: 0x34 }
  - { offset: 0x59F3D, size: 0x8, addend: 0x0, symName: __ZNSt3__16vectorINS0_IdNS_9allocatorIdEEEENS1_IS3_EEE16__destroy_vectorclB8ne180100Ev, symObjAddr: 0x18214, symBinAddr: 0x1000194E0, symSize: 0x90 }
  - { offset: 0x59F63, size: 0x8, addend: 0x0, symName: __ZNSt3__16vectorINS0_IdNS_9allocatorIdEEEENS1_IS3_EEE16__destroy_vectorC2B8ne180100ERS5_, symObjAddr: 0x182A4, symBinAddr: 0x100019570, symSize: 0x20 }
  - { offset: 0x59F9C, size: 0x8, addend: 0x0, symName: __ZNSt3__16vectorINS0_IdNS_9allocatorIdEEEENS1_IS3_EEE7__clearB8ne180100Ev, symObjAddr: 0x182C4, symBinAddr: 0x100019590, symSize: 0x28 }
  - { offset: 0x59FC2, size: 0x8, addend: 0x0, symName: __ZNSt3__16vectorINS0_IdNS_9allocatorIdEEEENS1_IS3_EEE22__base_destruct_at_endB8ne180100EPS3_, symObjAddr: 0x182EC, symBinAddr: 0x1000195B8, symSize: 0x8C }
  - { offset: 0x5A006, size: 0x8, addend: 0x0, symName: __ZNSt3__16vectorINS0_INS_12basic_stringIcNS_11char_traitsIcEENS_9allocatorIcEEEENS4_IS6_EEEENS4_IS8_EEED2B8ne180100Ev, symObjAddr: 0x18378, symBinAddr: 0x100019644, symSize: 0x44 }
  - { offset: 0x5A030, size: 0x8, addend: 0x0, symName: __ZNSt3__16vectorINS0_INS_12basic_stringIcNS_11char_traitsIcEENS_9allocatorIcEEEENS4_IS6_EEEENS4_IS8_EEE16__destroy_vectorC1B8ne180100ERSA_, symObjAddr: 0x183BC, symBinAddr: 0x100019688, symSize: 0x34 }
  - { offset: 0x5A069, size: 0x8, addend: 0x0, symName: __ZNSt3__16vectorINS0_INS_12basic_stringIcNS_11char_traitsIcEENS_9allocatorIcEEEENS4_IS6_EEEENS4_IS8_EEE16__destroy_vectorclB8ne180100Ev, symObjAddr: 0x183F0, symBinAddr: 0x1000196BC, symSize: 0x90 }
  - { offset: 0x5A08F, size: 0x8, addend: 0x0, symName: __ZNSt3__16vectorINS0_INS_12basic_stringIcNS_11char_traitsIcEENS_9allocatorIcEEEENS4_IS6_EEEENS4_IS8_EEE16__destroy_vectorC2B8ne180100ERSA_, symObjAddr: 0x18480, symBinAddr: 0x10001974C, symSize: 0x20 }
  - { offset: 0x5A0C8, size: 0x8, addend: 0x0, symName: __ZNSt3__16vectorINS0_INS_12basic_stringIcNS_11char_traitsIcEENS_9allocatorIcEEEENS4_IS6_EEEENS4_IS8_EEE7__clearB8ne180100Ev, symObjAddr: 0x184A0, symBinAddr: 0x10001976C, symSize: 0x28 }
  - { offset: 0x5A0EE, size: 0x8, addend: 0x0, symName: __ZNSt3__16vectorINS0_INS_12basic_stringIcNS_11char_traitsIcEENS_9allocatorIcEEEENS4_IS6_EEEENS4_IS8_EEE22__base_destruct_at_endB8ne180100EPS8_, symObjAddr: 0x184C8, symBinAddr: 0x100019794, symSize: 0x8C }
  - { offset: 0x5A14E, size: 0x8, addend: 0x0, symName: __ZNSt3__113random_deviceC1B8ne180100Ev, symObjAddr: 0x18554, symBinAddr: 0x100019820, symSize: 0x74 }
  - { offset: 0x5A178, size: 0x8, addend: 0x0, symName: __ZNSt3__123mersenne_twister_engineIjLm32ELm624ELm397ELm31ELj2567483615ELm11ELj4294967295ELm7ELj2636928640ELm15ELj4022730752ELm18ELj1812433253EEC1B8ne180100Ej, symObjAddr: 0x185C8, symBinAddr: 0x100019894, symSize: 0x34 }
  - { offset: 0x5A1B0, size: 0x8, addend: 0x0, symName: __ZNSt3__123mersenne_twister_engineIjLm32ELm624ELm397ELm31ELj2567483615ELm11ELj4294967295ELm7ELj2636928640ELm15ELj4022730752ELm18ELj1812433253EE4seedEj, symObjAddr: 0x185FC, symBinAddr: 0x1000198C8, symSize: 0xC8 }
  - { offset: 0x5A203, size: 0x8, addend: 0x0, symName: __ZNSt3__16vectorINS_4pairINS0_INS_10shared_ptrI5ValueEENS_9allocatorIS4_EEEES7_EENS5_IS8_EEE5beginB8ne180100Ev, symObjAddr: 0x1870C, symBinAddr: 0x1000199D8, symSize: 0x30 }
  - { offset: 0x5A22B, size: 0x8, addend: 0x0, symName: __ZNSt3__16vectorINS_4pairINS0_INS_10shared_ptrI5ValueEENS_9allocatorIS4_EEEES7_EENS5_IS8_EEE3endB8ne180100Ev, symObjAddr: 0x1873C, symBinAddr: 0x100019A08, symSize: 0x30 }
  - { offset: 0x5A253, size: 0x8, addend: 0x0, symName: __ZNSt3__123mersenne_twister_engineIjLm32ELm624ELm397ELm31ELj2567483615ELm11ELj4294967295ELm7ELj2636928640ELm15ELj4022730752ELm18ELj1812433253EEC2B8ne180100Ej, symObjAddr: 0x1876C, symBinAddr: 0x100019A38, symSize: 0x34 }
  - { offset: 0x5A28B, size: 0x8, addend: 0x0, symName: __ZNSt3__123mersenne_twister_engineIjLm32ELm624ELm397ELm31ELj2567483615ELm11ELj4294967295ELm7ELj2636928640ELm15ELj4022730752ELm18ELj1812433253EE8__rshiftB8ne180100ILm30ELi0EEEjj, symObjAddr: 0x187A0, symBinAddr: 0x100019A6C, symSize: 0x18 }
  - { offset: 0x5A2BF, size: 0x8, addend: 0x0, symName: __ZNSt3__18_IterOpsINS_17_ClassicAlgPolicyEE4nextB8ne180100INS_11__wrap_iterIPNS_4pairINS_6vectorINS_10shared_ptrI5ValueEENS_9allocatorIS9_EEEESC_EEEEEET_SG_SG_, symObjAddr: 0x188F4, symBinAddr: 0x100019BC0, symSize: 0x20 }
  - { offset: 0x5A2F5, size: 0x8, addend: 0x0, symName: __ZNSt3__124uniform_int_distributionIlEC1B8ne180100Ev, symObjAddr: 0x1895C, symBinAddr: 0x100019C28, symSize: 0x3C }
  - { offset: 0x5A31F, size: 0x8, addend: 0x0, symName: __ZNSt3__111__wrap_iterIPNS_4pairINS_6vectorINS_10shared_ptrI5ValueEENS_9allocatorIS5_EEEES8_EEEmmB8ne180100Ev, symObjAddr: 0x18998, symBinAddr: 0x100019C64, symSize: 0x20 }
  - { offset: 0x5A345, size: 0x8, addend: 0x0, symName: __ZNSt3__124uniform_int_distributionIlE10param_typeC1B8ne180100Ell, symObjAddr: 0x18B74, symBinAddr: 0x100019E40, symSize: 0x3C }
  - { offset: 0x5A391, size: 0x8, addend: 0x0, symName: __ZNSt3__18_IterOpsINS_17_ClassicAlgPolicyEE9iter_swapB8ne180100IRNS_11__wrap_iterIPNS_4pairINS_6vectorINS_10shared_ptrI5ValueEENS_9allocatorIS9_EEEESC_EEEESF_EEvOT_OT0_, symObjAddr: 0x18BB0, symBinAddr: 0x100019E7C, symSize: 0x44 }
  - { offset: 0x5A3D4, size: 0x8, addend: 0x0, symName: __ZNKSt3__111__wrap_iterIPNS_4pairINS_6vectorINS_10shared_ptrI5ValueEENS_9allocatorIS5_EEEES8_EEEplB8ne180100El, symObjAddr: 0x18BF4, symBinAddr: 0x100019EC0, symSize: 0x3C }
  - { offset: 0x5A416, size: 0x8, addend: 0x0, symName: __ZNSt3__111__wrap_iterIPNS_4pairINS_6vectorINS_10shared_ptrI5ValueEENS_9allocatorIS5_EEEES8_EEEppB8ne180100Ev, symObjAddr: 0x18C30, symBinAddr: 0x100019EFC, symSize: 0x20 }
  - { offset: 0x5A43C, size: 0x8, addend: 0x0, symName: __ZNKSt3__111__wrap_iterIPNS_4pairINS_6vectorINS_10shared_ptrI5ValueEENS_9allocatorIS5_EEEES8_EEE4baseB8ne180100Ev, symObjAddr: 0x18C50, symBinAddr: 0x100019F1C, symSize: 0x18 }
  - { offset: 0x5A462, size: 0x8, addend: 0x0, symName: __ZNSt3__124uniform_int_distributionIlEC1B8ne180100Ell, symObjAddr: 0x18C68, symBinAddr: 0x100019F34, symSize: 0x3C }
  - { offset: 0x5A4A8, size: 0x8, addend: 0x0, symName: __ZNSt3__124uniform_int_distributionIlEC2B8ne180100Ell, symObjAddr: 0x18CA4, symBinAddr: 0x100019F70, symSize: 0x3C }
  - { offset: 0x5A4EE, size: 0x8, addend: 0x0, symName: __ZNKSt3__124uniform_int_distributionIlE10param_type1bB8ne180100Ev, symObjAddr: 0x18CE0, symBinAddr: 0x100019FAC, symSize: 0x18 }
  - { offset: 0x5A514, size: 0x8, addend: 0x0, symName: __ZNKSt3__124uniform_int_distributionIlE10param_type1aB8ne180100Ev, symObjAddr: 0x18CF8, symBinAddr: 0x100019FC4, symSize: 0x18 }
  - { offset: 0x5A53A, size: 0x8, addend: 0x0, symName: __ZNSt3__125__independent_bits_engineINS_23mersenne_twister_engineIjLm32ELm624ELm397ELm31ELj2567483615ELm11ELj4294967295ELm7ELj2636928640ELm15ELj4022730752ELm18ELj1812433253EEEmEC1ERS2_m, symObjAddr: 0x18D10, symBinAddr: 0x100019FDC, symSize: 0x3C }
  - { offset: 0x5A581, size: 0x8, addend: 0x0, symName: __ZNSt3__125__independent_bits_engineINS_23mersenne_twister_engineIjLm32ELm624ELm397ELm31ELj2567483615ELm11ELj4294967295ELm7ELj2636928640ELm15ELj4022730752ELm18ELj1812433253EEEmEclB8ne180100Ev, symObjAddr: 0x18D4C, symBinAddr: 0x10001A018, symSize: 0x24 }
  - { offset: 0x5A5A7, size: 0x8, addend: 0x0, symName: __ZNSt3__125__independent_bits_engineINS_23mersenne_twister_engineIjLm32ELm624ELm397ELm31ELj2567483615ELm11ELj4294967295ELm7ELj2636928640ELm15ELj4022730752ELm18ELj1812433253EEEmEC2ERS2_m, symObjAddr: 0x18DC4, symBinAddr: 0x10001A090, symSize: 0x264 }
  - { offset: 0x5A5EE, size: 0x8, addend: 0x0, symName: __ZNSt3__125__independent_bits_engineINS_23mersenne_twister_engineIjLm32ELm624ELm397ELm31ELj2567483615ELm11ELj4294967295ELm7ELj2636928640ELm15ELj4022730752ELm18ELj1812433253EEEmE6__evalENS_17integral_constantIbLb1EEE, symObjAddr: 0x19028, symBinAddr: 0x10001A2F4, symSize: 0x1F8 }
  - { offset: 0x5A6AB, size: 0x8, addend: 0x0, symName: __ZNSt3__123mersenne_twister_engineIjLm32ELm624ELm397ELm31ELj2567483615ELm11ELj4294967295ELm7ELj2636928640ELm15ELj4022730752ELm18ELj1812433253EEclEv, symObjAddr: 0x19220, symBinAddr: 0x10001A4EC, symSize: 0x14C }
  - { offset: 0x5A71E, size: 0x8, addend: 0x0, symName: __ZNSt3__123mersenne_twister_engineIjLm32ELm624ELm397ELm31ELj2567483615ELm11ELj4294967295ELm7ELj2636928640ELm15ELj4022730752ELm18ELj1812433253EE3minB8ne180100Ev, symObjAddr: 0x1936C, symBinAddr: 0x10001A638, symSize: 0x8 }
  - { offset: 0x5A732, size: 0x8, addend: 0x0, symName: __ZNSt3__123mersenne_twister_engineIjLm32ELm624ELm397ELm31ELj2567483615ELm11ELj4294967295ELm7ELj2636928640ELm15ELj4022730752ELm18ELj1812433253EE8__rshiftB8ne180100ILm1ELi0EEEjj, symObjAddr: 0x19374, symBinAddr: 0x10001A640, symSize: 0x18 }
  - { offset: 0x5A766, size: 0x8, addend: 0x0, symName: __ZNSt3__123mersenne_twister_engineIjLm32ELm624ELm397ELm31ELj2567483615ELm11ELj4294967295ELm7ELj2636928640ELm15ELj4022730752ELm18ELj1812433253EE8__rshiftB8ne180100ILm11ELi0EEEjj, symObjAddr: 0x1938C, symBinAddr: 0x10001A658, symSize: 0x18 }
  - { offset: 0x5A79A, size: 0x8, addend: 0x0, symName: __ZNSt3__123mersenne_twister_engineIjLm32ELm624ELm397ELm31ELj2567483615ELm11ELj4294967295ELm7ELj2636928640ELm15ELj4022730752ELm18ELj1812433253EE8__lshiftB8ne180100ILm7ELi0EEEjj, symObjAddr: 0x193A4, symBinAddr: 0x10001A670, symSize: 0x1C }
  - { offset: 0x5A7CE, size: 0x8, addend: 0x0, symName: __ZNSt3__123mersenne_twister_engineIjLm32ELm624ELm397ELm31ELj2567483615ELm11ELj4294967295ELm7ELj2636928640ELm15ELj4022730752ELm18ELj1812433253EE8__lshiftB8ne180100ILm15ELi0EEEjj, symObjAddr: 0x193C0, symBinAddr: 0x10001A68C, symSize: 0x1C }
  - { offset: 0x5A802, size: 0x8, addend: 0x0, symName: __ZNSt3__123mersenne_twister_engineIjLm32ELm624ELm397ELm31ELj2567483615ELm11ELj4294967295ELm7ELj2636928640ELm15ELj4022730752ELm18ELj1812433253EE8__rshiftB8ne180100ILm18ELi0EEEjj, symObjAddr: 0x193DC, symBinAddr: 0x10001A6A8, symSize: 0x18 }
  - { offset: 0x5A836, size: 0x8, addend: 0x0, symName: __ZNSt3__124uniform_int_distributionIlE10param_typeC2B8ne180100Ell, symObjAddr: 0x193F4, symBinAddr: 0x10001A6C0, symSize: 0x2C }
  - { offset: 0x5A87C, size: 0x8, addend: 0x0, symName: __ZNKSt3__111__wrap_iterIPNS_4pairINS_6vectorINS_10shared_ptrI5ValueEENS_9allocatorIS5_EEEES8_EEEdeB8ne180100Ev, symObjAddr: 0x1949C, symBinAddr: 0x10001A768, symSize: 0x18 }
  - { offset: 0x5A8A2, size: 0x8, addend: 0x0, symName: __ZNSt3__14pairINS_6vectorINS_10shared_ptrI5ValueEENS_9allocatorIS4_EEEES7_E4swapB8ne180100ERS8_, symObjAddr: 0x194B4, symBinAddr: 0x10001A780, symSize: 0x44 }
  - { offset: 0x5A8D7, size: 0x8, addend: 0x0, symName: __ZNSt3__16vectorINS_10shared_ptrI5ValueEENS_9allocatorIS3_EEE4swapERS6_, symObjAddr: 0x19524, symBinAddr: 0x10001A7F0, symSize: 0x84 }
  - { offset: 0x5A90E, size: 0x8, addend: 0x0, symName: __ZNSt3__111__wrap_iterIPNS_4pairINS_6vectorINS_10shared_ptrI5ValueEENS_9allocatorIS5_EEEES8_EEEpLB8ne180100El, symObjAddr: 0x195BC, symBinAddr: 0x10001A888, symSize: 0x30 }
  - { offset: 0x5A942, size: 0x8, addend: 0x0, symName: __ZNSt3__16vectorINS_4pairINS0_INS_10shared_ptrI5ValueEENS_9allocatorIS4_EEEES7_EENS5_IS8_EEE11__make_iterB8ne180100EPS8_, symObjAddr: 0x195EC, symBinAddr: 0x10001A8B8, symSize: 0x30 }
  - { offset: 0x5A977, size: 0x8, addend: 0x0, symName: __ZNSt3__111__wrap_iterIPNS_4pairINS_6vectorINS_10shared_ptrI5ValueEENS_9allocatorIS5_EEEES8_EEEC1B8ne180100ESA_, symObjAddr: 0x1961C, symBinAddr: 0x10001A8E8, symSize: 0x34 }
  - { offset: 0x5A9AF, size: 0x8, addend: 0x0, symName: __ZNSt3__111__wrap_iterIPNS_4pairINS_6vectorINS_10shared_ptrI5ValueEENS_9allocatorIS5_EEEES8_EEEC2B8ne180100ESA_, symObjAddr: 0x19650, symBinAddr: 0x10001A91C, symSize: 0x20 }
  - { offset: 0x5A9E7, size: 0x8, addend: 0x0, symName: __ZN3MLPC2EiRKNSt3__16vectorIiNS0_9allocatorIiEEEE, symObjAddr: 0x19670, symBinAddr: 0x10001A93C, symSize: 0x154 }
  - { offset: 0x5AA82, size: 0x8, addend: 0x0, symName: __ZNSt3__16vectorIiNS_9allocatorIiEEEC1B8ne180100Ev, symObjAddr: 0x197C4, symBinAddr: 0x10001AA90, symSize: 0x2C }
  - { offset: 0x5AAAC, size: 0x8, addend: 0x0, symName: __ZNSt3__16vectorINS_10shared_ptrI6LinearEENS_9allocatorIS3_EEEC1B8ne180100Ev, symObjAddr: 0x197F0, symBinAddr: 0x10001AABC, symSize: 0x2C }
  - { offset: 0x5AAD6, size: 0x8, addend: 0x0, symName: __ZNSt3__16vectorIiNS_9allocatorIiEEEaSB8ne180100ERKS3_, symObjAddr: 0x1981C, symBinAddr: 0x10001AAE8, symSize: 0x68 }
  - { offset: 0x5AB0D, size: 0x8, addend: 0x0, symName: __ZNKSt3__16vectorIiNS_9allocatorIiEEE5beginB8ne180100Ev, symObjAddr: 0x19884, symBinAddr: 0x10001AB50, symSize: 0x30 }
  - { offset: 0x5AB35, size: 0x8, addend: 0x0, symName: __ZNKSt3__16vectorIiNS_9allocatorIiEEE3endB8ne180100Ev, symObjAddr: 0x198B4, symBinAddr: 0x10001AB80, symSize: 0x30 }
  - { offset: 0x5AB5D, size: 0x8, addend: 0x0, symName: __ZNKSt3__111__wrap_iterIPKiEdeB8ne180100Ev, symObjAddr: 0x19918, symBinAddr: 0x10001ABE4, symSize: 0x18 }
  - { offset: 0x5AB83, size: 0x8, addend: 0x0, symName: __ZNSt3__16vectorINS_10shared_ptrI6LinearEENS_9allocatorIS3_EEE9push_backB8ne180100EOS3_, symObjAddr: 0x19930, symBinAddr: 0x10001ABFC, symSize: 0x90 }
  - { offset: 0x5ABC9, size: 0x8, addend: 0x0, symName: __ZNSt3__110shared_ptrI6LinearED1B8ne180100Ev, symObjAddr: 0x19A08, symBinAddr: 0x10001ACD4, symSize: 0x2C }
  - { offset: 0x5ABF3, size: 0x8, addend: 0x0, symName: __ZNSt3__111__wrap_iterIPKiEppB8ne180100Ev, symObjAddr: 0x19A34, symBinAddr: 0x10001AD00, symSize: 0x20 }
  - { offset: 0x5AC19, size: 0x8, addend: 0x0, symName: __ZNSt3__16vectorINS_10shared_ptrI6LinearEENS_9allocatorIS3_EEED1B8ne180100Ev, symObjAddr: 0x19A54, symBinAddr: 0x10001AD20, symSize: 0x2C }
  - { offset: 0x5AC43, size: 0x8, addend: 0x0, symName: __ZNSt3__16vectorIiNS_9allocatorIiEEEC2B8ne180100Ev, symObjAddr: 0x19A80, symBinAddr: 0x10001AD4C, symSize: 0x4C }
  - { offset: 0x5AC6D, size: 0x8, addend: 0x0, symName: __ZNSt3__117__compressed_pairIPiNS_9allocatorIiEEEC1B8ne180100IDnNS_18__default_init_tagEEEOT_OT0_, symObjAddr: 0x19ACC, symBinAddr: 0x10001AD98, symSize: 0x3C }
  - { offset: 0x5ACC5, size: 0x8, addend: 0x0, symName: __ZNSt3__117__compressed_pairIPiNS_9allocatorIiEEEC2B8ne180100IDnNS_18__default_init_tagEEEOT_OT0_, symObjAddr: 0x19B08, symBinAddr: 0x10001ADD4, symSize: 0x40 }
  - { offset: 0x5AD1D, size: 0x8, addend: 0x0, symName: __ZNSt3__122__compressed_pair_elemINS_9allocatorIiEELi1ELb1EEC2B8ne180100ENS_18__default_init_tagE, symObjAddr: 0x19B48, symBinAddr: 0x10001AE14, symSize: 0x2C }
  - { offset: 0x5AD51, size: 0x8, addend: 0x0, symName: __ZNSt3__19allocatorIiEC2B8ne180100Ev, symObjAddr: 0x19B74, symBinAddr: 0x10001AE40, symSize: 0x2C }
  - { offset: 0x5AD7B, size: 0x8, addend: 0x0, symName: __ZNSt3__116__non_trivial_ifILb1ENS_9allocatorIiEEEC2B8ne180100Ev, symObjAddr: 0x19BA0, symBinAddr: 0x10001AE6C, symSize: 0x14 }
  - { offset: 0x5ADA5, size: 0x8, addend: 0x0, symName: __ZNSt3__16vectorINS_10shared_ptrI6LinearEENS_9allocatorIS3_EEEC2B8ne180100Ev, symObjAddr: 0x19BB4, symBinAddr: 0x10001AE80, symSize: 0x4C }
  - { offset: 0x5ADCF, size: 0x8, addend: 0x0, symName: __ZNSt3__117__compressed_pairIPNS_10shared_ptrI6LinearEENS_9allocatorIS3_EEEC1B8ne180100IDnNS_18__default_init_tagEEEOT_OT0_, symObjAddr: 0x19C00, symBinAddr: 0x10001AECC, symSize: 0x3C }
  - { offset: 0x5AE27, size: 0x8, addend: 0x0, symName: __ZNSt3__117__compressed_pairIPNS_10shared_ptrI6LinearEENS_9allocatorIS3_EEEC2B8ne180100IDnNS_18__default_init_tagEEEOT_OT0_, symObjAddr: 0x19C3C, symBinAddr: 0x10001AF08, symSize: 0x40 }
  - { offset: 0x5AE7F, size: 0x8, addend: 0x0, symName: __ZNSt3__122__compressed_pair_elemIPNS_10shared_ptrI6LinearEELi0ELb0EEC2B8ne180100IDnvEEOT_, symObjAddr: 0x19C7C, symBinAddr: 0x10001AF48, symSize: 0x1C }
  - { offset: 0x5AEC1, size: 0x8, addend: 0x0, symName: __ZNSt3__122__compressed_pair_elemINS_9allocatorINS_10shared_ptrI6LinearEEEELi1ELb1EEC2B8ne180100ENS_18__default_init_tagE, symObjAddr: 0x19C98, symBinAddr: 0x10001AF64, symSize: 0x2C }
  - { offset: 0x5AEF5, size: 0x8, addend: 0x0, symName: __ZNSt3__19allocatorINS_10shared_ptrI6LinearEEEC2B8ne180100Ev, symObjAddr: 0x19CC4, symBinAddr: 0x10001AF90, symSize: 0x2C }
  - { offset: 0x5AF1F, size: 0x8, addend: 0x0, symName: __ZNSt3__116__non_trivial_ifILb1ENS_9allocatorINS_10shared_ptrI6LinearEEEEEC2B8ne180100Ev, symObjAddr: 0x19CF0, symBinAddr: 0x10001AFBC, symSize: 0x14 }
  - { offset: 0x5AF49, size: 0x8, addend: 0x0, symName: __ZNSt3__16vectorIiNS_9allocatorIiEEE19__copy_assign_allocB8ne180100ERKS3_, symObjAddr: 0x19D04, symBinAddr: 0x10001AFD0, symSize: 0x2C }
  - { offset: 0x5AF7E, size: 0x8, addend: 0x0, symName: __ZNSt3__16vectorIiNS_9allocatorIiEEE6assignIPiLi0EEEvT_S6_, symObjAddr: 0x19D30, symBinAddr: 0x10001AFFC, symSize: 0x5C }
  - { offset: 0x5AFD3, size: 0x8, addend: 0x0, symName: __ZNSt3__16vectorIiNS_9allocatorIiEEE19__copy_assign_allocB8ne180100ERKS3_NS_17integral_constantIbLb0EEE, symObjAddr: 0x19D8C, symBinAddr: 0x10001B058, symSize: 0x14 }
  - { offset: 0x5B011, size: 0x8, addend: 0x0, symName: __ZNSt3__16vectorIiNS_9allocatorIiEEE18__assign_with_sizeB8ne180100IPiS5_EEvT_T0_l, symObjAddr: 0x19DA0, symBinAddr: 0x10001B06C, symSize: 0x164 }
  - { offset: 0x5B0C1, size: 0x8, addend: 0x0, symName: __ZNSt3__16vectorIiNS_9allocatorIiEEE17__destruct_at_endB8ne180100EPi, symObjAddr: 0x19F64, symBinAddr: 0x10001B230, symSize: 0x4C }
  - { offset: 0x5B105, size: 0x8, addend: 0x0, symName: __ZNSt3__16vectorIiNS_9allocatorIiEEE13__vdeallocateEv, symObjAddr: 0x19FB0, symBinAddr: 0x10001B27C, symSize: 0x94 }
  - { offset: 0x5B12D, size: 0x8, addend: 0x0, symName: __ZNKSt3__16vectorIiNS_9allocatorIiEEE11__recommendB8ne180100Em, symObjAddr: 0x1A044, symBinAddr: 0x10001B310, symSize: 0xB4 }
  - { offset: 0x5B182, size: 0x8, addend: 0x0, symName: __ZNKSt3__16vectorIiNS_9allocatorIiEEE17__annotate_shrinkB8ne180100Em, symObjAddr: 0x1A16C, symBinAddr: 0x10001B438, symSize: 0x14 }
  - { offset: 0x5B1B7, size: 0x8, addend: 0x0, symName: __ZNSt3__16vectorIiNS_9allocatorIiEEE5clearB8ne180100Ev, symObjAddr: 0x1A180, symBinAddr: 0x10001B44C, symSize: 0x44 }
  - { offset: 0x5B1EC, size: 0x8, addend: 0x0, symName: __ZNKSt3__16vectorIiNS_9allocatorIiEEE11__make_iterB8ne180100EPKi, symObjAddr: 0x1A1EC, symBinAddr: 0x10001B4B8, symSize: 0x30 }
  - { offset: 0x5B221, size: 0x8, addend: 0x0, symName: __ZNSt3__111__wrap_iterIPKiEC1B8ne180100ES2_, symObjAddr: 0x1A21C, symBinAddr: 0x10001B4E8, symSize: 0x34 }
  - { offset: 0x5B259, size: 0x8, addend: 0x0, symName: __ZNSt3__111__wrap_iterIPKiEC2B8ne180100ES2_, symObjAddr: 0x1A250, symBinAddr: 0x10001B51C, symSize: 0x20 }
  - { offset: 0x5B291, size: 0x8, addend: 0x0, symName: __ZNKSt3__111__wrap_iterIPKiE4baseB8ne180100Ev, symObjAddr: 0x1A2B8, symBinAddr: 0x10001B584, symSize: 0x18 }
  - { offset: 0x5B2B7, size: 0x8, addend: 0x0, symName: __ZNSt3__16vectorINS_10shared_ptrI6LinearEENS_9allocatorIS3_EEE9__end_capB8ne180100Ev, symObjAddr: 0x1A2D0, symBinAddr: 0x10001B59C, symSize: 0x28 }
  - { offset: 0x5B2DD, size: 0x8, addend: 0x0, symName: __ZNSt3__16vectorINS_10shared_ptrI6LinearEENS_9allocatorIS3_EEE22__construct_one_at_endB8ne180100IJS3_EEEvDpOT_, symObjAddr: 0x1A2F8, symBinAddr: 0x10001B5C4, symSize: 0x90 }
  - { offset: 0x5B32C, size: 0x8, addend: 0x0, symName: __ZNSt3__16vectorINS_10shared_ptrI6LinearEENS_9allocatorIS3_EEE21__push_back_slow_pathIS3_EEPS3_OT_, symObjAddr: 0x1A388, symBinAddr: 0x10001B654, symSize: 0xE8 }
  - { offset: 0x5B38A, size: 0x8, addend: 0x0, symName: __ZNSt3__117__compressed_pairIPNS_10shared_ptrI6LinearEENS_9allocatorIS3_EEE5firstB8ne180100Ev, symObjAddr: 0x1A470, symBinAddr: 0x10001B73C, symSize: 0x24 }
  - { offset: 0x5B3B0, size: 0x8, addend: 0x0, symName: __ZNSt3__122__compressed_pair_elemIPNS_10shared_ptrI6LinearEELi0ELb0EE5__getB8ne180100Ev, symObjAddr: 0x1A494, symBinAddr: 0x10001B760, symSize: 0x14 }
  - { offset: 0x5B3F2, size: 0x8, addend: 0x0, symName: __ZNSt3__16vectorINS_10shared_ptrI6LinearEENS_9allocatorIS3_EEE21_ConstructTransactionC1B8ne180100ERS6_m, symObjAddr: 0x1A4A8, symBinAddr: 0x10001B774, symSize: 0x3C }
  - { offset: 0x5B43A, size: 0x8, addend: 0x0, symName: __ZNSt3__116allocator_traitsINS_9allocatorINS_10shared_ptrI6LinearEEEEE9constructB8ne180100IS4_JS4_EvEEvRS5_PT_DpOT0_, symObjAddr: 0x1A4E4, symBinAddr: 0x10001B7B0, symSize: 0x34 }
  - { offset: 0x5B491, size: 0x8, addend: 0x0, symName: __ZNSt3__16vectorINS_10shared_ptrI6LinearEENS_9allocatorIS3_EEE7__allocB8ne180100Ev, symObjAddr: 0x1A518, symBinAddr: 0x10001B7E4, symSize: 0x28 }
  - { offset: 0x5B4B7, size: 0x8, addend: 0x0, symName: __ZNSt3__16vectorINS_10shared_ptrI6LinearEENS_9allocatorIS3_EEE21_ConstructTransactionD1B8ne180100Ev, symObjAddr: 0x1A554, symBinAddr: 0x10001B820, symSize: 0x2C }
  - { offset: 0x5B4E1, size: 0x8, addend: 0x0, symName: __ZNSt3__16vectorINS_10shared_ptrI6LinearEENS_9allocatorIS3_EEE21_ConstructTransactionC2B8ne180100ERS6_m, symObjAddr: 0x1A580, symBinAddr: 0x10001B84C, symSize: 0x44 }
  - { offset: 0x5B529, size: 0x8, addend: 0x0, symName: __ZNSt3__19allocatorINS_10shared_ptrI6LinearEEE9constructB8ne180100IS3_JS3_EEEvPT_DpOT0_, symObjAddr: 0x1A5C4, symBinAddr: 0x10001B890, symSize: 0x30 }
  - { offset: 0x5B57F, size: 0x8, addend: 0x0, symName: __ZNSt3__110shared_ptrI6LinearEC1B8ne180100EOS2_, symObjAddr: 0x1A5F4, symBinAddr: 0x10001B8C0, symSize: 0x34 }
  - { offset: 0x5B5B8, size: 0x8, addend: 0x0, symName: __ZNSt3__110shared_ptrI6LinearEC2B8ne180100EOS2_, symObjAddr: 0x1A628, symBinAddr: 0x10001B8F4, symSize: 0x40 }
  - { offset: 0x5B5F1, size: 0x8, addend: 0x0, symName: __ZNSt3__117__compressed_pairIPNS_10shared_ptrI6LinearEENS_9allocatorIS3_EEE6secondB8ne180100Ev, symObjAddr: 0x1A668, symBinAddr: 0x10001B934, symSize: 0x24 }
  - { offset: 0x5B617, size: 0x8, addend: 0x0, symName: __ZNSt3__122__compressed_pair_elemINS_9allocatorINS_10shared_ptrI6LinearEEEELi1ELb1EE5__getB8ne180100Ev, symObjAddr: 0x1A68C, symBinAddr: 0x10001B958, symSize: 0x14 }
  - { offset: 0x5B63D, size: 0x8, addend: 0x0, symName: __ZNSt3__16vectorINS_10shared_ptrI6LinearEENS_9allocatorIS3_EEE21_ConstructTransactionD2B8ne180100Ev, symObjAddr: 0x1A6A0, symBinAddr: 0x10001B96C, symSize: 0x20 }
  - { offset: 0x5B667, size: 0x8, addend: 0x0, symName: __ZNKSt3__16vectorINS_10shared_ptrI6LinearEENS_9allocatorIS3_EEE11__recommendB8ne180100Em, symObjAddr: 0x1A6C0, symBinAddr: 0x10001B98C, symSize: 0xB4 }
  - { offset: 0x5B6BC, size: 0x8, addend: 0x0, symName: __ZNKSt3__16vectorINS_10shared_ptrI6LinearEENS_9allocatorIS3_EEE4sizeB8ne180100Ev, symObjAddr: 0x1A774, symBinAddr: 0x10001BA40, symSize: 0x28 }
  - { offset: 0x5B6E2, size: 0x8, addend: 0x0, symName: __ZNSt3__114__split_bufferINS_10shared_ptrI6LinearEERNS_9allocatorIS3_EEEC1EmmS6_, symObjAddr: 0x1A79C, symBinAddr: 0x10001BA68, symSize: 0x44 }
  - { offset: 0x5B738, size: 0x8, addend: 0x0, symName: __ZNSt3__114__split_bufferINS_10shared_ptrI6LinearEERNS_9allocatorIS3_EEED1Ev, symObjAddr: 0x1A8F0, symBinAddr: 0x10001BBBC, symSize: 0x2C }
  - { offset: 0x5B764, size: 0x8, addend: 0x0, symName: __ZNKSt3__16vectorINS_10shared_ptrI6LinearEENS_9allocatorIS3_EEE8max_sizeEv, symObjAddr: 0x1A91C, symBinAddr: 0x10001BBE8, symSize: 0x60 }
  - { offset: 0x5B78C, size: 0x8, addend: 0x0, symName: __ZNKSt3__16vectorINS_10shared_ptrI6LinearEENS_9allocatorIS3_EEE20__throw_length_errorB8ne180100Ev, symObjAddr: 0x1A97C, symBinAddr: 0x10001BC48, symSize: 0x1C }
  - { offset: 0x5B7B2, size: 0x8, addend: 0x0, symName: __ZNKSt3__16vectorINS_10shared_ptrI6LinearEENS_9allocatorIS3_EEE8capacityB8ne180100Ev, symObjAddr: 0x1A998, symBinAddr: 0x10001BC64, symSize: 0x40 }
  - { offset: 0x5B7E3, size: 0x8, addend: 0x0, symName: __ZNSt3__116allocator_traitsINS_9allocatorINS_10shared_ptrI6LinearEEEEE8max_sizeB8ne180100IS5_vEEmRKS5_, symObjAddr: 0x1A9D8, symBinAddr: 0x10001BCA4, symSize: 0x24 }
  - { offset: 0x5B811, size: 0x8, addend: 0x0, symName: __ZNKSt3__16vectorINS_10shared_ptrI6LinearEENS_9allocatorIS3_EEE7__allocB8ne180100Ev, symObjAddr: 0x1A9FC, symBinAddr: 0x10001BCC8, symSize: 0x28 }
  - { offset: 0x5B837, size: 0x8, addend: 0x0, symName: __ZNKSt3__19allocatorINS_10shared_ptrI6LinearEEE8max_sizeB8ne180100Ev, symObjAddr: 0x1AA24, symBinAddr: 0x10001BCF0, symSize: 0x14 }
  - { offset: 0x5B85D, size: 0x8, addend: 0x0, symName: __ZNKSt3__117__compressed_pairIPNS_10shared_ptrI6LinearEENS_9allocatorIS3_EEE6secondB8ne180100Ev, symObjAddr: 0x1AA38, symBinAddr: 0x10001BD04, symSize: 0x24 }
  - { offset: 0x5B883, size: 0x8, addend: 0x0, symName: __ZNKSt3__122__compressed_pair_elemINS_9allocatorINS_10shared_ptrI6LinearEEEELi1ELb1EE5__getB8ne180100Ev, symObjAddr: 0x1AA5C, symBinAddr: 0x10001BD28, symSize: 0x14 }
  - { offset: 0x5B8A9, size: 0x8, addend: 0x0, symName: __ZNKSt3__16vectorINS_10shared_ptrI6LinearEENS_9allocatorIS3_EEE9__end_capB8ne180100Ev, symObjAddr: 0x1AA70, symBinAddr: 0x10001BD3C, symSize: 0x28 }
  - { offset: 0x5B8CF, size: 0x8, addend: 0x0, symName: __ZNKSt3__117__compressed_pairIPNS_10shared_ptrI6LinearEENS_9allocatorIS3_EEE5firstB8ne180100Ev, symObjAddr: 0x1AA98, symBinAddr: 0x10001BD64, symSize: 0x24 }
  - { offset: 0x5B8F5, size: 0x8, addend: 0x0, symName: __ZNKSt3__122__compressed_pair_elemIPNS_10shared_ptrI6LinearEELi0ELb0EE5__getB8ne180100Ev, symObjAddr: 0x1AABC, symBinAddr: 0x10001BD88, symSize: 0x14 }
  - { offset: 0x5B91B, size: 0x8, addend: 0x0, symName: __ZNSt3__114__split_bufferINS_10shared_ptrI6LinearEERNS_9allocatorIS3_EEEC2EmmS6_, symObjAddr: 0x1AAD0, symBinAddr: 0x10001BD9C, symSize: 0xD4 }
  - { offset: 0x5B98E, size: 0x8, addend: 0x0, symName: __ZNSt3__117__compressed_pairIPNS_10shared_ptrI6LinearEERNS_9allocatorIS3_EEEC1B8ne180100IDnS7_EEOT_OT0_, symObjAddr: 0x1ABA4, symBinAddr: 0x10001BE70, symSize: 0x3C }
  - { offset: 0x5B9E6, size: 0x8, addend: 0x0, symName: __ZNSt3__114__split_bufferINS_10shared_ptrI6LinearEERNS_9allocatorIS3_EEE7__allocB8ne180100Ev, symObjAddr: 0x1AC20, symBinAddr: 0x10001BEEC, symSize: 0x28 }
  - { offset: 0x5BA0C, size: 0x8, addend: 0x0, symName: __ZNSt3__114__split_bufferINS_10shared_ptrI6LinearEERNS_9allocatorIS3_EEE9__end_capB8ne180100Ev, symObjAddr: 0x1AC48, symBinAddr: 0x10001BF14, symSize: 0x28 }
  - { offset: 0x5BA32, size: 0x8, addend: 0x0, symName: __ZNSt3__117__compressed_pairIPNS_10shared_ptrI6LinearEERNS_9allocatorIS3_EEEC2B8ne180100IDnS7_EEOT_OT0_, symObjAddr: 0x1AC70, symBinAddr: 0x10001BF3C, symSize: 0x48 }
  - { offset: 0x5BA8A, size: 0x8, addend: 0x0, symName: __ZNSt3__122__compressed_pair_elemIRNS_9allocatorINS_10shared_ptrI6LinearEEEELi1ELb0EEC2B8ne180100IS6_vEEOT_, symObjAddr: 0x1ACB8, symBinAddr: 0x10001BF84, symSize: 0x20 }
  - { offset: 0x5BACC, size: 0x8, addend: 0x0, symName: __ZNSt3__19allocatorINS_10shared_ptrI6LinearEEE8allocateB8ne180100Em, symObjAddr: 0x1ACD8, symBinAddr: 0x10001BFA4, symSize: 0x58 }
  - { offset: 0x5BB00, size: 0x8, addend: 0x0, symName: __ZNSt3__117__compressed_pairIPNS_10shared_ptrI6LinearEERNS_9allocatorIS3_EEE6secondB8ne180100Ev, symObjAddr: 0x1AD30, symBinAddr: 0x10001BFFC, symSize: 0x28 }
  - { offset: 0x5BB26, size: 0x8, addend: 0x0, symName: __ZNSt3__122__compressed_pair_elemIRNS_9allocatorINS_10shared_ptrI6LinearEEEELi1ELb0EE5__getB8ne180100Ev, symObjAddr: 0x1AD58, symBinAddr: 0x10001C024, symSize: 0x18 }
  - { offset: 0x5BB4C, size: 0x8, addend: 0x0, symName: __ZNSt3__117__compressed_pairIPNS_10shared_ptrI6LinearEERNS_9allocatorIS3_EEE5firstB8ne180100Ev, symObjAddr: 0x1AD70, symBinAddr: 0x10001C03C, symSize: 0x24 }
  - { offset: 0x5BB72, size: 0x8, addend: 0x0, symName: __ZNKSt3__16vectorINS_10shared_ptrI6LinearEENS_9allocatorIS3_EEE17__annotate_deleteB8ne180100Ev, symObjAddr: 0x1AD94, symBinAddr: 0x10001C060, symSize: 0x10 }
  - { offset: 0x5BB98, size: 0x8, addend: 0x0, symName: __ZNSt3__116reverse_iteratorIPNS_10shared_ptrI6LinearEEEC1B8ne180100ES4_, symObjAddr: 0x1AED0, symBinAddr: 0x10001C19C, symSize: 0x34 }
  - { offset: 0x5BBD0, size: 0x8, addend: 0x0, symName: __ZNKSt3__116reverse_iteratorIPNS_10shared_ptrI6LinearEEE4baseB8ne180100Ev, symObjAddr: 0x1AF04, symBinAddr: 0x10001C1D0, symSize: 0x18 }
  - { offset: 0x5BBF6, size: 0x8, addend: 0x0, symName: __ZNKSt3__16vectorINS_10shared_ptrI6LinearEENS_9allocatorIS3_EEE14__annotate_newB8ne180100Em, symObjAddr: 0x1AF58, symBinAddr: 0x10001C224, symSize: 0x14 }
  - { offset: 0x5BC2B, size: 0x8, addend: 0x0, symName: __ZNSt3__129_AllocatorDestroyRangeReverseINS_9allocatorINS_10shared_ptrI6LinearEEEENS_16reverse_iteratorIPS4_EEEC1B8ne180100ERS5_RS8_SB_, symObjAddr: 0x1AFB8, symBinAddr: 0x10001C284, symSize: 0x44 }
  - { offset: 0x5BC82, size: 0x8, addend: 0x0, symName: __ZNKSt3__116reverse_iteratorIPNS_10shared_ptrI6LinearEEEdeB8ne180100Ev, symObjAddr: 0x1B068, symBinAddr: 0x10001C334, symSize: 0x28 }
  - { offset: 0x5BCB6, size: 0x8, addend: 0x0, symName: __ZNSt3__116reverse_iteratorIPNS_10shared_ptrI6LinearEEEppB8ne180100Ev, symObjAddr: 0x1B090, symBinAddr: 0x10001C35C, symSize: 0x20 }
  - { offset: 0x5BCDC, size: 0x8, addend: 0x0, symName: __ZNSt3__128__exception_guard_exceptionsINS_29_AllocatorDestroyRangeReverseINS_9allocatorINS_10shared_ptrI6LinearEEEENS_16reverse_iteratorIPS5_EEEEE10__completeB8ne180100Ev, symObjAddr: 0x1B0B0, symBinAddr: 0x10001C37C, symSize: 0x1C }
  - { offset: 0x5BD02, size: 0x8, addend: 0x0, symName: __ZNSt3__128__exception_guard_exceptionsINS_29_AllocatorDestroyRangeReverseINS_9allocatorINS_10shared_ptrI6LinearEEEENS_16reverse_iteratorIPS5_EEEEED1B8ne180100Ev, symObjAddr: 0x1B0CC, symBinAddr: 0x10001C398, symSize: 0x2C }
  - { offset: 0x5BD2C, size: 0x8, addend: 0x0, symName: __ZNSt3__128__exception_guard_exceptionsINS_29_AllocatorDestroyRangeReverseINS_9allocatorINS_10shared_ptrI6LinearEEEENS_16reverse_iteratorIPS5_EEEEEC1B8ne180100ESA_, symObjAddr: 0x1B0F8, symBinAddr: 0x10001C3C4, symSize: 0x34 }
  - { offset: 0x5BD65, size: 0x8, addend: 0x0, symName: __ZNSt3__128__exception_guard_exceptionsINS_29_AllocatorDestroyRangeReverseINS_9allocatorINS_10shared_ptrI6LinearEEEENS_16reverse_iteratorIPS5_EEEEEC2B8ne180100ESA_, symObjAddr: 0x1B12C, symBinAddr: 0x10001C3F8, symSize: 0x30 }
  - { offset: 0x5BD9E, size: 0x8, addend: 0x0, symName: __ZNSt3__129_AllocatorDestroyRangeReverseINS_9allocatorINS_10shared_ptrI6LinearEEEENS_16reverse_iteratorIPS4_EEEC2B8ne180100ERS5_RS8_SB_, symObjAddr: 0x1B15C, symBinAddr: 0x10001C428, symSize: 0x38 }
  - { offset: 0x5BDFB, size: 0x8, addend: 0x0, symName: __ZNSt3__119__to_address_helperINS_16reverse_iteratorIPNS_10shared_ptrI6LinearEEEEvE6__callB8ne180100ERKS6_, symObjAddr: 0x1B194, symBinAddr: 0x10001C460, symSize: 0x38 }
  - { offset: 0x5BE1E, size: 0x8, addend: 0x0, symName: __ZNKSt3__116reverse_iteratorIPNS_10shared_ptrI6LinearEEEptB8ne180100Ev, symObjAddr: 0x1B1CC, symBinAddr: 0x10001C498, symSize: 0x24 }
  - { offset: 0x5BE44, size: 0x8, addend: 0x0, symName: __ZNSt3__128__exception_guard_exceptionsINS_29_AllocatorDestroyRangeReverseINS_9allocatorINS_10shared_ptrI6LinearEEEENS_16reverse_iteratorIPS5_EEEEED2B8ne180100Ev, symObjAddr: 0x1B1F0, symBinAddr: 0x10001C4BC, symSize: 0x50 }
  - { offset: 0x5BE6E, size: 0x8, addend: 0x0, symName: __ZNKSt3__129_AllocatorDestroyRangeReverseINS_9allocatorINS_10shared_ptrI6LinearEEEENS_16reverse_iteratorIPS4_EEEclB8ne180100Ev, symObjAddr: 0x1B240, symBinAddr: 0x10001C50C, symSize: 0xB4 }
  - { offset: 0x5BE95, size: 0x8, addend: 0x0, symName: __ZNSt3__116reverse_iteratorINS0_IPNS_10shared_ptrI6LinearEEEEEC1B8ne180100ES5_, symObjAddr: 0x1B364, symBinAddr: 0x10001C630, symSize: 0x3C }
  - { offset: 0x5BECD, size: 0x8, addend: 0x0, symName: __ZNSt3__116allocator_traitsINS_9allocatorINS_10shared_ptrI6LinearEEEEE7destroyB8ne180100IS4_vEEvRS5_PT_, symObjAddr: 0x1B400, symBinAddr: 0x10001C6CC, symSize: 0x2C }
  - { offset: 0x5BF0A, size: 0x8, addend: 0x0, symName: __ZNSt3__116reverse_iteratorINS0_IPNS_10shared_ptrI6LinearEEEEEppB8ne180100Ev, symObjAddr: 0x1B450, symBinAddr: 0x10001C71C, symSize: 0x30 }
  - { offset: 0x5BF30, size: 0x8, addend: 0x0, symName: __ZNKSt3__116reverse_iteratorINS0_IPNS_10shared_ptrI6LinearEEEEE4baseB8ne180100Ev, symObjAddr: 0x1B480, symBinAddr: 0x10001C74C, symSize: 0x24 }
  - { offset: 0x5BF56, size: 0x8, addend: 0x0, symName: __ZNSt3__19allocatorINS_10shared_ptrI6LinearEEE7destroyB8ne180100EPS3_, symObjAddr: 0x1B4A4, symBinAddr: 0x10001C770, symSize: 0x28 }
  - { offset: 0x5BF90, size: 0x8, addend: 0x0, symName: __ZNSt3__119__to_address_helperINS_16reverse_iteratorINS1_IPNS_10shared_ptrI6LinearEEEEEEvE6__callB8ne180100ERKS7_, symObjAddr: 0x1B4CC, symBinAddr: 0x10001C798, symSize: 0x38 }
  - { offset: 0x5BFB3, size: 0x8, addend: 0x0, symName: __ZNKSt3__116reverse_iteratorINS0_IPNS_10shared_ptrI6LinearEEEEEptB8ne180100Ev, symObjAddr: 0x1B504, symBinAddr: 0x10001C7D0, symSize: 0x24 }
  - { offset: 0x5BFD9, size: 0x8, addend: 0x0, symName: __ZNKSt3__116reverse_iteratorINS0_IPNS_10shared_ptrI6LinearEEEEEdeB8ne180100Ev, symObjAddr: 0x1B528, symBinAddr: 0x10001C7F4, symSize: 0x34 }
  - { offset: 0x5C00D, size: 0x8, addend: 0x0, symName: __ZNSt3__116reverse_iteratorIPNS_10shared_ptrI6LinearEEEmmB8ne180100Ev, symObjAddr: 0x1B55C, symBinAddr: 0x10001C828, symSize: 0x20 }
  - { offset: 0x5C033, size: 0x8, addend: 0x0, symName: __ZNSt3__116reverse_iteratorINS0_IPNS_10shared_ptrI6LinearEEEEEC2B8ne180100ES5_, symObjAddr: 0x1B57C, symBinAddr: 0x10001C848, symSize: 0x2C }
  - { offset: 0x5C06B, size: 0x8, addend: 0x0, symName: __ZNSt3__116reverse_iteratorIPNS_10shared_ptrI6LinearEEEC2B8ne180100ES4_, symObjAddr: 0x1B5A8, symBinAddr: 0x10001C874, symSize: 0x28 }
  - { offset: 0x5C0A3, size: 0x8, addend: 0x0, symName: __ZNSt3__114__split_bufferINS_10shared_ptrI6LinearEERNS_9allocatorIS3_EEED2Ev, symObjAddr: 0x1B5D0, symBinAddr: 0x10001C89C, symSize: 0x8C }
  - { offset: 0x5C0CF, size: 0x8, addend: 0x0, symName: __ZNSt3__114__split_bufferINS_10shared_ptrI6LinearEERNS_9allocatorIS3_EEE5clearB8ne180100Ev, symObjAddr: 0x1B65C, symBinAddr: 0x10001C928, symSize: 0x28 }
  - { offset: 0x5C0F5, size: 0x8, addend: 0x0, symName: __ZNSt3__116allocator_traitsINS_9allocatorINS_10shared_ptrI6LinearEEEEE10deallocateB8ne180100ERS5_PS4_m, symObjAddr: 0x1B684, symBinAddr: 0x10001C950, symSize: 0x34 }
  - { offset: 0x5C137, size: 0x8, addend: 0x0, symName: __ZNKSt3__114__split_bufferINS_10shared_ptrI6LinearEERNS_9allocatorIS3_EEE8capacityB8ne180100Ev, symObjAddr: 0x1B6B8, symBinAddr: 0x10001C984, symSize: 0x40 }
  - { offset: 0x5C15D, size: 0x8, addend: 0x0, symName: __ZNSt3__114__split_bufferINS_10shared_ptrI6LinearEERNS_9allocatorIS3_EEE17__destruct_at_endB8ne180100EPS3_, symObjAddr: 0x1B6F8, symBinAddr: 0x10001C9C4, symSize: 0x2C }
  - { offset: 0x5C191, size: 0x8, addend: 0x0, symName: __ZNSt3__114__split_bufferINS_10shared_ptrI6LinearEERNS_9allocatorIS3_EEE17__destruct_at_endB8ne180100EPS3_NS_17integral_constantIbLb0EEE, symObjAddr: 0x1B724, symBinAddr: 0x10001C9F0, symSize: 0x80 }
  - { offset: 0x5C1D1, size: 0x8, addend: 0x0, symName: __ZNSt3__19allocatorINS_10shared_ptrI6LinearEEE10deallocateB8ne180100EPS3_m, symObjAddr: 0x1B7A4, symBinAddr: 0x10001CA70, symSize: 0x40 }
  - { offset: 0x5C213, size: 0x8, addend: 0x0, symName: __ZNKSt3__114__split_bufferINS_10shared_ptrI6LinearEERNS_9allocatorIS3_EEE9__end_capB8ne180100Ev, symObjAddr: 0x1B7E4, symBinAddr: 0x10001CAB0, symSize: 0x28 }
  - { offset: 0x5C239, size: 0x8, addend: 0x0, symName: __ZNKSt3__117__compressed_pairIPNS_10shared_ptrI6LinearEERNS_9allocatorIS3_EEE5firstB8ne180100Ev, symObjAddr: 0x1B80C, symBinAddr: 0x10001CAD8, symSize: 0x24 }
  - { offset: 0x5C25F, size: 0x8, addend: 0x0, symName: __ZNSt3__19allocatorI6LinearEC1B8ne180100Ev, symObjAddr: 0x1B8D0, symBinAddr: 0x10001CB9C, symSize: 0x2C }
  - { offset: 0x5C2E0, size: 0x8, addend: 0x0, symName: __ZNSt3__118__allocation_guardINS_9allocatorINS_20__shared_ptr_emplaceI6LinearNS1_IS3_EEEEEEEC1B8ne180100IS4_EET_m, symObjAddr: 0x1B8FC, symBinAddr: 0x10001CBC8, symSize: 0x34 }
  - { offset: 0x5C32F, size: 0x8, addend: 0x0, symName: __ZNKSt3__118__allocation_guardINS_9allocatorINS_20__shared_ptr_emplaceI6LinearNS1_IS3_EEEEEEE5__getB8ne180100Ev, symObjAddr: 0x1B930, symBinAddr: 0x10001CBFC, symSize: 0x18 }
  - { offset: 0x5C355, size: 0x8, addend: 0x0, symName: __ZNSt3__120__shared_ptr_emplaceI6LinearNS_9allocatorIS1_EEEC1B8ne180100IJRiS6_ES3_Li0EEES3_DpOT_, symObjAddr: 0x1B948, symBinAddr: 0x10001CC14, symSize: 0x3C }
  - { offset: 0x5C3CB, size: 0x8, addend: 0x0, symName: __ZNSt3__118__allocation_guardINS_9allocatorINS_20__shared_ptr_emplaceI6LinearNS1_IS3_EEEEEEE13__release_ptrB8ne180100Ev, symObjAddr: 0x1B984, symBinAddr: 0x10001CC50, symSize: 0x24 }
  - { offset: 0x5C3FF, size: 0x8, addend: 0x0, symName: __ZNSt3__110shared_ptrI6LinearE27__create_with_control_blockB8ne180100IS1_NS_20__shared_ptr_emplaceIS1_NS_9allocatorIS1_EEEEEES2_PT_PT0_, symObjAddr: 0x1B9A8, symBinAddr: 0x10001CC74, symSize: 0xA4 }
  - { offset: 0x5C454, size: 0x8, addend: 0x0, symName: __ZNSt3__120__shared_ptr_emplaceI6LinearNS_9allocatorIS1_EEE10__get_elemB8ne180100Ev, symObjAddr: 0x1BA4C, symBinAddr: 0x10001CD18, symSize: 0x28 }
  - { offset: 0x5C47A, size: 0x8, addend: 0x0, symName: __ZNSt3__118__allocation_guardINS_9allocatorINS_20__shared_ptr_emplaceI6LinearNS1_IS3_EEEEEEED1B8ne180100Ev, symObjAddr: 0x1BA74, symBinAddr: 0x10001CD40, symSize: 0x2C }
  - { offset: 0x5C4A4, size: 0x8, addend: 0x0, symName: __ZNSt3__118__allocation_guardINS_9allocatorINS_20__shared_ptr_emplaceI6LinearNS1_IS3_EEEEEEEC2B8ne180100IS4_EET_m, symObjAddr: 0x1BAA0, symBinAddr: 0x10001CD6C, symSize: 0x50 }
  - { offset: 0x5C4F3, size: 0x8, addend: 0x0, symName: __ZNSt3__19allocatorINS_20__shared_ptr_emplaceI6LinearNS0_IS2_EEEEEC1B8ne180100IS2_EERKNS0_IT_EE, symObjAddr: 0x1BAF0, symBinAddr: 0x10001CDBC, symSize: 0x34 }
  - { offset: 0x5C530, size: 0x8, addend: 0x0, symName: __ZNSt3__116allocator_traitsINS_9allocatorINS_20__shared_ptr_emplaceI6LinearNS1_IS3_EEEEEEE8allocateB8ne180100ERS6_m, symObjAddr: 0x1BB24, symBinAddr: 0x10001CDF0, symSize: 0x2C }
  - { offset: 0x5C563, size: 0x8, addend: 0x0, symName: __ZNSt3__19allocatorINS_20__shared_ptr_emplaceI6LinearNS0_IS2_EEEEEC2B8ne180100IS2_EERKNS0_IT_EE, symObjAddr: 0x1BB50, symBinAddr: 0x10001CE1C, symSize: 0x30 }
  - { offset: 0x5C5A0, size: 0x8, addend: 0x0, symName: __ZNSt3__116__non_trivial_ifILb1ENS_9allocatorINS_20__shared_ptr_emplaceI6LinearNS1_IS3_EEEEEEEC2B8ne180100Ev, symObjAddr: 0x1BB80, symBinAddr: 0x10001CE4C, symSize: 0x14 }
  - { offset: 0x5C5CA, size: 0x8, addend: 0x0, symName: __ZNSt3__19allocatorINS_20__shared_ptr_emplaceI6LinearNS0_IS2_EEEEE8allocateB8ne180100Em, symObjAddr: 0x1BB94, symBinAddr: 0x10001CE60, symSize: 0x5C }
  - { offset: 0x5C609, size: 0x8, addend: 0x0, symName: __ZNSt3__116allocator_traitsINS_9allocatorINS_20__shared_ptr_emplaceI6LinearNS1_IS3_EEEEEEE8max_sizeB8ne180100IS6_vEEmRKS6_, symObjAddr: 0x1BBF0, symBinAddr: 0x10001CEBC, symSize: 0x24 }
  - { offset: 0x5C637, size: 0x8, addend: 0x0, symName: __ZNKSt3__19allocatorINS_20__shared_ptr_emplaceI6LinearNS0_IS2_EEEEE8max_sizeB8ne180100Ev, symObjAddr: 0x1BC14, symBinAddr: 0x10001CEE0, symSize: 0x18 }
  - { offset: 0x5C65D, size: 0x8, addend: 0x0, symName: __ZNSt3__120__shared_ptr_emplaceI6LinearNS_9allocatorIS1_EEEC2B8ne180100IJRiS6_ES3_Li0EEES3_DpOT_, symObjAddr: 0x1BC2C, symBinAddr: 0x10001CEF8, symSize: 0xC4 }
  - { offset: 0x5C6F4, size: 0x8, addend: 0x0, symName: __ZNSt3__120__shared_ptr_emplaceI6LinearNS_9allocatorIS1_EEE8_StorageC1B8ne180100EOS3_, symObjAddr: 0x1BCF0, symBinAddr: 0x10001CFBC, symSize: 0x34 }
  - { offset: 0x5C72D, size: 0x8, addend: 0x0, symName: __ZNSt3__120__shared_ptr_emplaceI6LinearNS_9allocatorIS1_EEE11__get_allocB8ne180100Ev, symObjAddr: 0x1BD24, symBinAddr: 0x10001CFF0, symSize: 0x28 }
  - { offset: 0x5C759, size: 0x8, addend: 0x0, symName: __ZNSt3__116allocator_traitsINS_9allocatorI6LinearEEE9constructB8ne180100IS2_JRiS6_EvEEvRS3_PT_DpOT0_, symObjAddr: 0x1BD4C, symBinAddr: 0x10001D018, symSize: 0x3C }
  - { offset: 0x5C7C4, size: 0x8, addend: 0x0, symName: __ZNSt3__120__shared_ptr_emplaceI6LinearNS_9allocatorIS1_EEE8_StorageD1B8ne180100Ev, symObjAddr: 0x1BD88, symBinAddr: 0x10001D054, symSize: 0x2C }
  - { offset: 0x5C7EE, size: 0x8, addend: 0x0, symName: __ZNSt3__120__shared_ptr_emplaceI6LinearNS_9allocatorIS1_EEED1Ev, symObjAddr: 0x1BDB4, symBinAddr: 0x10001D080, symSize: 0x2C }
  - { offset: 0x5C81A, size: 0x8, addend: 0x0, symName: __ZNSt3__120__shared_ptr_emplaceI6LinearNS_9allocatorIS1_EEED0Ev, symObjAddr: 0x1BDE0, symBinAddr: 0x10001D0AC, symSize: 0x30 }
  - { offset: 0x5C846, size: 0x8, addend: 0x0, symName: __ZNSt3__120__shared_ptr_emplaceI6LinearNS_9allocatorIS1_EEE16__on_zero_sharedEv, symObjAddr: 0x1BE10, symBinAddr: 0x10001D0DC, symSize: 0x24 }
  - { offset: 0x5C86C, size: 0x8, addend: 0x0, symName: __ZNSt3__120__shared_ptr_emplaceI6LinearNS_9allocatorIS1_EEE21__on_zero_shared_weakEv, symObjAddr: 0x1BE34, symBinAddr: 0x10001D100, symSize: 0x5C }
  - { offset: 0x5C8AD, size: 0x8, addend: 0x0, symName: __ZNSt3__120__shared_ptr_emplaceI6LinearNS_9allocatorIS1_EEE8_StorageC2B8ne180100EOS3_, symObjAddr: 0x1BE90, symBinAddr: 0x10001D15C, symSize: 0x30 }
  - { offset: 0x5C8E6, size: 0x8, addend: 0x0, symName: __ZNSt3__120__shared_ptr_emplaceI6LinearNS_9allocatorIS1_EEE8_Storage11__get_allocB8ne180100Ev, symObjAddr: 0x1BEC0, symBinAddr: 0x10001D18C, symSize: 0x3C }
  - { offset: 0x5C939, size: 0x8, addend: 0x0, symName: __ZNSt3__117__compressed_pairINS_9allocatorI6LinearEES2_E16__get_first_baseB8ne180100EPS4_, symObjAddr: 0x1BEFC, symBinAddr: 0x10001D1C8, symSize: 0x14 }
  - { offset: 0x5C95C, size: 0x8, addend: 0x0, symName: __ZNSt3__19allocatorI6LinearE9constructB8ne180100IS1_JRiS4_EEEvPT_DpOT0_, symObjAddr: 0x1BF10, symBinAddr: 0x10001D1DC, symSize: 0x40 }
  - { offset: 0x5C9C5, size: 0x8, addend: 0x0, symName: __ZN6LinearC1Eii, symObjAddr: 0x1BF50, symBinAddr: 0x10001D21C, symSize: 0x3C }
  - { offset: 0x5CA0B, size: 0x8, addend: 0x0, symName: __ZN6LinearC2Eii, symObjAddr: 0x1BF8C, symBinAddr: 0x10001D258, symSize: 0x278 }
  - { offset: 0x5CAC2, size: 0x8, addend: 0x0, symName: __ZNSt3__16vectorINS0_INS_10shared_ptrI5ValueEENS_9allocatorIS3_EEEENS4_IS6_EEEC1B8ne180100Ev, symObjAddr: 0x1C204, symBinAddr: 0x10001D4D0, symSize: 0x2C }
  - { offset: 0x5CB14, size: 0x8, addend: 0x0, symName: __ZNSt3__125uniform_real_distributionIdEC1B8ne180100Edd, symObjAddr: 0x1C230, symBinAddr: 0x10001D4FC, symSize: 0x3C }
  - { offset: 0x5CB5A, size: 0x8, addend: 0x0, symName: __ZNSt3__125uniform_real_distributionIdEclB8ne180100INS_23mersenne_twister_engineIjLm32ELm624ELm397ELm31ELj2567483615ELm11ELj4294967295ELm7ELj2636928640ELm15ELj4022730752ELm18ELj1812433253EEEEEdRT_, symObjAddr: 0x1C2B4, symBinAddr: 0x10001D580, symSize: 0x30 }
  - { offset: 0x5CB97, size: 0x8, addend: 0x0, symName: __ZNSt3__16vectorINS0_INS_10shared_ptrI5ValueEENS_9allocatorIS3_EEEENS4_IS6_EEE9push_backB8ne180100ERKS6_, symObjAddr: 0x1C2E4, symBinAddr: 0x10001D5B0, symSize: 0x90 }
  - { offset: 0x5CBDD, size: 0x8, addend: 0x0, symName: __ZNSt3__16vectorINS0_INS_10shared_ptrI5ValueEENS_9allocatorIS3_EEEENS4_IS6_EEED1B8ne180100Ev, symObjAddr: 0x1C374, symBinAddr: 0x10001D640, symSize: 0x2C }
  - { offset: 0x5CC07, size: 0x8, addend: 0x0, symName: __ZNSt3__16vectorINS0_INS_10shared_ptrI5ValueEENS_9allocatorIS3_EEEENS4_IS6_EEEC2B8ne180100Ev, symObjAddr: 0x1C3A0, symBinAddr: 0x10001D66C, symSize: 0x4C }
  - { offset: 0x5CC31, size: 0x8, addend: 0x0, symName: __ZNSt3__117__compressed_pairIPNS_6vectorINS_10shared_ptrI5ValueEENS_9allocatorIS4_EEEENS5_IS7_EEEC1B8ne180100IDnNS_18__default_init_tagEEEOT_OT0_, symObjAddr: 0x1C3EC, symBinAddr: 0x10001D6B8, symSize: 0x3C }
  - { offset: 0x5CC89, size: 0x8, addend: 0x0, symName: __ZNSt3__117__compressed_pairIPNS_6vectorINS_10shared_ptrI5ValueEENS_9allocatorIS4_EEEENS5_IS7_EEEC2B8ne180100IDnNS_18__default_init_tagEEEOT_OT0_, symObjAddr: 0x1C428, symBinAddr: 0x10001D6F4, symSize: 0x40 }
  - { offset: 0x5CCE1, size: 0x8, addend: 0x0, symName: __ZNSt3__122__compressed_pair_elemIPNS_6vectorINS_10shared_ptrI5ValueEENS_9allocatorIS4_EEEELi0ELb0EEC2B8ne180100IDnvEEOT_, symObjAddr: 0x1C468, symBinAddr: 0x10001D734, symSize: 0x1C }
  - { offset: 0x5CD23, size: 0x8, addend: 0x0, symName: __ZNSt3__122__compressed_pair_elemINS_9allocatorINS_6vectorINS_10shared_ptrI5ValueEENS1_IS5_EEEEEELi1ELb1EEC2B8ne180100ENS_18__default_init_tagE, symObjAddr: 0x1C484, symBinAddr: 0x10001D750, symSize: 0x2C }
  - { offset: 0x5CD57, size: 0x8, addend: 0x0, symName: __ZNSt3__19allocatorINS_6vectorINS_10shared_ptrI5ValueEENS0_IS4_EEEEEC2B8ne180100Ev, symObjAddr: 0x1C4B0, symBinAddr: 0x10001D77C, symSize: 0x2C }
  - { offset: 0x5CD81, size: 0x8, addend: 0x0, symName: __ZNSt3__116__non_trivial_ifILb1ENS_9allocatorINS_6vectorINS_10shared_ptrI5ValueEENS1_IS5_EEEEEEEC2B8ne180100Ev, symObjAddr: 0x1C4DC, symBinAddr: 0x10001D7A8, symSize: 0x14 }
  - { offset: 0x5CDAB, size: 0x8, addend: 0x0, symName: __ZNSt3__125uniform_real_distributionIdEC2B8ne180100Edd, symObjAddr: 0x1C4F0, symBinAddr: 0x10001D7BC, symSize: 0x3C }
  - { offset: 0x5CDF1, size: 0x8, addend: 0x0, symName: __ZNSt3__125uniform_real_distributionIdE10param_typeC1B8ne180100Edd, symObjAddr: 0x1C52C, symBinAddr: 0x10001D7F8, symSize: 0x3C }
  - { offset: 0x5CE37, size: 0x8, addend: 0x0, symName: __ZNSt3__125uniform_real_distributionIdE10param_typeC2B8ne180100Edd, symObjAddr: 0x1C568, symBinAddr: 0x10001D834, symSize: 0x2C }
  - { offset: 0x5CE96, size: 0x8, addend: 0x0, symName: __ZNSt3__120__shared_ptr_emplaceI5ValueNS_9allocatorIS1_EEEC1B8ne180100IJdRA2_KcES3_Li0EEES3_DpOT_, symObjAddr: 0x1C634, symBinAddr: 0x10001D900, symSize: 0x3C }
  - { offset: 0x5CF0C, size: 0x8, addend: 0x0, symName: __ZNSt3__120__shared_ptr_emplaceI5ValueNS_9allocatorIS1_EEEC2B8ne180100IJdRA2_KcES3_Li0EEES3_DpOT_, symObjAddr: 0x1C670, symBinAddr: 0x10001D93C, symSize: 0xC4 }
  - { offset: 0x5CFA3, size: 0x8, addend: 0x0, symName: __ZNSt3__116allocator_traitsINS_9allocatorI5ValueEEE9constructB8ne180100IS2_JdRA2_KcEvEEvRS3_PT_DpOT0_, symObjAddr: 0x1C734, symBinAddr: 0x10001DA00, symSize: 0x3C }
  - { offset: 0x5D00E, size: 0x8, addend: 0x0, symName: __ZNSt3__19allocatorI5ValueE9constructB8ne180100IS1_JdRA2_KcEEEvPT_DpOT0_, symObjAddr: 0x1C770, symBinAddr: 0x10001DA3C, symSize: 0x88 }
  - { offset: 0x5D077, size: 0x8, addend: 0x0, symName: __ZNSt3__125uniform_real_distributionIdEclINS_23mersenne_twister_engineIjLm32ELm624ELm397ELm31ELj2567483615ELm11ELj4294967295ELm7ELj2636928640ELm15ELj4022730752ELm18ELj1812433253EEEEEdRT_RKNS1_10param_typeE, symObjAddr: 0x1C7F8, symBinAddr: 0x10001DAC4, symSize: 0x6C }
  - { offset: 0x5D0C3, size: 0x8, addend: 0x0, symName: __ZNKSt3__125uniform_real_distributionIdE10param_type1bB8ne180100Ev, symObjAddr: 0x1C864, symBinAddr: 0x10001DB30, symSize: 0x18 }
  - { offset: 0x5D0E9, size: 0x8, addend: 0x0, symName: __ZNKSt3__125uniform_real_distributionIdE10param_type1aB8ne180100Ev, symObjAddr: 0x1C87C, symBinAddr: 0x10001DB48, symSize: 0x18 }
  - { offset: 0x5D10F, size: 0x8, addend: 0x0, symName: __ZNSt3__123mersenne_twister_engineIjLm32ELm624ELm397ELm31ELj2567483615ELm11ELj4294967295ELm7ELj2636928640ELm15ELj4022730752ELm18ELj1812433253EE3maxB8ne180100Ev, symObjAddr: 0x1C9A8, symBinAddr: 0x10001DC74, symSize: 0x8 }
  - { offset: 0x5D123, size: 0x8, addend: 0x0, symName: __ZNSt3__16vectorINS0_INS_10shared_ptrI5ValueEENS_9allocatorIS3_EEEENS4_IS6_EEE9__end_capB8ne180100Ev, symObjAddr: 0x1C9B0, symBinAddr: 0x10001DC7C, symSize: 0x28 }
  - { offset: 0x5D149, size: 0x8, addend: 0x0, symName: __ZNSt3__16vectorINS0_INS_10shared_ptrI5ValueEENS_9allocatorIS3_EEEENS4_IS6_EEE22__construct_one_at_endB8ne180100IJRKS6_EEEvDpOT_, symObjAddr: 0x1C9D8, symBinAddr: 0x10001DCA4, symSize: 0x90 }
  - { offset: 0x5D198, size: 0x8, addend: 0x0, symName: __ZNSt3__16vectorINS0_INS_10shared_ptrI5ValueEENS_9allocatorIS3_EEEENS4_IS6_EEE21__push_back_slow_pathIRKS6_EEPS6_OT_, symObjAddr: 0x1CA68, symBinAddr: 0x10001DD34, symSize: 0xE8 }
  - { offset: 0x5D1F6, size: 0x8, addend: 0x0, symName: __ZNSt3__117__compressed_pairIPNS_6vectorINS_10shared_ptrI5ValueEENS_9allocatorIS4_EEEENS5_IS7_EEE5firstB8ne180100Ev, symObjAddr: 0x1CB50, symBinAddr: 0x10001DE1C, symSize: 0x24 }
  - { offset: 0x5D21C, size: 0x8, addend: 0x0, symName: __ZNSt3__122__compressed_pair_elemIPNS_6vectorINS_10shared_ptrI5ValueEENS_9allocatorIS4_EEEELi0ELb0EE5__getB8ne180100Ev, symObjAddr: 0x1CB74, symBinAddr: 0x10001DE40, symSize: 0x14 }
  - { offset: 0x5D25E, size: 0x8, addend: 0x0, symName: __ZNSt3__16vectorINS0_INS_10shared_ptrI5ValueEENS_9allocatorIS3_EEEENS4_IS6_EEE21_ConstructTransactionC1B8ne180100ERS8_m, symObjAddr: 0x1CB88, symBinAddr: 0x10001DE54, symSize: 0x3C }
  - { offset: 0x5D2A6, size: 0x8, addend: 0x0, symName: __ZNSt3__116allocator_traitsINS_9allocatorINS_6vectorINS_10shared_ptrI5ValueEENS1_IS5_EEEEEEE9constructB8ne180100IS7_JRKS7_EvEEvRS8_PT_DpOT0_, symObjAddr: 0x1CBC4, symBinAddr: 0x10001DE90, symSize: 0x34 }
  - { offset: 0x5D2FD, size: 0x8, addend: 0x0, symName: __ZNSt3__16vectorINS0_INS_10shared_ptrI5ValueEENS_9allocatorIS3_EEEENS4_IS6_EEE7__allocB8ne180100Ev, symObjAddr: 0x1CBF8, symBinAddr: 0x10001DEC4, symSize: 0x28 }
  - { offset: 0x5D323, size: 0x8, addend: 0x0, symName: __ZNSt3__16vectorINS0_INS_10shared_ptrI5ValueEENS_9allocatorIS3_EEEENS4_IS6_EEE21_ConstructTransactionD1B8ne180100Ev, symObjAddr: 0x1CC34, symBinAddr: 0x10001DF00, symSize: 0x2C }
  - { offset: 0x5D34D, size: 0x8, addend: 0x0, symName: __ZNSt3__16vectorINS0_INS_10shared_ptrI5ValueEENS_9allocatorIS3_EEEENS4_IS6_EEE21_ConstructTransactionC2B8ne180100ERS8_m, symObjAddr: 0x1CC60, symBinAddr: 0x10001DF2C, symSize: 0x4C }
  - { offset: 0x5D395, size: 0x8, addend: 0x0, symName: __ZNSt3__19allocatorINS_6vectorINS_10shared_ptrI5ValueEENS0_IS4_EEEEE9constructB8ne180100IS6_JRKS6_EEEvPT_DpOT0_, symObjAddr: 0x1CCAC, symBinAddr: 0x10001DF78, symSize: 0x30 }
  - { offset: 0x5D3EB, size: 0x8, addend: 0x0, symName: __ZNSt3__117__compressed_pairIPNS_6vectorINS_10shared_ptrI5ValueEENS_9allocatorIS4_EEEENS5_IS7_EEE6secondB8ne180100Ev, symObjAddr: 0x1CCDC, symBinAddr: 0x10001DFA8, symSize: 0x24 }
  - { offset: 0x5D411, size: 0x8, addend: 0x0, symName: __ZNSt3__122__compressed_pair_elemINS_9allocatorINS_6vectorINS_10shared_ptrI5ValueEENS1_IS5_EEEEEELi1ELb1EE5__getB8ne180100Ev, symObjAddr: 0x1CD00, symBinAddr: 0x10001DFCC, symSize: 0x14 }
  - { offset: 0x5D437, size: 0x8, addend: 0x0, symName: __ZNSt3__16vectorINS0_INS_10shared_ptrI5ValueEENS_9allocatorIS3_EEEENS4_IS6_EEE21_ConstructTransactionD2B8ne180100Ev, symObjAddr: 0x1CD14, symBinAddr: 0x10001DFE0, symSize: 0x20 }
  - { offset: 0x5D461, size: 0x8, addend: 0x0, symName: __ZNKSt3__16vectorINS0_INS_10shared_ptrI5ValueEENS_9allocatorIS3_EEEENS4_IS6_EEE11__recommendB8ne180100Em, symObjAddr: 0x1CD34, symBinAddr: 0x10001E000, symSize: 0xB4 }
  - { offset: 0x5D4B6, size: 0x8, addend: 0x0, symName: __ZNKSt3__16vectorINS0_INS_10shared_ptrI5ValueEENS_9allocatorIS3_EEEENS4_IS6_EEE4sizeB8ne180100Ev, symObjAddr: 0x1CDE8, symBinAddr: 0x10001E0B4, symSize: 0x28 }
  - { offset: 0x5D4DC, size: 0x8, addend: 0x0, symName: __ZNSt3__114__split_bufferINS_6vectorINS_10shared_ptrI5ValueEENS_9allocatorIS4_EEEERNS5_IS7_EEEC1EmmS9_, symObjAddr: 0x1CE10, symBinAddr: 0x10001E0DC, symSize: 0x44 }
  - { offset: 0x5D532, size: 0x8, addend: 0x0, symName: __ZNSt3__114__split_bufferINS_6vectorINS_10shared_ptrI5ValueEENS_9allocatorIS4_EEEERNS5_IS7_EEED1Ev, symObjAddr: 0x1CF64, symBinAddr: 0x10001E230, symSize: 0x2C }
  - { offset: 0x5D55E, size: 0x8, addend: 0x0, symName: __ZNKSt3__16vectorINS0_INS_10shared_ptrI5ValueEENS_9allocatorIS3_EEEENS4_IS6_EEE8max_sizeEv, symObjAddr: 0x1CF90, symBinAddr: 0x10001E25C, symSize: 0x60 }
  - { offset: 0x5D586, size: 0x8, addend: 0x0, symName: __ZNKSt3__16vectorINS0_INS_10shared_ptrI5ValueEENS_9allocatorIS3_EEEENS4_IS6_EEE20__throw_length_errorB8ne180100Ev, symObjAddr: 0x1CFF0, symBinAddr: 0x10001E2BC, symSize: 0x1C }
  - { offset: 0x5D5AC, size: 0x8, addend: 0x0, symName: __ZNKSt3__16vectorINS0_INS_10shared_ptrI5ValueEENS_9allocatorIS3_EEEENS4_IS6_EEE8capacityB8ne180100Ev, symObjAddr: 0x1D00C, symBinAddr: 0x10001E2D8, symSize: 0x40 }
  - { offset: 0x5D5DD, size: 0x8, addend: 0x0, symName: __ZNSt3__116allocator_traitsINS_9allocatorINS_6vectorINS_10shared_ptrI5ValueEENS1_IS5_EEEEEEE8max_sizeB8ne180100IS8_vEEmRKS8_, symObjAddr: 0x1D04C, symBinAddr: 0x10001E318, symSize: 0x24 }
  - { offset: 0x5D60B, size: 0x8, addend: 0x0, symName: __ZNKSt3__16vectorINS0_INS_10shared_ptrI5ValueEENS_9allocatorIS3_EEEENS4_IS6_EEE7__allocB8ne180100Ev, symObjAddr: 0x1D070, symBinAddr: 0x10001E33C, symSize: 0x28 }
  - { offset: 0x5D631, size: 0x8, addend: 0x0, symName: __ZNKSt3__19allocatorINS_6vectorINS_10shared_ptrI5ValueEENS0_IS4_EEEEE8max_sizeB8ne180100Ev, symObjAddr: 0x1D098, symBinAddr: 0x10001E364, symSize: 0x18 }
  - { offset: 0x5D657, size: 0x8, addend: 0x0, symName: __ZNKSt3__117__compressed_pairIPNS_6vectorINS_10shared_ptrI5ValueEENS_9allocatorIS4_EEEENS5_IS7_EEE6secondB8ne180100Ev, symObjAddr: 0x1D0B0, symBinAddr: 0x10001E37C, symSize: 0x24 }
  - { offset: 0x5D67D, size: 0x8, addend: 0x0, symName: __ZNKSt3__122__compressed_pair_elemINS_9allocatorINS_6vectorINS_10shared_ptrI5ValueEENS1_IS5_EEEEEELi1ELb1EE5__getB8ne180100Ev, symObjAddr: 0x1D0D4, symBinAddr: 0x10001E3A0, symSize: 0x14 }
  - { offset: 0x5D6A3, size: 0x8, addend: 0x0, symName: __ZNKSt3__16vectorINS0_INS_10shared_ptrI5ValueEENS_9allocatorIS3_EEEENS4_IS6_EEE9__end_capB8ne180100Ev, symObjAddr: 0x1D0E8, symBinAddr: 0x10001E3B4, symSize: 0x28 }
  - { offset: 0x5D6C9, size: 0x8, addend: 0x0, symName: __ZNKSt3__117__compressed_pairIPNS_6vectorINS_10shared_ptrI5ValueEENS_9allocatorIS4_EEEENS5_IS7_EEE5firstB8ne180100Ev, symObjAddr: 0x1D110, symBinAddr: 0x10001E3DC, symSize: 0x24 }
  - { offset: 0x5D6EF, size: 0x8, addend: 0x0, symName: __ZNKSt3__122__compressed_pair_elemIPNS_6vectorINS_10shared_ptrI5ValueEENS_9allocatorIS4_EEEELi0ELb0EE5__getB8ne180100Ev, symObjAddr: 0x1D134, symBinAddr: 0x10001E400, symSize: 0x14 }
  - { offset: 0x5D715, size: 0x8, addend: 0x0, symName: __ZNSt3__114__split_bufferINS_6vectorINS_10shared_ptrI5ValueEENS_9allocatorIS4_EEEERNS5_IS7_EEEC2EmmS9_, symObjAddr: 0x1D148, symBinAddr: 0x10001E414, symSize: 0xE0 }
  - { offset: 0x5D788, size: 0x8, addend: 0x0, symName: __ZNSt3__117__compressed_pairIPNS_6vectorINS_10shared_ptrI5ValueEENS_9allocatorIS4_EEEERNS5_IS7_EEEC1B8ne180100IDnSA_EEOT_OT0_, symObjAddr: 0x1D228, symBinAddr: 0x10001E4F4, symSize: 0x3C }
  - { offset: 0x5D7E0, size: 0x8, addend: 0x0, symName: __ZNSt3__114__split_bufferINS_6vectorINS_10shared_ptrI5ValueEENS_9allocatorIS4_EEEERNS5_IS7_EEE7__allocB8ne180100Ev, symObjAddr: 0x1D2A4, symBinAddr: 0x10001E570, symSize: 0x28 }
  - { offset: 0x5D806, size: 0x8, addend: 0x0, symName: __ZNSt3__114__split_bufferINS_6vectorINS_10shared_ptrI5ValueEENS_9allocatorIS4_EEEERNS5_IS7_EEE9__end_capB8ne180100Ev, symObjAddr: 0x1D2CC, symBinAddr: 0x10001E598, symSize: 0x28 }
  - { offset: 0x5D82C, size: 0x8, addend: 0x0, symName: __ZNSt3__117__compressed_pairIPNS_6vectorINS_10shared_ptrI5ValueEENS_9allocatorIS4_EEEERNS5_IS7_EEEC2B8ne180100IDnSA_EEOT_OT0_, symObjAddr: 0x1D2F4, symBinAddr: 0x10001E5C0, symSize: 0x48 }
  - { offset: 0x5D884, size: 0x8, addend: 0x0, symName: __ZNSt3__122__compressed_pair_elemIRNS_9allocatorINS_6vectorINS_10shared_ptrI5ValueEENS1_IS5_EEEEEELi1ELb0EEC2B8ne180100IS9_vEEOT_, symObjAddr: 0x1D33C, symBinAddr: 0x10001E608, symSize: 0x20 }
  - { offset: 0x5D8C6, size: 0x8, addend: 0x0, symName: __ZNSt3__19allocatorINS_6vectorINS_10shared_ptrI5ValueEENS0_IS4_EEEEE8allocateB8ne180100Em, symObjAddr: 0x1D35C, symBinAddr: 0x10001E628, symSize: 0x5C }
  - { offset: 0x5D8FA, size: 0x8, addend: 0x0, symName: __ZNSt3__117__compressed_pairIPNS_6vectorINS_10shared_ptrI5ValueEENS_9allocatorIS4_EEEERNS5_IS7_EEE6secondB8ne180100Ev, symObjAddr: 0x1D3B8, symBinAddr: 0x10001E684, symSize: 0x28 }
  - { offset: 0x5D920, size: 0x8, addend: 0x0, symName: __ZNSt3__122__compressed_pair_elemIRNS_9allocatorINS_6vectorINS_10shared_ptrI5ValueEENS1_IS5_EEEEEELi1ELb0EE5__getB8ne180100Ev, symObjAddr: 0x1D3E0, symBinAddr: 0x10001E6AC, symSize: 0x18 }
  - { offset: 0x5D946, size: 0x8, addend: 0x0, symName: __ZNSt3__117__compressed_pairIPNS_6vectorINS_10shared_ptrI5ValueEENS_9allocatorIS4_EEEERNS5_IS7_EEE5firstB8ne180100Ev, symObjAddr: 0x1D3F8, symBinAddr: 0x10001E6C4, symSize: 0x24 }
  - { offset: 0x5D96C, size: 0x8, addend: 0x0, symName: __ZNKSt3__16vectorINS0_INS_10shared_ptrI5ValueEENS_9allocatorIS3_EEEENS4_IS6_EEE17__annotate_deleteB8ne180100Ev, symObjAddr: 0x1D41C, symBinAddr: 0x10001E6E8, symSize: 0x10 }
  - { offset: 0x5D992, size: 0x8, addend: 0x0, symName: __ZNSt3__116reverse_iteratorIPNS_6vectorINS_10shared_ptrI5ValueEENS_9allocatorIS4_EEEEEC1B8ne180100ES8_, symObjAddr: 0x1D558, symBinAddr: 0x10001E824, symSize: 0x34 }
  - { offset: 0x5D9CA, size: 0x8, addend: 0x0, symName: __ZNKSt3__116reverse_iteratorIPNS_6vectorINS_10shared_ptrI5ValueEENS_9allocatorIS4_EEEEE4baseB8ne180100Ev, symObjAddr: 0x1D58C, symBinAddr: 0x10001E858, symSize: 0x18 }
  - { offset: 0x5D9F0, size: 0x8, addend: 0x0, symName: __ZNKSt3__16vectorINS0_INS_10shared_ptrI5ValueEENS_9allocatorIS3_EEEENS4_IS6_EEE14__annotate_newB8ne180100Em, symObjAddr: 0x1D5E0, symBinAddr: 0x10001E8AC, symSize: 0x14 }
  - { offset: 0x5DA25, size: 0x8, addend: 0x0, symName: __ZNSt3__129_AllocatorDestroyRangeReverseINS_9allocatorINS_6vectorINS_10shared_ptrI5ValueEENS1_IS5_EEEEEENS_16reverse_iteratorIPS7_EEEC1B8ne180100ERS8_RSB_SE_, symObjAddr: 0x1D640, symBinAddr: 0x10001E90C, symSize: 0x44 }
  - { offset: 0x5DA7C, size: 0x8, addend: 0x0, symName: __ZNSt3__116allocator_traitsINS_9allocatorINS_6vectorINS_10shared_ptrI5ValueEENS1_IS5_EEEEEEE9constructB8ne180100IS7_JS7_EvEEvRS8_PT_DpOT0_, symObjAddr: 0x1D6CC, symBinAddr: 0x10001E998, symSize: 0x34 }
  - { offset: 0x5DAD3, size: 0x8, addend: 0x0, symName: __ZNKSt3__116reverse_iteratorIPNS_6vectorINS_10shared_ptrI5ValueEENS_9allocatorIS4_EEEEEdeB8ne180100Ev, symObjAddr: 0x1D724, symBinAddr: 0x10001E9F0, symSize: 0x28 }
  - { offset: 0x5DB07, size: 0x8, addend: 0x0, symName: __ZNSt3__116reverse_iteratorIPNS_6vectorINS_10shared_ptrI5ValueEENS_9allocatorIS4_EEEEEppB8ne180100Ev, symObjAddr: 0x1D74C, symBinAddr: 0x10001EA18, symSize: 0x20 }
  - { offset: 0x5DB2D, size: 0x8, addend: 0x0, symName: __ZNSt3__128__exception_guard_exceptionsINS_29_AllocatorDestroyRangeReverseINS_9allocatorINS_6vectorINS_10shared_ptrI5ValueEENS2_IS6_EEEEEENS_16reverse_iteratorIPS8_EEEEE10__completeB8ne180100Ev, symObjAddr: 0x1D76C, symBinAddr: 0x10001EA38, symSize: 0x1C }
  - { offset: 0x5DB53, size: 0x8, addend: 0x0, symName: __ZNSt3__128__exception_guard_exceptionsINS_29_AllocatorDestroyRangeReverseINS_9allocatorINS_6vectorINS_10shared_ptrI5ValueEENS2_IS6_EEEEEENS_16reverse_iteratorIPS8_EEEEED1B8ne180100Ev, symObjAddr: 0x1D788, symBinAddr: 0x10001EA54, symSize: 0x2C }
  - { offset: 0x5DB7D, size: 0x8, addend: 0x0, symName: __ZNSt3__128__exception_guard_exceptionsINS_29_AllocatorDestroyRangeReverseINS_9allocatorINS_6vectorINS_10shared_ptrI5ValueEENS2_IS6_EEEEEENS_16reverse_iteratorIPS8_EEEEEC1B8ne180100ESD_, symObjAddr: 0x1D7B4, symBinAddr: 0x10001EA80, symSize: 0x34 }
  - { offset: 0x5DBB6, size: 0x8, addend: 0x0, symName: __ZNSt3__128__exception_guard_exceptionsINS_29_AllocatorDestroyRangeReverseINS_9allocatorINS_6vectorINS_10shared_ptrI5ValueEENS2_IS6_EEEEEENS_16reverse_iteratorIPS8_EEEEEC2B8ne180100ESD_, symObjAddr: 0x1D7E8, symBinAddr: 0x10001EAB4, symSize: 0x30 }
  - { offset: 0x5DBEF, size: 0x8, addend: 0x0, symName: __ZNSt3__129_AllocatorDestroyRangeReverseINS_9allocatorINS_6vectorINS_10shared_ptrI5ValueEENS1_IS5_EEEEEENS_16reverse_iteratorIPS7_EEEC2B8ne180100ERS8_RSB_SE_, symObjAddr: 0x1D818, symBinAddr: 0x10001EAE4, symSize: 0x38 }
  - { offset: 0x5DC46, size: 0x8, addend: 0x0, symName: __ZNSt3__19allocatorINS_6vectorINS_10shared_ptrI5ValueEENS0_IS4_EEEEE9constructB8ne180100IS6_JS6_EEEvPT_DpOT0_, symObjAddr: 0x1D850, symBinAddr: 0x10001EB1C, symSize: 0x30 }
  - { offset: 0x5DCA2, size: 0x8, addend: 0x0, symName: __ZNSt3__119__to_address_helperINS_16reverse_iteratorIPNS_6vectorINS_10shared_ptrI5ValueEENS_9allocatorIS5_EEEEEEvE6__callB8ne180100ERKSA_, symObjAddr: 0x1D880, symBinAddr: 0x10001EB4C, symSize: 0x38 }
  - { offset: 0x5DCC5, size: 0x8, addend: 0x0, symName: __ZNKSt3__116reverse_iteratorIPNS_6vectorINS_10shared_ptrI5ValueEENS_9allocatorIS4_EEEEEptB8ne180100Ev, symObjAddr: 0x1D8B8, symBinAddr: 0x10001EB84, symSize: 0x24 }
  - { offset: 0x5DCEB, size: 0x8, addend: 0x0, symName: __ZNSt3__128__exception_guard_exceptionsINS_29_AllocatorDestroyRangeReverseINS_9allocatorINS_6vectorINS_10shared_ptrI5ValueEENS2_IS6_EEEEEENS_16reverse_iteratorIPS8_EEEEED2B8ne180100Ev, symObjAddr: 0x1D8DC, symBinAddr: 0x10001EBA8, symSize: 0x50 }
  - { offset: 0x5DD15, size: 0x8, addend: 0x0, symName: __ZNKSt3__129_AllocatorDestroyRangeReverseINS_9allocatorINS_6vectorINS_10shared_ptrI5ValueEENS1_IS5_EEEEEENS_16reverse_iteratorIPS7_EEEclB8ne180100Ev, symObjAddr: 0x1D92C, symBinAddr: 0x10001EBF8, symSize: 0xB4 }
  - { offset: 0x5DD3C, size: 0x8, addend: 0x0, symName: __ZNSt3__116reverse_iteratorINS0_IPNS_6vectorINS_10shared_ptrI5ValueEENS_9allocatorIS4_EEEEEEEC1B8ne180100ES9_, symObjAddr: 0x1DA50, symBinAddr: 0x10001ED1C, symSize: 0x3C }
  - { offset: 0x5DD74, size: 0x8, addend: 0x0, symName: __ZNSt3__116allocator_traitsINS_9allocatorINS_6vectorINS_10shared_ptrI5ValueEENS1_IS5_EEEEEEE7destroyB8ne180100IS7_vEEvRS8_PT_, symObjAddr: 0x1DAEC, symBinAddr: 0x10001EDB8, symSize: 0x2C }
  - { offset: 0x5DDB1, size: 0x8, addend: 0x0, symName: __ZNSt3__116reverse_iteratorINS0_IPNS_6vectorINS_10shared_ptrI5ValueEENS_9allocatorIS4_EEEEEEEppB8ne180100Ev, symObjAddr: 0x1DB3C, symBinAddr: 0x10001EE08, symSize: 0x30 }
  - { offset: 0x5DDD7, size: 0x8, addend: 0x0, symName: __ZNKSt3__116reverse_iteratorINS0_IPNS_6vectorINS_10shared_ptrI5ValueEENS_9allocatorIS4_EEEEEEE4baseB8ne180100Ev, symObjAddr: 0x1DB6C, symBinAddr: 0x10001EE38, symSize: 0x24 }
  - { offset: 0x5DDFD, size: 0x8, addend: 0x0, symName: __ZNSt3__19allocatorINS_6vectorINS_10shared_ptrI5ValueEENS0_IS4_EEEEE7destroyB8ne180100EPS6_, symObjAddr: 0x1DB90, symBinAddr: 0x10001EE5C, symSize: 0x28 }
  - { offset: 0x5DE37, size: 0x8, addend: 0x0, symName: __ZNSt3__119__to_address_helperINS_16reverse_iteratorINS1_IPNS_6vectorINS_10shared_ptrI5ValueEENS_9allocatorIS5_EEEEEEEEvE6__callB8ne180100ERKSB_, symObjAddr: 0x1DBB8, symBinAddr: 0x10001EE84, symSize: 0x38 }
  - { offset: 0x5DE5A, size: 0x8, addend: 0x0, symName: __ZNKSt3__116reverse_iteratorINS0_IPNS_6vectorINS_10shared_ptrI5ValueEENS_9allocatorIS4_EEEEEEEptB8ne180100Ev, symObjAddr: 0x1DBF0, symBinAddr: 0x10001EEBC, symSize: 0x24 }
  - { offset: 0x5DE80, size: 0x8, addend: 0x0, symName: __ZNKSt3__116reverse_iteratorINS0_IPNS_6vectorINS_10shared_ptrI5ValueEENS_9allocatorIS4_EEEEEEEdeB8ne180100Ev, symObjAddr: 0x1DC14, symBinAddr: 0x10001EEE0, symSize: 0x34 }
  - { offset: 0x5DEB4, size: 0x8, addend: 0x0, symName: __ZNSt3__116reverse_iteratorIPNS_6vectorINS_10shared_ptrI5ValueEENS_9allocatorIS4_EEEEEmmB8ne180100Ev, symObjAddr: 0x1DC48, symBinAddr: 0x10001EF14, symSize: 0x20 }
  - { offset: 0x5DEDA, size: 0x8, addend: 0x0, symName: __ZNSt3__116reverse_iteratorINS0_IPNS_6vectorINS_10shared_ptrI5ValueEENS_9allocatorIS4_EEEEEEEC2B8ne180100ES9_, symObjAddr: 0x1DC68, symBinAddr: 0x10001EF34, symSize: 0x2C }
  - { offset: 0x5DF12, size: 0x8, addend: 0x0, symName: __ZNSt3__116reverse_iteratorIPNS_6vectorINS_10shared_ptrI5ValueEENS_9allocatorIS4_EEEEEC2B8ne180100ES8_, symObjAddr: 0x1DC94, symBinAddr: 0x10001EF60, symSize: 0x28 }
  - { offset: 0x5DF4A, size: 0x8, addend: 0x0, symName: __ZNSt3__114__split_bufferINS_6vectorINS_10shared_ptrI5ValueEENS_9allocatorIS4_EEEERNS5_IS7_EEED2Ev, symObjAddr: 0x1DCBC, symBinAddr: 0x10001EF88, symSize: 0x8C }
  - { offset: 0x5DF76, size: 0x8, addend: 0x0, symName: __ZNSt3__114__split_bufferINS_6vectorINS_10shared_ptrI5ValueEENS_9allocatorIS4_EEEERNS5_IS7_EEE5clearB8ne180100Ev, symObjAddr: 0x1DD48, symBinAddr: 0x10001F014, symSize: 0x28 }
  - { offset: 0x5DF9C, size: 0x8, addend: 0x0, symName: __ZNSt3__116allocator_traitsINS_9allocatorINS_6vectorINS_10shared_ptrI5ValueEENS1_IS5_EEEEEEE10deallocateB8ne180100ERS8_PS7_m, symObjAddr: 0x1DD70, symBinAddr: 0x10001F03C, symSize: 0x34 }
  - { offset: 0x5DFDE, size: 0x8, addend: 0x0, symName: __ZNKSt3__114__split_bufferINS_6vectorINS_10shared_ptrI5ValueEENS_9allocatorIS4_EEEERNS5_IS7_EEE8capacityB8ne180100Ev, symObjAddr: 0x1DDA4, symBinAddr: 0x10001F070, symSize: 0x40 }
  - { offset: 0x5E004, size: 0x8, addend: 0x0, symName: __ZNSt3__114__split_bufferINS_6vectorINS_10shared_ptrI5ValueEENS_9allocatorIS4_EEEERNS5_IS7_EEE17__destruct_at_endB8ne180100EPS7_, symObjAddr: 0x1DDE4, symBinAddr: 0x10001F0B0, symSize: 0x2C }
  - { offset: 0x5E038, size: 0x8, addend: 0x0, symName: __ZNSt3__114__split_bufferINS_6vectorINS_10shared_ptrI5ValueEENS_9allocatorIS4_EEEERNS5_IS7_EEE17__destruct_at_endB8ne180100EPS7_NS_17integral_constantIbLb0EEE, symObjAddr: 0x1DE10, symBinAddr: 0x10001F0DC, symSize: 0x80 }
  - { offset: 0x5E078, size: 0x8, addend: 0x0, symName: __ZNSt3__19allocatorINS_6vectorINS_10shared_ptrI5ValueEENS0_IS4_EEEEE10deallocateB8ne180100EPS6_m, symObjAddr: 0x1DE90, symBinAddr: 0x10001F15C, symSize: 0x44 }
  - { offset: 0x5E0BA, size: 0x8, addend: 0x0, symName: __ZNKSt3__114__split_bufferINS_6vectorINS_10shared_ptrI5ValueEENS_9allocatorIS4_EEEERNS5_IS7_EEE9__end_capB8ne180100Ev, symObjAddr: 0x1DED4, symBinAddr: 0x10001F1A0, symSize: 0x28 }
  - { offset: 0x5E0E0, size: 0x8, addend: 0x0, symName: __ZNKSt3__117__compressed_pairIPNS_6vectorINS_10shared_ptrI5ValueEENS_9allocatorIS4_EEEERNS5_IS7_EEE5firstB8ne180100Ev, symObjAddr: 0x1DEFC, symBinAddr: 0x10001F1C8, symSize: 0x24 }
  - { offset: 0x5E106, size: 0x8, addend: 0x0, symName: __ZNSt3__16vectorINS0_INS_10shared_ptrI5ValueEENS_9allocatorIS3_EEEENS4_IS6_EEED2B8ne180100Ev, symObjAddr: 0x1DF20, symBinAddr: 0x10001F1EC, symSize: 0x44 }
  - { offset: 0x5E130, size: 0x8, addend: 0x0, symName: __ZNSt3__16vectorINS0_INS_10shared_ptrI5ValueEENS_9allocatorIS3_EEEENS4_IS6_EEE16__destroy_vectorC1B8ne180100ERS8_, symObjAddr: 0x1DF64, symBinAddr: 0x10001F230, symSize: 0x34 }
  - { offset: 0x5E169, size: 0x8, addend: 0x0, symName: __ZNSt3__16vectorINS0_INS_10shared_ptrI5ValueEENS_9allocatorIS3_EEEENS4_IS6_EEE16__destroy_vectorclB8ne180100Ev, symObjAddr: 0x1DF98, symBinAddr: 0x10001F264, symSize: 0x90 }
  - { offset: 0x5E18F, size: 0x8, addend: 0x0, symName: __ZNSt3__16vectorINS0_INS_10shared_ptrI5ValueEENS_9allocatorIS3_EEEENS4_IS6_EEE16__destroy_vectorC2B8ne180100ERS8_, symObjAddr: 0x1E028, symBinAddr: 0x10001F2F4, symSize: 0x20 }
  - { offset: 0x5E1C8, size: 0x8, addend: 0x0, symName: __ZNSt3__16vectorINS0_INS_10shared_ptrI5ValueEENS_9allocatorIS3_EEEENS4_IS6_EEE7__clearB8ne180100Ev, symObjAddr: 0x1E048, symBinAddr: 0x10001F314, symSize: 0x28 }
  - { offset: 0x5E1EE, size: 0x8, addend: 0x0, symName: __ZNSt3__16vectorINS0_INS_10shared_ptrI5ValueEENS_9allocatorIS3_EEEENS4_IS6_EEE22__base_destruct_at_endB8ne180100EPS6_, symObjAddr: 0x1E070, symBinAddr: 0x10001F33C, symSize: 0x8C }
  - { offset: 0x5E232, size: 0x8, addend: 0x0, symName: __ZNSt3__120__shared_ptr_emplaceI6LinearNS_9allocatorIS1_EEE8_StorageD2B8ne180100Ev, symObjAddr: 0x1E0FC, symBinAddr: 0x10001F3C8, symSize: 0x2C }
  - { offset: 0x5E25C, size: 0x8, addend: 0x0, symName: __ZNSt3__120__shared_ptr_emplaceI6LinearNS_9allocatorIS1_EEED2Ev, symObjAddr: 0x1E128, symBinAddr: 0x10001F3F4, symSize: 0x48 }
  - { offset: 0x5E288, size: 0x8, addend: 0x0, symName: __ZNSt3__120__shared_ptr_emplaceI6LinearNS_9allocatorIS1_EEE21__on_zero_shared_implB8ne180100IS3_Li0EEEvv, symObjAddr: 0x1E170, symBinAddr: 0x10001F43C, symSize: 0x44 }
  - { offset: 0x5E2D8, size: 0x8, addend: 0x0, symName: __ZNSt3__116allocator_traitsINS_9allocatorI6LinearEEE7destroyB8ne180100IS2_vEEvRS3_PT_, symObjAddr: 0x1E1B4, symBinAddr: 0x10001F480, symSize: 0x2C }
  - { offset: 0x5E315, size: 0x8, addend: 0x0, symName: __ZNSt3__19allocatorI6LinearE7destroyB8ne180100EPS1_, symObjAddr: 0x1E1E0, symBinAddr: 0x10001F4AC, symSize: 0x28 }
  - { offset: 0x5E349, size: 0x8, addend: 0x0, symName: __ZN6LinearD1Ev, symObjAddr: 0x1E208, symBinAddr: 0x10001F4D4, symSize: 0x2C }
  - { offset: 0x5E375, size: 0x8, addend: 0x0, symName: __ZN6LinearD2Ev, symObjAddr: 0x1E234, symBinAddr: 0x10001F500, symSize: 0x3C }
  - { offset: 0x5E3A1, size: 0x8, addend: 0x0, symName: __ZNSt3__116allocator_traitsINS_9allocatorINS_20__shared_ptr_emplaceI6LinearNS1_IS3_EEEEEEE10deallocateB8ne180100ERS6_PS5_m, symObjAddr: 0x1E270, symBinAddr: 0x10001F53C, symSize: 0x34 }
  - { offset: 0x5E3E3, size: 0x8, addend: 0x0, symName: __ZNSt3__114pointer_traitsIPNS_20__shared_ptr_emplaceI6LinearNS_9allocatorIS2_EEEEE10pointer_toB8ne180100ERS5_, symObjAddr: 0x1E2A4, symBinAddr: 0x10001F570, symSize: 0x14 }
  - { offset: 0x5E406, size: 0x8, addend: 0x0, symName: __ZNSt3__19allocatorINS_20__shared_ptr_emplaceI6LinearNS0_IS2_EEEEE10deallocateB8ne180100EPS4_m, symObjAddr: 0x1E2B8, symBinAddr: 0x10001F584, symSize: 0x44 }
  - { offset: 0x5E448, size: 0x8, addend: 0x0, symName: __ZNSt3__110shared_ptrI6LinearEC1B8ne180100Ev, symObjAddr: 0x1E2FC, symBinAddr: 0x10001F5C8, symSize: 0x2C }
  - { offset: 0x5E472, size: 0x8, addend: 0x0, symName: __ZNSt3__110shared_ptrI6LinearE18__enable_weak_thisB8ne180100Ez, symObjAddr: 0x1E328, symBinAddr: 0x10001F5F4, symSize: 0x10 }
  - { offset: 0x5E499, size: 0x8, addend: 0x0, symName: __ZNSt3__110shared_ptrI6LinearEC2B8ne180100Ev, symObjAddr: 0x1E338, symBinAddr: 0x10001F604, symSize: 0x1C }
  - { offset: 0x5E4C3, size: 0x8, addend: 0x0, symName: __ZNSt3__120__shared_ptr_emplaceI6LinearNS_9allocatorIS1_EEE8_Storage10__get_elemB8ne180100Ev, symObjAddr: 0x1E354, symBinAddr: 0x10001F620, symSize: 0x3C }
  - { offset: 0x5E516, size: 0x8, addend: 0x0, symName: __ZNSt3__117__compressed_pairINS_9allocatorI6LinearEES2_E17__get_second_baseB8ne180100EPS4_, symObjAddr: 0x1E390, symBinAddr: 0x10001F65C, symSize: 0x14 }
  - { offset: 0x5E539, size: 0x8, addend: 0x0, symName: __ZNSt3__118__allocation_guardINS_9allocatorINS_20__shared_ptr_emplaceI6LinearNS1_IS3_EEEEEEED2B8ne180100Ev, symObjAddr: 0x1E3A4, symBinAddr: 0x10001F670, symSize: 0x2C }
  - { offset: 0x5E563, size: 0x8, addend: 0x0, symName: __ZNSt3__118__allocation_guardINS_9allocatorINS_20__shared_ptr_emplaceI6LinearNS1_IS3_EEEEEEE9__destroyB8ne180100Ev, symObjAddr: 0x1E3D0, symBinAddr: 0x10001F69C, symSize: 0x4C }
  - { offset: 0x5E589, size: 0x8, addend: 0x0, symName: __ZNSt3__19allocatorI6LinearEC2B8ne180100Ev, symObjAddr: 0x1E41C, symBinAddr: 0x10001F6E8, symSize: 0x2C }
  - { offset: 0x5E5B3, size: 0x8, addend: 0x0, symName: __ZNSt3__116__non_trivial_ifILb1ENS_9allocatorI6LinearEEEC2B8ne180100Ev, symObjAddr: 0x1E448, symBinAddr: 0x10001F714, symSize: 0x14 }
  - { offset: 0x5E5DD, size: 0x8, addend: 0x0, symName: __ZNSt3__110shared_ptrI6LinearED2B8ne180100Ev, symObjAddr: 0x1E45C, symBinAddr: 0x10001F728, symSize: 0x54 }
  - { offset: 0x5E607, size: 0x8, addend: 0x0, symName: __ZNSt3__16vectorINS_10shared_ptrI6LinearEENS_9allocatorIS3_EEED2B8ne180100Ev, symObjAddr: 0x1E4B0, symBinAddr: 0x10001F77C, symSize: 0x44 }
  - { offset: 0x5E631, size: 0x8, addend: 0x0, symName: __ZNSt3__16vectorINS_10shared_ptrI6LinearEENS_9allocatorIS3_EEE16__destroy_vectorC1B8ne180100ERS6_, symObjAddr: 0x1E4F4, symBinAddr: 0x10001F7C0, symSize: 0x34 }
  - { offset: 0x5E66A, size: 0x8, addend: 0x0, symName: __ZNSt3__16vectorINS_10shared_ptrI6LinearEENS_9allocatorIS3_EEE16__destroy_vectorclB8ne180100Ev, symObjAddr: 0x1E528, symBinAddr: 0x10001F7F4, symSize: 0x90 }
  - { offset: 0x5E690, size: 0x8, addend: 0x0, symName: __ZNSt3__16vectorINS_10shared_ptrI6LinearEENS_9allocatorIS3_EEE16__destroy_vectorC2B8ne180100ERS6_, symObjAddr: 0x1E5B8, symBinAddr: 0x10001F884, symSize: 0x20 }
  - { offset: 0x5E6C9, size: 0x8, addend: 0x0, symName: __ZNSt3__16vectorINS_10shared_ptrI6LinearEENS_9allocatorIS3_EEE7__clearB8ne180100Ev, symObjAddr: 0x1E5D8, symBinAddr: 0x10001F8A4, symSize: 0x28 }
  - { offset: 0x5E6EF, size: 0x8, addend: 0x0, symName: __ZNSt3__16vectorINS_10shared_ptrI6LinearEENS_9allocatorIS3_EEE22__base_destruct_at_endB8ne180100EPS3_, symObjAddr: 0x1E600, symBinAddr: 0x10001F8CC, symSize: 0x8C }
  - { offset: 0x5E732, size: 0x8, addend: 0x0, symName: __Z16train_test_splitRKNSt3__16vectorINS_4pairINS0_INS_10shared_ptrI5ValueEENS_9allocatorIS4_EEEES7_EENS5_IS8_EEEEdRNS0_IS7_NS5_IS7_EEEESF_SF_SF_, symObjAddr: 0x1E68C, symBinAddr: 0x10001F958, symSize: 0x14C }
  - { offset: 0x5E857, size: 0x8, addend: 0x0, symName: __ZN3SGDC1Edd, symObjAddr: 0x1E7D8, symBinAddr: 0x10001FAA4, symSize: 0x3C }
  - { offset: 0x5E89D, size: 0x8, addend: 0x0, symName: __ZN3MLP7forwardERKNSt3__16vectorINS0_10shared_ptrI5ValueEENS0_9allocatorIS4_EEEEb, symObjAddr: 0x1E814, symBinAddr: 0x10001FAE0, symSize: 0x190 }
  - { offset: 0x5E901, size: 0x8, addend: 0x0, symName: __ZNSt3__16vectorINS0_INS_10shared_ptrI5ValueEENS_9allocatorIS3_EEEENS4_IS6_EEEixB8ne180100Em, symObjAddr: 0x1E9A4, symBinAddr: 0x10001FC70, symSize: 0x2C }
  - { offset: 0x5E95D, size: 0x8, addend: 0x0, symName: __ZN4Loss13cross_entropyERKNSt3__16vectorINS0_10shared_ptrI5ValueEENS0_9allocatorIS4_EEEES9_, symObjAddr: 0x1E9D0, symBinAddr: 0x10001FC9C, symSize: 0x2C0 }
  - { offset: 0x5E9EC, size: 0x8, addend: 0x0, symName: __ZNKSt3__110shared_ptrI5ValueEptB8ne180100Ev, symObjAddr: 0x1EC90, symBinAddr: 0x10001FF5C, symSize: 0x18 }
  - { offset: 0x5EA12, size: 0x8, addend: 0x0, symName: __ZN3SGD9zero_gradERKNSt3__16vectorINS0_10shared_ptrI5ValueEENS0_9allocatorIS4_EEEE, symObjAddr: 0x1ECA8, symBinAddr: 0x10001FF74, symSize: 0x84 }
  - { offset: 0x5EA97, size: 0x8, addend: 0x0, symName: __ZNK3MLP10parametersEv, symObjAddr: 0x1ED2C, symBinAddr: 0x10001FFF8, symSize: 0x184 }
  - { offset: 0x5EB2A, size: 0x8, addend: 0x0, symName: __ZN5Value8backwardEd, symObjAddr: 0x1EEB0, symBinAddr: 0x10002017C, symSize: 0xE0 }
  - { offset: 0x5EB88, size: 0x8, addend: 0x0, symName: __ZN3SGD4stepERKNSt3__16vectorINS0_10shared_ptrI5ValueEENS0_9allocatorIS4_EEEE, symObjAddr: 0x1EF90, symBinAddr: 0x10002025C, symSize: 0xD4 }
  - { offset: 0x5EC0D, size: 0x8, addend: 0x0, symName: __ZNSt3__16vectorINS_10shared_ptrI5ValueEENS_9allocatorIS3_EEEixB8ne180100Em, symObjAddr: 0x1F064, symBinAddr: 0x100020330, symSize: 0x24 }
  - { offset: 0x5EC44, size: 0x8, addend: 0x0, symName: __ZN3SGDC2Edd, symObjAddr: 0x1F088, symBinAddr: 0x100020354, symSize: 0x2C }
  - { offset: 0x5EC8A, size: 0x8, addend: 0x0, symName: __ZNSt3__16vectorINS_10shared_ptrI6LinearEENS_9allocatorIS3_EEEixB8ne180100Em, symObjAddr: 0x1F0B4, symBinAddr: 0x100020380, symSize: 0x24 }
  - { offset: 0x5ECC1, size: 0x8, addend: 0x0, symName: __ZNKSt3__110shared_ptrI6LinearEptB8ne180100Ev, symObjAddr: 0x1F0D8, symBinAddr: 0x1000203A4, symSize: 0x18 }
  - { offset: 0x5ECE7, size: 0x8, addend: 0x0, symName: __ZN6Linear7forwardERKNSt3__16vectorINS0_10shared_ptrI5ValueEENS0_9allocatorIS4_EEEE, symObjAddr: 0x1F0F0, symBinAddr: 0x1000203BC, symSize: 0x1D0 }
  - { offset: 0x5ED76, size: 0x8, addend: 0x0, symName: __ZNSt3__16vectorINS_10shared_ptrI5ValueEENS_9allocatorIS3_EEEaSB8ne180100EOS6_, symObjAddr: 0x1F2C0, symBinAddr: 0x10002058C, symSize: 0x34 }
  - { offset: 0x5EDAC, size: 0x8, addend: 0x0, symName: __Z7softmaxRKNSt3__16vectorINS_10shared_ptrI5ValueEENS_9allocatorIS3_EEEE, symObjAddr: 0x1F764, symBinAddr: 0x100020A30, symSize: 0x244 }
  - { offset: 0x5EEC2, size: 0x8, addend: 0x0, symName: __ZNSt3__110shared_ptrI5ValueEaSB8ne180100EOS2_, symObjAddr: 0x1FCA8, symBinAddr: 0x100020F74, symSize: 0x50 }
  - { offset: 0x5EEF7, size: 0x8, addend: 0x0, symName: __ZNSt3__16vectorINS_10shared_ptrI5ValueEENS_9allocatorIS3_EEE9push_backB8ne180100ERKS3_, symObjAddr: 0x1FCF8, symBinAddr: 0x100020FC4, symSize: 0x90 }
  - { offset: 0x5EF3D, size: 0x8, addend: 0x0, symName: __ZN5Value10add_parentERKNSt3__110shared_ptrIS_EE, symObjAddr: 0x1FDC8, symBinAddr: 0x100021094, symSize: 0x9C }
  - { offset: 0x5EF71, size: 0x8, addend: 0x0, symName: __ZNSt3__18functionIFvvEEaSIZplRKNS_10shared_ptrI5ValueEES8_EUlvE_vEERS2_OT_, symObjAddr: 0x1FE64, symBinAddr: 0x100021130, symSize: 0xC0 }
  - { offset: 0x5EFB8, size: 0x8, addend: 0x0, symName: __ZZplRKNSt3__110shared_ptrI5ValueEES4_ENUlvE_D1Ev, symObjAddr: 0x1FF24, symBinAddr: 0x1000211F0, symSize: 0x2C }
  - { offset: 0x5EFE4, size: 0x8, addend: 0x0, symName: __ZNSt3__120__shared_ptr_emplaceI5ValueNS_9allocatorIS1_EEEC1B8ne180100IJdES3_Li0EEES3_DpOT_, symObjAddr: 0x1FFE8, symBinAddr: 0x1000212B4, symSize: 0x34 }
  - { offset: 0x5F046, size: 0x8, addend: 0x0, symName: __ZNSt3__120__shared_ptr_emplaceI5ValueNS_9allocatorIS1_EEEC2B8ne180100IJdES3_Li0EEES3_DpOT_, symObjAddr: 0x2001C, symBinAddr: 0x1000212E8, symSize: 0xBC }
  - { offset: 0x5F0C9, size: 0x8, addend: 0x0, symName: __ZNSt3__116allocator_traitsINS_9allocatorI5ValueEEE9constructB8ne180100IS2_JdEvEEvRS3_PT_DpOT0_, symObjAddr: 0x200D8, symBinAddr: 0x1000213A4, symSize: 0x34 }
  - { offset: 0x5F120, size: 0x8, addend: 0x0, symName: __ZNSt3__19allocatorI5ValueE9constructB8ne180100IS1_JdEEEvPT_DpOT0_, symObjAddr: 0x2010C, symBinAddr: 0x1000213D8, symSize: 0x88 }
  - { offset: 0x5F176, size: 0x8, addend: 0x0, symName: __ZNSt3__16vectorINS_10shared_ptrI5ValueEENS_9allocatorIS3_EEE5beginB8ne180100Ev, symObjAddr: 0x20254, symBinAddr: 0x100021520, symSize: 0x30 }
  - { offset: 0x5F19E, size: 0x8, addend: 0x0, symName: __ZNSt3__16vectorINS_10shared_ptrI5ValueEENS_9allocatorIS3_EEE3endB8ne180100Ev, symObjAddr: 0x20284, symBinAddr: 0x100021550, symSize: 0x30 }
  - { offset: 0x5F1C6, size: 0x8, addend: 0x0, symName: __ZNKSt3__111__wrap_iterIPNS_10shared_ptrI5ValueEEE4baseB8ne180100Ev, symObjAddr: 0x202B4, symBinAddr: 0x100021580, symSize: 0x18 }
  - { offset: 0x5F1EC, size: 0x8, addend: 0x0, symName: __ZNSt3__118__unwrap_iter_implINS_11__wrap_iterIPNS_10shared_ptrI5ValueEEEELb1EE8__rewrapB8ne180100ES6_S5_, symObjAddr: 0x203C0, symBinAddr: 0x10002168C, symSize: 0x5C }
  - { offset: 0x5F21D, size: 0x8, addend: 0x0, symName: __ZNKSt3__111__wrap_iterIPNS_10shared_ptrI5ValueEEEplB8ne180100El, symObjAddr: 0x2041C, symBinAddr: 0x1000216E8, symSize: 0x3C }
  - { offset: 0x5F25F, size: 0x8, addend: 0x0, symName: __ZNSt3__111__wrap_iterIPNS_10shared_ptrI5ValueEEEpLB8ne180100El, symObjAddr: 0x2047C, symBinAddr: 0x100021748, symSize: 0x28 }
  - { offset: 0x5F29F, size: 0x8, addend: 0x0, symName: __ZNSt3__119__to_address_helperINS_11__wrap_iterIPNS_10shared_ptrI5ValueEEEEvE6__callB8ne180100ERKS6_, symObjAddr: 0x204A4, symBinAddr: 0x100021770, symSize: 0x30 }
  - { offset: 0x5F2C2, size: 0x8, addend: 0x0, symName: __ZNSt3__114pointer_traitsINS_11__wrap_iterIPNS_10shared_ptrI5ValueEEEEE10to_addressB8ne180100ES6_, symObjAddr: 0x204D4, symBinAddr: 0x1000217A0, symSize: 0x2C }
  - { offset: 0x5F2E5, size: 0x8, addend: 0x0, symName: __ZNKSt3__110shared_ptrI5ValueE3getB8ne180100Ev, symObjAddr: 0x20574, symBinAddr: 0x100021840, symSize: 0x18 }
  - { offset: 0x5F316, size: 0x8, addend: 0x0, symName: __ZNKSt3__110__identityclB8ne180100IRNS_10shared_ptrI5ValueEEEEOT_S7_, symObjAddr: 0x2058C, symBinAddr: 0x100021858, symSize: 0x18 }
  - { offset: 0x5F353, size: 0x8, addend: 0x0, symName: __ZNSt3__118__unwrap_iter_implINS_11__wrap_iterIPNS_10shared_ptrI5ValueEEEELb1EE8__unwrapB8ne180100ES6_, symObjAddr: 0x205A4, symBinAddr: 0x100021870, symSize: 0x28 }
  - { offset: 0x5F376, size: 0x8, addend: 0x0, symName: __ZNSt3__16vectorINS_10shared_ptrI5ValueEENS_9allocatorIS3_EEE11__make_iterB8ne180100EPS3_, symObjAddr: 0x205CC, symBinAddr: 0x100021898, symSize: 0x30 }
  - { offset: 0x5F3AB, size: 0x8, addend: 0x0, symName: __ZNSt3__111__wrap_iterIPNS_10shared_ptrI5ValueEEEC1B8ne180100ES4_, symObjAddr: 0x205FC, symBinAddr: 0x1000218C8, symSize: 0x34 }
  - { offset: 0x5F3E3, size: 0x8, addend: 0x0, symName: __ZNSt3__111__wrap_iterIPNS_10shared_ptrI5ValueEEEC2B8ne180100ES4_, symObjAddr: 0x20630, symBinAddr: 0x1000218FC, symSize: 0x20 }
  - { offset: 0x5F41B, size: 0x8, addend: 0x0, symName: __ZZplRKNSt3__110shared_ptrI5ValueEES4_ENUlvE_C1EOS5_, symObjAddr: 0x20650, symBinAddr: 0x10002191C, symSize: 0x34 }
  - { offset: 0x5F450, size: 0x8, addend: 0x0, symName: __ZNSt3__18functionIFvvEEC1IZplRKNS_10shared_ptrI5ValueEES8_EUlvE_vEET_, symObjAddr: 0x20684, symBinAddr: 0x100021950, symSize: 0x34 }
  - { offset: 0x5F496, size: 0x8, addend: 0x0, symName: __ZNSt3__18functionIFvvEE4swapERS2_, symObjAddr: 0x206B8, symBinAddr: 0x100021984, symSize: 0x2C }
  - { offset: 0x5F4CD, size: 0x8, addend: 0x0, symName: __ZZplRKNSt3__110shared_ptrI5ValueEES4_ENUlvE_C2EOS5_, symObjAddr: 0x206E4, symBinAddr: 0x1000219B0, symSize: 0x5C }
  - { offset: 0x5F502, size: 0x8, addend: 0x0, symName: __ZNSt3__18functionIFvvEEC2IZplRKNS_10shared_ptrI5ValueEES8_EUlvE_vEET_, symObjAddr: 0x20740, symBinAddr: 0x100021A0C, symSize: 0x34 }
  - { offset: 0x5F548, size: 0x8, addend: 0x0, symName: __ZNSt3__110__function12__value_funcIFvvEEC1B8ne180100IZplRKNS_10shared_ptrI5ValueEES9_EUlvE_Li0EEEOT_, symObjAddr: 0x20774, symBinAddr: 0x100021A40, symSize: 0x50 }
  - { offset: 0x5F590, size: 0x8, addend: 0x0, symName: __ZNSt3__19allocatorIZplRKNS_10shared_ptrI5ValueEES5_EUlvE_EC1B8ne180100Ev, symObjAddr: 0x207C4, symBinAddr: 0x100021A90, symSize: 0x2C }
  - { offset: 0x5F5BA, size: 0x8, addend: 0x0, symName: __ZNSt3__110__function12__value_funcIFvvEEC1B8ne180100IZplRKNS_10shared_ptrI5ValueEES9_EUlvE_NS_9allocatorISA_EEEEOT_RKT0_, symObjAddr: 0x207F0, symBinAddr: 0x100021ABC, symSize: 0x3C }
  - { offset: 0x5F614, size: 0x8, addend: 0x0, symName: __ZNSt3__19allocatorIZplRKNS_10shared_ptrI5ValueEES5_EUlvE_EC2B8ne180100Ev, symObjAddr: 0x2082C, symBinAddr: 0x100021AF8, symSize: 0x2C }
  - { offset: 0x5F63E, size: 0x8, addend: 0x0, symName: __ZNSt3__116__non_trivial_ifILb1ENS_9allocatorIZplRKNS_10shared_ptrI5ValueEES6_EUlvE_EEEC2B8ne180100Ev, symObjAddr: 0x20858, symBinAddr: 0x100021B24, symSize: 0x14 }
  - { offset: 0x5F668, size: 0x8, addend: 0x0, symName: __ZNSt3__110__function12__value_funcIFvvEEC2B8ne180100IZplRKNS_10shared_ptrI5ValueEES9_EUlvE_NS_9allocatorISA_EEEEOT_RKT0_, symObjAddr: 0x2086C, symBinAddr: 0x100021B38, symSize: 0xF4 }
  - { offset: 0x5F721, size: 0x8, addend: 0x0, symName: __ZNSt3__19allocatorINS_10__function6__funcIZplRKNS_10shared_ptrI5ValueEES7_EUlvE_NS0_IS8_EEFvvEEEEC1B8ne180100IS8_EERKNS0_IT_EE, symObjAddr: 0x20978, symBinAddr: 0x100021C44, symSize: 0x34 }
  - { offset: 0x5F75E, size: 0x8, addend: 0x0, symName: __ZNSt3__19allocatorINS_10__function6__funcIZplRKNS_10shared_ptrI5ValueEES7_EUlvE_NS0_IS8_EEFvvEEEE8allocateB8ne180100Em, symObjAddr: 0x209AC, symBinAddr: 0x100021C78, symSize: 0x5C }
  - { offset: 0x5F7A4, size: 0x8, addend: 0x0, symName: __ZNSt3__122__allocator_destructorINS_9allocatorINS_10__function6__funcIZplRKNS_10shared_ptrI5ValueEES8_EUlvE_NS1_IS9_EEFvvEEEEEEC1B8ne180100ERSD_m, symObjAddr: 0x20A08, symBinAddr: 0x100021CD4, symSize: 0x3C }
  - { offset: 0x5F88B, size: 0x8, addend: 0x0, symName: __ZNSt3__110unique_ptrINS_10__function6__baseIFvvEEENS_22__allocator_destructorINS_9allocatorINS1_6__funcIZplRKNS_10shared_ptrI5ValueEESC_EUlvE_NS6_ISD_EES3_EEEEEEEC1B8ne180100ILb1EvEEPSF_NS_16__dependent_typeINS_27__unique_ptr_deleter_sfinaeISH_EEXT_EE20__good_rval_ref_typeE, symObjAddr: 0x20A44, symBinAddr: 0x100021D10, symSize: 0x3C }
  - { offset: 0x5F8DC, size: 0x8, addend: 0x0, symName: __ZNKSt3__110unique_ptrINS_10__function6__baseIFvvEEENS_22__allocator_destructorINS_9allocatorINS1_6__funcIZplRKNS_10shared_ptrI5ValueEESC_EUlvE_NS6_ISD_EES3_EEEEEEE3getB8ne180100Ev, symObjAddr: 0x20A80, symBinAddr: 0x100021D4C, symSize: 0x28 }
  - { offset: 0x5F902, size: 0x8, addend: 0x0, symName: __ZNSt3__110__function6__funcIZplRKNS_10shared_ptrI5ValueEES6_EUlvE_NS_9allocatorIS7_EEFvvEEC1B8ne180100EOS7_OS9_, symObjAddr: 0x20AA8, symBinAddr: 0x100021D74, symSize: 0x3C }
  - { offset: 0x5F94A, size: 0x8, addend: 0x0, symName: __ZNSt3__110unique_ptrINS_10__function6__baseIFvvEEENS_22__allocator_destructorINS_9allocatorINS1_6__funcIZplRKNS_10shared_ptrI5ValueEESC_EUlvE_NS6_ISD_EES3_EEEEEEE7releaseB8ne180100Ev, symObjAddr: 0x20AE4, symBinAddr: 0x100021DB0, symSize: 0x44 }
  - { offset: 0x5F97F, size: 0x8, addend: 0x0, symName: __ZNSt3__110unique_ptrINS_10__function6__baseIFvvEEENS_22__allocator_destructorINS_9allocatorINS1_6__funcIZplRKNS_10shared_ptrI5ValueEESC_EUlvE_NS6_ISD_EES3_EEEEEEED1B8ne180100Ev, symObjAddr: 0x20B28, symBinAddr: 0x100021DF4, symSize: 0x2C }
  - { offset: 0x5F9A9, size: 0x8, addend: 0x0, symName: __ZNSt3__19allocatorINS_10__function6__funcIZplRKNS_10shared_ptrI5ValueEES7_EUlvE_NS0_IS8_EEFvvEEEEC2B8ne180100IS8_EERKNS0_IT_EE, symObjAddr: 0x20B54, symBinAddr: 0x100021E20, symSize: 0x30 }
  - { offset: 0x5F9E6, size: 0x8, addend: 0x0, symName: __ZNSt3__116__non_trivial_ifILb1ENS_9allocatorINS_10__function6__funcIZplRKNS_10shared_ptrI5ValueEES8_EUlvE_NS1_IS9_EEFvvEEEEEEC2B8ne180100Ev, symObjAddr: 0x20B84, symBinAddr: 0x100021E50, symSize: 0x14 }
  - { offset: 0x5FA1B, size: 0x8, addend: 0x0, symName: __ZNSt3__116allocator_traitsINS_9allocatorINS_10__function6__funcIZplRKNS_10shared_ptrI5ValueEES8_EUlvE_NS1_IS9_EEFvvEEEEEE8max_sizeB8ne180100ISD_vEEmRKSD_, symObjAddr: 0x20B98, symBinAddr: 0x100021E64, symSize: 0x24 }
  - { offset: 0x5FA49, size: 0x8, addend: 0x0, symName: __ZNKSt3__19allocatorINS_10__function6__funcIZplRKNS_10shared_ptrI5ValueEES7_EUlvE_NS0_IS8_EEFvvEEEE8max_sizeB8ne180100Ev, symObjAddr: 0x20BBC, symBinAddr: 0x100021E88, symSize: 0x20 }
  - { offset: 0x5FA6F, size: 0x8, addend: 0x0, symName: __ZNSt3__122__allocator_destructorINS_9allocatorINS_10__function6__funcIZplRKNS_10shared_ptrI5ValueEES8_EUlvE_NS1_IS9_EEFvvEEEEEEC2B8ne180100ERSD_m, symObjAddr: 0x20BDC, symBinAddr: 0x100021EA8, symSize: 0x2C }
  - { offset: 0x5FAB5, size: 0x8, addend: 0x0, symName: __ZNSt3__110unique_ptrINS_10__function6__baseIFvvEEENS_22__allocator_destructorINS_9allocatorINS1_6__funcIZplRKNS_10shared_ptrI5ValueEESC_EUlvE_NS6_ISD_EES3_EEEEEEEC2B8ne180100ILb1EvEEPSF_NS_16__dependent_typeINS_27__unique_ptr_deleter_sfinaeISH_EEXT_EE20__good_rval_ref_typeE, symObjAddr: 0x20C08, symBinAddr: 0x100021ED4, symSize: 0x48 }
  - { offset: 0x5FB06, size: 0x8, addend: 0x0, symName: __ZNSt3__117__compressed_pairIPNS_10__function6__funcIZplRKNS_10shared_ptrI5ValueEES7_EUlvE_NS_9allocatorIS8_EEFvvEEENS_22__allocator_destructorINS9_ISC_EEEEEC1B8ne180100IRSD_SG_EEOT_OT0_, symObjAddr: 0x20C50, symBinAddr: 0x100021F1C, symSize: 0x3C }
  - { offset: 0x5FB5E, size: 0x8, addend: 0x0, symName: __ZNSt3__117__compressed_pairIPNS_10__function6__funcIZplRKNS_10shared_ptrI5ValueEES7_EUlvE_NS_9allocatorIS8_EEFvvEEENS_22__allocator_destructorINS9_ISC_EEEEEC2B8ne180100IRSD_SG_EEOT_OT0_, symObjAddr: 0x20C8C, symBinAddr: 0x100021F58, symSize: 0x48 }
  - { offset: 0x5FBB6, size: 0x8, addend: 0x0, symName: __ZNSt3__122__compressed_pair_elemIPNS_10__function6__funcIZplRKNS_10shared_ptrI5ValueEES7_EUlvE_NS_9allocatorIS8_EEFvvEEELi0ELb0EEC2B8ne180100IRSD_vEEOT_, symObjAddr: 0x20CD4, symBinAddr: 0x100021FA0, symSize: 0x24 }
  - { offset: 0x5FBF8, size: 0x8, addend: 0x0, symName: __ZNSt3__122__compressed_pair_elemINS_22__allocator_destructorINS_9allocatorINS_10__function6__funcIZplRKNS_10shared_ptrI5ValueEES9_EUlvE_NS2_ISA_EEFvvEEEEEEELi1ELb0EEC2B8ne180100ISF_vEEOT_, symObjAddr: 0x20CF8, symBinAddr: 0x100021FC4, symSize: 0x24 }
  - { offset: 0x5FC3A, size: 0x8, addend: 0x0, symName: __ZNKSt3__117__compressed_pairIPNS_10__function6__funcIZplRKNS_10shared_ptrI5ValueEES7_EUlvE_NS_9allocatorIS8_EEFvvEEENS_22__allocator_destructorINS9_ISC_EEEEE5firstB8ne180100Ev, symObjAddr: 0x20D1C, symBinAddr: 0x100021FE8, symSize: 0x24 }
  - { offset: 0x5FC60, size: 0x8, addend: 0x0, symName: __ZNKSt3__122__compressed_pair_elemIPNS_10__function6__funcIZplRKNS_10shared_ptrI5ValueEES7_EUlvE_NS_9allocatorIS8_EEFvvEEELi0ELb0EE5__getB8ne180100Ev, symObjAddr: 0x20D40, symBinAddr: 0x10002200C, symSize: 0x14 }
  - { offset: 0x5FC86, size: 0x8, addend: 0x0, symName: __ZNSt3__110__function6__funcIZplRKNS_10shared_ptrI5ValueEES6_EUlvE_NS_9allocatorIS7_EEFvvEEC2B8ne180100EOS7_OS9_, symObjAddr: 0x20D54, symBinAddr: 0x100022020, symSize: 0x80 }
  - { offset: 0x5FCCE, size: 0x8, addend: 0x0, symName: __ZNSt3__110__function12__alloc_funcIZplRKNS_10shared_ptrI5ValueEES6_EUlvE_NS_9allocatorIS7_EEFvvEEC1B8ne180100EOS7_OS9_, symObjAddr: 0x20DD4, symBinAddr: 0x1000220A0, symSize: 0x3C }
  - { offset: 0x5FD14, size: 0x8, addend: 0x0, symName: __ZNSt3__110__function6__funcIZplRKNS_10shared_ptrI5ValueEES6_EUlvE_NS_9allocatorIS7_EEFvvEED1Ev, symObjAddr: 0x20E10, symBinAddr: 0x1000220DC, symSize: 0x2C }
  - { offset: 0x5FD40, size: 0x8, addend: 0x0, symName: __ZNSt3__110__function6__funcIZplRKNS_10shared_ptrI5ValueEES6_EUlvE_NS_9allocatorIS7_EEFvvEED0Ev, symObjAddr: 0x20E3C, symBinAddr: 0x100022108, symSize: 0x30 }
  - { offset: 0x5FD6C, size: 0x8, addend: 0x0, symName: __ZNKSt3__110__function6__funcIZplRKNS_10shared_ptrI5ValueEES6_EUlvE_NS_9allocatorIS7_EEFvvEE7__cloneEv, symObjAddr: 0x20E6C, symBinAddr: 0x100022138, symSize: 0xFC }
  - { offset: 0x5FDBE, size: 0x8, addend: 0x0, symName: __ZNKSt3__110__function6__funcIZplRKNS_10shared_ptrI5ValueEES6_EUlvE_NS_9allocatorIS7_EEFvvEE7__cloneEPNS0_6__baseISA_EE, symObjAddr: 0x20F68, symBinAddr: 0x100022234, symSize: 0x58 }
  - { offset: 0x5FDF5, size: 0x8, addend: 0x0, symName: __ZNSt3__110__function6__funcIZplRKNS_10shared_ptrI5ValueEES6_EUlvE_NS_9allocatorIS7_EEFvvEE7destroyEv, symObjAddr: 0x20FC0, symBinAddr: 0x10002228C, symSize: 0x28 }
  - { offset: 0x5FE1D, size: 0x8, addend: 0x0, symName: __ZNSt3__110__function6__funcIZplRKNS_10shared_ptrI5ValueEES6_EUlvE_NS_9allocatorIS7_EEFvvEE18destroy_deallocateEv, symObjAddr: 0x20FE8, symBinAddr: 0x1000222B4, symSize: 0x58 }
  - { offset: 0x5FE60, size: 0x8, addend: 0x0, symName: __ZNSt3__110__function6__funcIZplRKNS_10shared_ptrI5ValueEES6_EUlvE_NS_9allocatorIS7_EEFvvEEclEv, symObjAddr: 0x21040, symBinAddr: 0x10002230C, symSize: 0x28 }
  - { offset: 0x5FE88, size: 0x8, addend: 0x0, symName: __ZNKSt3__110__function6__funcIZplRKNS_10shared_ptrI5ValueEES6_EUlvE_NS_9allocatorIS7_EEFvvEE6targetERKSt9type_info, symObjAddr: 0x21068, symBinAddr: 0x100022334, symSize: 0x60 }
  - { offset: 0x5FEBF, size: 0x8, addend: 0x0, symName: __ZNKSt3__110__function6__funcIZplRKNS_10shared_ptrI5ValueEES6_EUlvE_NS_9allocatorIS7_EEFvvEE11target_typeEv, symObjAddr: 0x210C8, symBinAddr: 0x100022394, symSize: 0x18 }
  - { offset: 0x5FEE7, size: 0x8, addend: 0x0, symName: __ZNSt3__110__function12__alloc_funcIZplRKNS_10shared_ptrI5ValueEES6_EUlvE_NS_9allocatorIS7_EEFvvEEC2B8ne180100EOS7_OS9_, symObjAddr: 0x210E0, symBinAddr: 0x1000223AC, symSize: 0x5C }
  - { offset: 0x5FF2D, size: 0x8, addend: 0x0, symName: __ZNSt3__117__compressed_pairIZplRKNS_10shared_ptrI5ValueEES5_EUlvE_NS_9allocatorIS6_EEEC1B8ne180100IJOS6_EJOS8_EEENS_21piecewise_construct_tENS_5tupleIJDpT_EEENSE_IJDpT0_EEE, symObjAddr: 0x21194, symBinAddr: 0x100022460, symSize: 0x3C }
  - { offset: 0x5FF97, size: 0x8, addend: 0x0, symName: __ZNSt3__15tupleIJOZplRKNS_10shared_ptrI5ValueEES5_EUlvE_EEC1B8ne180100IJS6_ELi0EEEDpOT_, symObjAddr: 0x211D0, symBinAddr: 0x10002249C, symSize: 0x34 }
  - { offset: 0x5FFE1, size: 0x8, addend: 0x0, symName: __ZNSt3__15tupleIJOZplRKNS_10shared_ptrI5ValueEES5_EUlvE_EEC2B8ne180100IJS6_ELi0EEEDpOT_, symObjAddr: 0x21204, symBinAddr: 0x1000224D0, symSize: 0x34 }
  - { offset: 0x6002B, size: 0x8, addend: 0x0, symName: __ZNSt3__112__tuple_implINS_15__tuple_indicesIJLm0EEEEJOZplRKNS_10shared_ptrI5ValueEES7_EUlvE_EEC1B8ne180100IJLm0EEJS9_EJEJEJS8_EEENS1_IJXspT_EEEENS_13__tuple_typesIJDpT0_EEENS1_IJXspT1_EEEENSD_IJDpT2_EEEDpOT3_, symObjAddr: 0x21238, symBinAddr: 0x100022504, symSize: 0x34 }
  - { offset: 0x600C0, size: 0x8, addend: 0x0, symName: __ZNSt3__112__tuple_implINS_15__tuple_indicesIJLm0EEEEJOZplRKNS_10shared_ptrI5ValueEES7_EUlvE_EEC2B8ne180100IJLm0EEJS9_EJEJEJS8_EEENS1_IJXspT_EEEENS_13__tuple_typesIJDpT0_EEENS1_IJXspT1_EEEENSD_IJDpT2_EEEDpOT3_, symObjAddr: 0x2126C, symBinAddr: 0x100022538, symSize: 0x34 }
  - { offset: 0x60155, size: 0x8, addend: 0x0, symName: __ZNSt3__112__tuple_leafILm0EOZplRKNS_10shared_ptrI5ValueEES5_EUlvE_Lb0EEC2B8ne180100IS6_vEEOT_, symObjAddr: 0x212A0, symBinAddr: 0x10002256C, symSize: 0x20 }
  - { offset: 0x60198, size: 0x8, addend: 0x0, symName: __ZNSt3__15tupleIJONS_9allocatorIZplRKNS_10shared_ptrI5ValueEES6_EUlvE_EEEEC1B8ne180100IJS8_ELi0EEEDpOT_, symObjAddr: 0x212C0, symBinAddr: 0x10002258C, symSize: 0x34 }
  - { offset: 0x601E2, size: 0x8, addend: 0x0, symName: __ZNSt3__15tupleIJONS_9allocatorIZplRKNS_10shared_ptrI5ValueEES6_EUlvE_EEEEC2B8ne180100IJS8_ELi0EEEDpOT_, symObjAddr: 0x212F4, symBinAddr: 0x1000225C0, symSize: 0x34 }
  - { offset: 0x6022C, size: 0x8, addend: 0x0, symName: __ZNSt3__112__tuple_implINS_15__tuple_indicesIJLm0EEEEJONS_9allocatorIZplRKNS_10shared_ptrI5ValueEES8_EUlvE_EEEEC1B8ne180100IJLm0EEJSB_EJEJEJSA_EEENS1_IJXspT_EEEENS_13__tuple_typesIJDpT0_EEENS1_IJXspT1_EEEENSF_IJDpT2_EEEDpOT3_, symObjAddr: 0x21328, symBinAddr: 0x1000225F4, symSize: 0x34 }
  - { offset: 0x602C1, size: 0x8, addend: 0x0, symName: __ZNSt3__112__tuple_implINS_15__tuple_indicesIJLm0EEEEJONS_9allocatorIZplRKNS_10shared_ptrI5ValueEES8_EUlvE_EEEEC2B8ne180100IJLm0EEJSB_EJEJEJSA_EEENS1_IJXspT_EEEENS_13__tuple_typesIJDpT0_EEENS1_IJXspT1_EEEENSF_IJDpT2_EEEDpOT3_, symObjAddr: 0x2135C, symBinAddr: 0x100022628, symSize: 0x34 }
  - { offset: 0x60356, size: 0x8, addend: 0x0, symName: __ZNSt3__112__tuple_leafILm0EONS_9allocatorIZplRKNS_10shared_ptrI5ValueEES6_EUlvE_EELb0EEC2B8ne180100IS8_vEEOT_, symObjAddr: 0x21390, symBinAddr: 0x10002265C, symSize: 0x20 }
  - { offset: 0x60399, size: 0x8, addend: 0x0, symName: __ZNSt3__117__compressed_pairIZplRKNS_10shared_ptrI5ValueEES5_EUlvE_NS_9allocatorIS6_EEEC2B8ne180100IJOS6_EJOS8_EEENS_21piecewise_construct_tENS_5tupleIJDpT_EEENSE_IJDpT0_EEE, symObjAddr: 0x213B0, symBinAddr: 0x10002267C, symSize: 0x7C }
  - { offset: 0x60403, size: 0x8, addend: 0x0, symName: __ZNSt3__122__compressed_pair_elemIZplRKNS_10shared_ptrI5ValueEES5_EUlvE_Li0ELb0EEC2B8ne180100IJOS6_EJLm0EEEENS_21piecewise_construct_tENS_5tupleIJDpT_EEENS_15__tuple_indicesIJXspT0_EEEE, symObjAddr: 0x2142C, symBinAddr: 0x1000226F8, symSize: 0x44 }
  - { offset: 0x60466, size: 0x8, addend: 0x0, symName: __ZNSt3__122__compressed_pair_elemINS_9allocatorIZplRKNS_10shared_ptrI5ValueEES6_EUlvE_EELi1ELb1EEC2B8ne180100IJOS8_EJLm0EEEENS_21piecewise_construct_tENS_5tupleIJDpT_EEENS_15__tuple_indicesIJXspT0_EEEE, symObjAddr: 0x21470, symBinAddr: 0x10002273C, symSize: 0x38 }
  - { offset: 0x604C9, size: 0x8, addend: 0x0, symName: __ZNSt3__122__compressed_pair_elemIZplRKNS_10shared_ptrI5ValueEES5_EUlvE_Li0ELb0EED2Ev, symObjAddr: 0x214A8, symBinAddr: 0x100022774, symSize: 0x2C }
  - { offset: 0x604F5, size: 0x8, addend: 0x0, symName: __ZNSt3__112__tuple_leafILm0EOZplRKNS_10shared_ptrI5ValueEES5_EUlvE_Lb0EE3getB8ne180100Ev, symObjAddr: 0x214F8, symBinAddr: 0x1000227C4, symSize: 0x18 }
  - { offset: 0x6051B, size: 0x8, addend: 0x0, symName: __ZNSt3__112__tuple_leafILm0EONS_9allocatorIZplRKNS_10shared_ptrI5ValueEES6_EUlvE_EELb0EE3getB8ne180100Ev, symObjAddr: 0x21534, symBinAddr: 0x100022800, symSize: 0x18 }
  - { offset: 0x60541, size: 0x8, addend: 0x0, symName: __ZNSt3__110__function6__funcIZplRKNS_10shared_ptrI5ValueEES6_EUlvE_NS_9allocatorIS7_EEFvvEED2Ev, symObjAddr: 0x2154C, symBinAddr: 0x100022818, symSize: 0x48 }
  - { offset: 0x6056D, size: 0x8, addend: 0x0, symName: __ZNSt3__110__function12__alloc_funcIZplRKNS_10shared_ptrI5ValueEES6_EUlvE_NS_9allocatorIS7_EEFvvEED1Ev, symObjAddr: 0x21594, symBinAddr: 0x100022860, symSize: 0x2C }
  - { offset: 0x60599, size: 0x8, addend: 0x0, symName: __ZNSt3__110__function12__alloc_funcIZplRKNS_10shared_ptrI5ValueEES6_EUlvE_NS_9allocatorIS7_EEFvvEED2Ev, symObjAddr: 0x215C0, symBinAddr: 0x10002288C, symSize: 0x2C }
  - { offset: 0x605C5, size: 0x8, addend: 0x0, symName: __ZNSt3__117__compressed_pairIZplRKNS_10shared_ptrI5ValueEES5_EUlvE_NS_9allocatorIS6_EEED1Ev, symObjAddr: 0x215EC, symBinAddr: 0x1000228B8, symSize: 0x2C }
  - { offset: 0x605F1, size: 0x8, addend: 0x0, symName: __ZNSt3__117__compressed_pairIZplRKNS_10shared_ptrI5ValueEES5_EUlvE_NS_9allocatorIS6_EEED2Ev, symObjAddr: 0x21618, symBinAddr: 0x1000228E4, symSize: 0x2C }
  - { offset: 0x6061D, size: 0x8, addend: 0x0, symName: __ZNKSt3__110__function12__alloc_funcIZplRKNS_10shared_ptrI5ValueEES6_EUlvE_NS_9allocatorIS7_EEFvvEE15__get_allocatorB8ne180100Ev, symObjAddr: 0x21644, symBinAddr: 0x100022910, symSize: 0x24 }
  - { offset: 0x60671, size: 0x8, addend: 0x0, symName: __ZNSt3__110unique_ptrINS_10__function6__funcIZplRKNS_10shared_ptrI5ValueEES7_EUlvE_NS_9allocatorIS8_EEFvvEEENS_22__allocator_destructorINS9_ISC_EEEEEC1B8ne180100ILb1EvEEPSC_NS_16__dependent_typeINS_27__unique_ptr_deleter_sfinaeISF_EEXT_EE20__good_rval_ref_typeE, symObjAddr: 0x21668, symBinAddr: 0x100022934, symSize: 0x3C }
  - { offset: 0x606C2, size: 0x8, addend: 0x0, symName: __ZNKSt3__110unique_ptrINS_10__function6__funcIZplRKNS_10shared_ptrI5ValueEES7_EUlvE_NS_9allocatorIS8_EEFvvEEENS_22__allocator_destructorINS9_ISC_EEEEE3getB8ne180100Ev, symObjAddr: 0x216A4, symBinAddr: 0x100022970, symSize: 0x28 }
  - { offset: 0x606E8, size: 0x8, addend: 0x0, symName: __ZNKSt3__110__function12__alloc_funcIZplRKNS_10shared_ptrI5ValueEES6_EUlvE_NS_9allocatorIS7_EEFvvEE8__targetB8ne180100Ev, symObjAddr: 0x216CC, symBinAddr: 0x100022998, symSize: 0x24 }
  - { offset: 0x60714, size: 0x8, addend: 0x0, symName: __ZNSt3__19allocatorIZplRKNS_10shared_ptrI5ValueEES5_EUlvE_EC1B8ne180100INS_10__function6__funcIS6_S7_FvvEEEEERKNS0_IT_EE, symObjAddr: 0x216F0, symBinAddr: 0x1000229BC, symSize: 0x34 }
  - { offset: 0x60751, size: 0x8, addend: 0x0, symName: __ZNSt3__110__function6__funcIZplRKNS_10shared_ptrI5ValueEES6_EUlvE_NS_9allocatorIS7_EEFvvEEC1B8ne180100ERKS7_OS9_, symObjAddr: 0x21724, symBinAddr: 0x1000229F0, symSize: 0x3C }
  - { offset: 0x60799, size: 0x8, addend: 0x0, symName: __ZNSt3__110unique_ptrINS_10__function6__funcIZplRKNS_10shared_ptrI5ValueEES7_EUlvE_NS_9allocatorIS8_EEFvvEEENS_22__allocator_destructorINS9_ISC_EEEEE7releaseB8ne180100Ev, symObjAddr: 0x21760, symBinAddr: 0x100022A2C, symSize: 0x44 }
  - { offset: 0x607CE, size: 0x8, addend: 0x0, symName: __ZNSt3__110unique_ptrINS_10__function6__funcIZplRKNS_10shared_ptrI5ValueEES7_EUlvE_NS_9allocatorIS8_EEFvvEEENS_22__allocator_destructorINS9_ISC_EEEEED1B8ne180100Ev, symObjAddr: 0x217A4, symBinAddr: 0x100022A70, symSize: 0x2C }
  - { offset: 0x607F8, size: 0x8, addend: 0x0, symName: __ZNKSt3__117__compressed_pairIZplRKNS_10shared_ptrI5ValueEES5_EUlvE_NS_9allocatorIS6_EEE6secondB8ne180100Ev, symObjAddr: 0x217D0, symBinAddr: 0x100022A9C, symSize: 0x24 }
  - { offset: 0x6081E, size: 0x8, addend: 0x0, symName: __ZNKSt3__122__compressed_pair_elemINS_9allocatorIZplRKNS_10shared_ptrI5ValueEES6_EUlvE_EELi1ELb1EE5__getB8ne180100Ev, symObjAddr: 0x217F4, symBinAddr: 0x100022AC0, symSize: 0x14 }
  - { offset: 0x60844, size: 0x8, addend: 0x0, symName: __ZNSt3__110unique_ptrINS_10__function6__funcIZplRKNS_10shared_ptrI5ValueEES7_EUlvE_NS_9allocatorIS8_EEFvvEEENS_22__allocator_destructorINS9_ISC_EEEEEC2B8ne180100ILb1EvEEPSC_NS_16__dependent_typeINS_27__unique_ptr_deleter_sfinaeISF_EEXT_EE20__good_rval_ref_typeE, symObjAddr: 0x21808, symBinAddr: 0x100022AD4, symSize: 0x48 }
  - { offset: 0x60895, size: 0x8, addend: 0x0, symName: __ZNKSt3__117__compressed_pairIZplRKNS_10shared_ptrI5ValueEES5_EUlvE_NS_9allocatorIS6_EEE5firstB8ne180100Ev, symObjAddr: 0x21850, symBinAddr: 0x100022B1C, symSize: 0x24 }
  - { offset: 0x608BB, size: 0x8, addend: 0x0, symName: __ZNKSt3__122__compressed_pair_elemIZplRKNS_10shared_ptrI5ValueEES5_EUlvE_Li0ELb0EE5__getB8ne180100Ev, symObjAddr: 0x21874, symBinAddr: 0x100022B40, symSize: 0x14 }
  - { offset: 0x608E1, size: 0x8, addend: 0x0, symName: __ZNSt3__19allocatorIZplRKNS_10shared_ptrI5ValueEES5_EUlvE_EC2B8ne180100INS_10__function6__funcIS6_S7_FvvEEEEERKNS0_IT_EE, symObjAddr: 0x21888, symBinAddr: 0x100022B54, symSize: 0x30 }
  - { offset: 0x6091E, size: 0x8, addend: 0x0, symName: __ZNSt3__110__function6__funcIZplRKNS_10shared_ptrI5ValueEES6_EUlvE_NS_9allocatorIS7_EEFvvEEC2B8ne180100ERKS7_OS9_, symObjAddr: 0x218B8, symBinAddr: 0x100022B84, symSize: 0x80 }
  - { offset: 0x60966, size: 0x8, addend: 0x0, symName: __ZNSt3__110__function12__alloc_funcIZplRKNS_10shared_ptrI5ValueEES6_EUlvE_NS_9allocatorIS7_EEFvvEEC1B8ne180100ERKS7_OS9_, symObjAddr: 0x21938, symBinAddr: 0x100022C04, symSize: 0x3C }
  - { offset: 0x609AC, size: 0x8, addend: 0x0, symName: __ZNSt3__110__function12__alloc_funcIZplRKNS_10shared_ptrI5ValueEES6_EUlvE_NS_9allocatorIS7_EEFvvEEC2B8ne180100ERKS7_OS9_, symObjAddr: 0x21974, symBinAddr: 0x100022C40, symSize: 0x5C }
  - { offset: 0x609F2, size: 0x8, addend: 0x0, symName: __ZNSt3__117__compressed_pairIZplRKNS_10shared_ptrI5ValueEES5_EUlvE_NS_9allocatorIS6_EEEC1B8ne180100IJRKS6_EJOS8_EEENS_21piecewise_construct_tENS_5tupleIJDpT_EEENSF_IJDpT0_EEE, symObjAddr: 0x219FC, symBinAddr: 0x100022CC8, symSize: 0x3C }
  - { offset: 0x60A5C, size: 0x8, addend: 0x0, symName: __ZNSt3__15tupleIJRKZplRKNS_10shared_ptrI5ValueEES5_EUlvE_EEC1B8ne180100INS_4_AndELi0EEES8_, symObjAddr: 0x21A38, symBinAddr: 0x100022D04, symSize: 0x34 }
  - { offset: 0x60AA4, size: 0x8, addend: 0x0, symName: __ZNSt3__15tupleIJRKZplRKNS_10shared_ptrI5ValueEES5_EUlvE_EEC2B8ne180100INS_4_AndELi0EEES8_, symObjAddr: 0x21A6C, symBinAddr: 0x100022D38, symSize: 0x34 }
  - { offset: 0x60AEC, size: 0x8, addend: 0x0, symName: __ZNSt3__112__tuple_implINS_15__tuple_indicesIJLm0EEEEJRKZplRKNS_10shared_ptrI5ValueEES7_EUlvE_EEC1B8ne180100IJLm0EEJSA_EJEJEJSA_EEENS1_IJXspT_EEEENS_13__tuple_typesIJDpT0_EEENS1_IJXspT1_EEEENSE_IJDpT2_EEEDpOT3_, symObjAddr: 0x21AA0, symBinAddr: 0x100022D6C, symSize: 0x34 }
  - { offset: 0x60B81, size: 0x8, addend: 0x0, symName: __ZNSt3__112__tuple_implINS_15__tuple_indicesIJLm0EEEEJRKZplRKNS_10shared_ptrI5ValueEES7_EUlvE_EEC2B8ne180100IJLm0EEJSA_EJEJEJSA_EEENS1_IJXspT_EEEENS_13__tuple_typesIJDpT0_EEENS1_IJXspT1_EEEENSE_IJDpT2_EEEDpOT3_, symObjAddr: 0x21AD4, symBinAddr: 0x100022DA0, symSize: 0x34 }
  - { offset: 0x60C16, size: 0x8, addend: 0x0, symName: __ZNSt3__112__tuple_leafILm0ERKZplRKNS_10shared_ptrI5ValueEES5_EUlvE_Lb0EEC2B8ne180100IS8_vEEOT_, symObjAddr: 0x21B08, symBinAddr: 0x100022DD4, symSize: 0x20 }
  - { offset: 0x60C59, size: 0x8, addend: 0x0, symName: __ZNSt3__117__compressed_pairIZplRKNS_10shared_ptrI5ValueEES5_EUlvE_NS_9allocatorIS6_EEEC2B8ne180100IJRKS6_EJOS8_EEENS_21piecewise_construct_tENS_5tupleIJDpT_EEENSF_IJDpT0_EEE, symObjAddr: 0x21B28, symBinAddr: 0x100022DF4, symSize: 0x54 }
  - { offset: 0x60CC3, size: 0x8, addend: 0x0, symName: __ZNSt3__122__compressed_pair_elemIZplRKNS_10shared_ptrI5ValueEES5_EUlvE_Li0ELb0EEC2B8ne180100IJRKS6_EJLm0EEEENS_21piecewise_construct_tENS_5tupleIJDpT_EEENS_15__tuple_indicesIJXspT0_EEEE, symObjAddr: 0x21B7C, symBinAddr: 0x100022E48, symSize: 0x44 }
  - { offset: 0x60D26, size: 0x8, addend: 0x0, symName: __ZZplRKNSt3__110shared_ptrI5ValueEES4_ENUlvE_C1ERKS5_, symObjAddr: 0x21BE4, symBinAddr: 0x100022EB0, symSize: 0x34 }
  - { offset: 0x60D5B, size: 0x8, addend: 0x0, symName: __ZNSt3__112__tuple_leafILm0ERKZplRKNS_10shared_ptrI5ValueEES5_EUlvE_Lb0EE3getB8ne180100Ev, symObjAddr: 0x21C18, symBinAddr: 0x100022EE4, symSize: 0x18 }
  - { offset: 0x60D81, size: 0x8, addend: 0x0, symName: __ZZplRKNSt3__110shared_ptrI5ValueEES4_ENUlvE_C2ERKS5_, symObjAddr: 0x21C30, symBinAddr: 0x100022EFC, symSize: 0x5C }
  - { offset: 0x60DB6, size: 0x8, addend: 0x0, symName: __ZNSt3__117__compressed_pairIPNS_10__function6__funcIZplRKNS_10shared_ptrI5ValueEES7_EUlvE_NS_9allocatorIS8_EEFvvEEENS_22__allocator_destructorINS9_ISC_EEEEE5firstB8ne180100Ev, symObjAddr: 0x21C8C, symBinAddr: 0x100022F58, symSize: 0x24 }
  - { offset: 0x60DDC, size: 0x8, addend: 0x0, symName: __ZNSt3__122__compressed_pair_elemIPNS_10__function6__funcIZplRKNS_10shared_ptrI5ValueEES7_EUlvE_NS_9allocatorIS8_EEFvvEEELi0ELb0EE5__getB8ne180100Ev, symObjAddr: 0x21CB0, symBinAddr: 0x100022F7C, symSize: 0x14 }
  - { offset: 0x60E02, size: 0x8, addend: 0x0, symName: __ZNSt3__110unique_ptrINS_10__function6__funcIZplRKNS_10shared_ptrI5ValueEES7_EUlvE_NS_9allocatorIS8_EEFvvEEENS_22__allocator_destructorINS9_ISC_EEEEED2B8ne180100Ev, symObjAddr: 0x21CC4, symBinAddr: 0x100022F90, symSize: 0x30 }
  - { offset: 0x60E2C, size: 0x8, addend: 0x0, symName: __ZNSt3__110unique_ptrINS_10__function6__funcIZplRKNS_10shared_ptrI5ValueEES7_EUlvE_NS_9allocatorIS8_EEFvvEEENS_22__allocator_destructorINS9_ISC_EEEEE5resetB8ne180100EPSC_, symObjAddr: 0x21CF4, symBinAddr: 0x100022FC0, symSize: 0x78 }
  - { offset: 0x60E70, size: 0x8, addend: 0x0, symName: __ZNSt3__117__compressed_pairIPNS_10__function6__funcIZplRKNS_10shared_ptrI5ValueEES7_EUlvE_NS_9allocatorIS8_EEFvvEEENS_22__allocator_destructorINS9_ISC_EEEEE6secondB8ne180100Ev, symObjAddr: 0x21D6C, symBinAddr: 0x100023038, symSize: 0x28 }
  - { offset: 0x60E96, size: 0x8, addend: 0x0, symName: __ZNSt3__122__allocator_destructorINS_9allocatorINS_10__function6__funcIZplRKNS_10shared_ptrI5ValueEES8_EUlvE_NS1_IS9_EEFvvEEEEEEclB8ne180100EPSC_, symObjAddr: 0x21D94, symBinAddr: 0x100023060, symSize: 0x34 }
  - { offset: 0x60ECA, size: 0x8, addend: 0x0, symName: __ZNSt3__122__compressed_pair_elemINS_22__allocator_destructorINS_9allocatorINS_10__function6__funcIZplRKNS_10shared_ptrI5ValueEES9_EUlvE_NS2_ISA_EEFvvEEEEEEELi1ELb0EE5__getB8ne180100Ev, symObjAddr: 0x21DC8, symBinAddr: 0x100023094, symSize: 0x14 }
  - { offset: 0x60EF0, size: 0x8, addend: 0x0, symName: __ZNSt3__116allocator_traitsINS_9allocatorINS_10__function6__funcIZplRKNS_10shared_ptrI5ValueEES8_EUlvE_NS1_IS9_EEFvvEEEEEE10deallocateB8ne180100ERSD_PSC_m, symObjAddr: 0x21DDC, symBinAddr: 0x1000230A8, symSize: 0x34 }
  - { offset: 0x60F32, size: 0x8, addend: 0x0, symName: __ZNSt3__19allocatorINS_10__function6__funcIZplRKNS_10shared_ptrI5ValueEES7_EUlvE_NS0_IS8_EEFvvEEEE10deallocateB8ne180100EPSB_m, symObjAddr: 0x21E10, symBinAddr: 0x1000230DC, symSize: 0x44 }
  - { offset: 0x60F74, size: 0x8, addend: 0x0, symName: __ZNSt3__110__function6__funcIZplRKNS_10shared_ptrI5ValueEES6_EUlvE_NS_9allocatorIS7_EEFvvEEC1B8ne180100ERKS7_RKS9_, symObjAddr: 0x21E54, symBinAddr: 0x100023120, symSize: 0x3C }
  - { offset: 0x60FBC, size: 0x8, addend: 0x0, symName: __ZNSt3__110__function6__funcIZplRKNS_10shared_ptrI5ValueEES6_EUlvE_NS_9allocatorIS7_EEFvvEEC2B8ne180100ERKS7_RKS9_, symObjAddr: 0x21E90, symBinAddr: 0x10002315C, symSize: 0x80 }
  - { offset: 0x61004, size: 0x8, addend: 0x0, symName: __ZNSt3__110__function12__alloc_funcIZplRKNS_10shared_ptrI5ValueEES6_EUlvE_NS_9allocatorIS7_EEFvvEEC1B8ne180100ERKS7_RKS9_, symObjAddr: 0x21F10, symBinAddr: 0x1000231DC, symSize: 0x3C }
  - { offset: 0x6104A, size: 0x8, addend: 0x0, symName: __ZNSt3__110__function12__alloc_funcIZplRKNS_10shared_ptrI5ValueEES6_EUlvE_NS_9allocatorIS7_EEFvvEEC2B8ne180100ERKS7_RKS9_, symObjAddr: 0x21F4C, symBinAddr: 0x100023218, symSize: 0x5C }
  - { offset: 0x61090, size: 0x8, addend: 0x0, symName: __ZNSt3__117__compressed_pairIZplRKNS_10shared_ptrI5ValueEES5_EUlvE_NS_9allocatorIS6_EEEC1B8ne180100IJRKS6_EJRKS8_EEENS_21piecewise_construct_tENS_5tupleIJDpT_EEENSG_IJDpT0_EEE, symObjAddr: 0x21FD4, symBinAddr: 0x1000232A0, symSize: 0x3C }
  - { offset: 0x610FA, size: 0x8, addend: 0x0, symName: __ZNSt3__15tupleIJRKNS_9allocatorIZplRKNS_10shared_ptrI5ValueEES6_EUlvE_EEEEC1B8ne180100INS_4_AndELi0EEESA_, symObjAddr: 0x22010, symBinAddr: 0x1000232DC, symSize: 0x34 }
  - { offset: 0x61142, size: 0x8, addend: 0x0, symName: __ZNSt3__15tupleIJRKNS_9allocatorIZplRKNS_10shared_ptrI5ValueEES6_EUlvE_EEEEC2B8ne180100INS_4_AndELi0EEESA_, symObjAddr: 0x22044, symBinAddr: 0x100023310, symSize: 0x34 }
  - { offset: 0x6118A, size: 0x8, addend: 0x0, symName: __ZNSt3__112__tuple_implINS_15__tuple_indicesIJLm0EEEEJRKNS_9allocatorIZplRKNS_10shared_ptrI5ValueEES8_EUlvE_EEEEC1B8ne180100IJLm0EEJSC_EJEJEJSC_EEENS1_IJXspT_EEEENS_13__tuple_typesIJDpT0_EEENS1_IJXspT1_EEEENSG_IJDpT2_EEEDpOT3_, symObjAddr: 0x22078, symBinAddr: 0x100023344, symSize: 0x34 }
  - { offset: 0x6121F, size: 0x8, addend: 0x0, symName: __ZNSt3__112__tuple_implINS_15__tuple_indicesIJLm0EEEEJRKNS_9allocatorIZplRKNS_10shared_ptrI5ValueEES8_EUlvE_EEEEC2B8ne180100IJLm0EEJSC_EJEJEJSC_EEENS1_IJXspT_EEEENS_13__tuple_typesIJDpT0_EEENS1_IJXspT1_EEEENSG_IJDpT2_EEEDpOT3_, symObjAddr: 0x220AC, symBinAddr: 0x100023378, symSize: 0x34 }
  - { offset: 0x612B4, size: 0x8, addend: 0x0, symName: __ZNSt3__112__tuple_leafILm0ERKNS_9allocatorIZplRKNS_10shared_ptrI5ValueEES6_EUlvE_EELb0EEC2B8ne180100ISA_vEEOT_, symObjAddr: 0x220E0, symBinAddr: 0x1000233AC, symSize: 0x20 }
  - { offset: 0x612F7, size: 0x8, addend: 0x0, symName: __ZNSt3__117__compressed_pairIZplRKNS_10shared_ptrI5ValueEES5_EUlvE_NS_9allocatorIS6_EEEC2B8ne180100IJRKS6_EJRKS8_EEENS_21piecewise_construct_tENS_5tupleIJDpT_EEENSG_IJDpT0_EEE, symObjAddr: 0x22100, symBinAddr: 0x1000233CC, symSize: 0x7C }
  - { offset: 0x61361, size: 0x8, addend: 0x0, symName: __ZNSt3__122__compressed_pair_elemINS_9allocatorIZplRKNS_10shared_ptrI5ValueEES6_EUlvE_EELi1ELb1EEC2B8ne180100IJRKS8_EJLm0EEEENS_21piecewise_construct_tENS_5tupleIJDpT_EEENS_15__tuple_indicesIJXspT0_EEEE, symObjAddr: 0x2217C, symBinAddr: 0x100023448, symSize: 0x38 }
  - { offset: 0x613C4, size: 0x8, addend: 0x0, symName: __ZNSt3__112__tuple_leafILm0ERKNS_9allocatorIZplRKNS_10shared_ptrI5ValueEES6_EUlvE_EELb0EE3getB8ne180100Ev, symObjAddr: 0x221D8, symBinAddr: 0x1000234A4, symSize: 0x18 }
  - { offset: 0x613EA, size: 0x8, addend: 0x0, symName: __ZNSt3__110__function12__alloc_funcIZplRKNS_10shared_ptrI5ValueEES6_EUlvE_NS_9allocatorIS7_EEFvvEE7destroyB8ne180100Ev, symObjAddr: 0x221F0, symBinAddr: 0x1000234BC, symSize: 0x24 }
  - { offset: 0x61410, size: 0x8, addend: 0x0, symName: __ZNSt3__110__function12__alloc_funcIZplRKNS_10shared_ptrI5ValueEES6_EUlvE_NS_9allocatorIS7_EEFvvEEclB8ne180100Ev, symObjAddr: 0x22214, symBinAddr: 0x1000234E0, symSize: 0x28 }
  - { offset: 0x61436, size: 0x8, addend: 0x0, symName: __ZNSt3__128__invoke_void_return_wrapperIvLb1EE6__callB8ne180100IJRZplRKNS_10shared_ptrI5ValueEES7_EUlvE_EEEvDpOT_, symObjAddr: 0x2223C, symBinAddr: 0x100023508, symSize: 0x24 }
  - { offset: 0x61465, size: 0x8, addend: 0x0, symName: __ZNSt3__117__compressed_pairIZplRKNS_10shared_ptrI5ValueEES5_EUlvE_NS_9allocatorIS6_EEE5firstB8ne180100Ev, symObjAddr: 0x22260, symBinAddr: 0x10002352C, symSize: 0x24 }
  - { offset: 0x61491, size: 0x8, addend: 0x0, symName: __ZZplRKNSt3__110shared_ptrI5ValueEES4_ENKUlvE_clEv, symObjAddr: 0x222A8, symBinAddr: 0x100023574, symSize: 0x80 }
  - { offset: 0x614BB, size: 0x8, addend: 0x0, symName: __ZNSt3__122__compressed_pair_elemIZplRKNS_10shared_ptrI5ValueEES5_EUlvE_Li0ELb0EE5__getB8ne180100Ev, symObjAddr: 0x22328, symBinAddr: 0x1000235F4, symSize: 0x14 }
  - { offset: 0x614E1, size: 0x8, addend: 0x0, symName: __ZNSt3__110unique_ptrINS_10__function6__baseIFvvEEENS_22__allocator_destructorINS_9allocatorINS1_6__funcIZplRKNS_10shared_ptrI5ValueEESC_EUlvE_NS6_ISD_EES3_EEEEEEED2B8ne180100Ev, symObjAddr: 0x2233C, symBinAddr: 0x100023608, symSize: 0x30 }
  - { offset: 0x6150B, size: 0x8, addend: 0x0, symName: __ZNSt3__110unique_ptrINS_10__function6__baseIFvvEEENS_22__allocator_destructorINS_9allocatorINS1_6__funcIZplRKNS_10shared_ptrI5ValueEESC_EUlvE_NS6_ISD_EES3_EEEEEEE5resetB8ne180100EPSF_, symObjAddr: 0x2236C, symBinAddr: 0x100023638, symSize: 0x78 }
  - { offset: 0x6154F, size: 0x8, addend: 0x0, symName: __ZNSt3__110__function12__value_funcIFvvEE4swapB8ne180100ERS3_, symObjAddr: 0x223E4, symBinAddr: 0x1000236B0, symSize: 0x328 }
  - { offset: 0x615A8, size: 0x8, addend: 0x0, symName: __ZNSt3__110__function12__value_funcIFvvEE9__as_baseB8ne180100EPv, symObjAddr: 0x2270C, symBinAddr: 0x1000239D8, symSize: 0x14 }
  - { offset: 0x615CC, size: 0x8, addend: 0x0, symName: __ZZplRKNSt3__110shared_ptrI5ValueEES4_ENUlvE_D2Ev, symObjAddr: 0x2275C, symBinAddr: 0x100023A28, symSize: 0x44 }
  - { offset: 0x615F8, size: 0x8, addend: 0x0, symName: __ZNSt3__18functionIFvvEEaSIZmlRKNS_10shared_ptrI5ValueEES8_EUlvE_vEERS2_OT_, symObjAddr: 0x227A0, symBinAddr: 0x100023A6C, symSize: 0xC0 }
  - { offset: 0x6163F, size: 0x8, addend: 0x0, symName: __ZZmlRKNSt3__110shared_ptrI5ValueEES4_ENUlvE_D1Ev, symObjAddr: 0x22860, symBinAddr: 0x100023B2C, symSize: 0x2C }
  - { offset: 0x6166C, size: 0x8, addend: 0x0, symName: __ZZmlRKNSt3__110shared_ptrI5ValueEES4_ENUlvE_C1EOS5_, symObjAddr: 0x2288C, symBinAddr: 0x100023B58, symSize: 0x34 }
  - { offset: 0x616A2, size: 0x8, addend: 0x0, symName: __ZNSt3__18functionIFvvEEC1IZmlRKNS_10shared_ptrI5ValueEES8_EUlvE_vEET_, symObjAddr: 0x228C0, symBinAddr: 0x100023B8C, symSize: 0x34 }
  - { offset: 0x616E8, size: 0x8, addend: 0x0, symName: __ZZmlRKNSt3__110shared_ptrI5ValueEES4_ENUlvE_C2EOS5_, symObjAddr: 0x228F4, symBinAddr: 0x100023BC0, symSize: 0x5C }
  - { offset: 0x6171E, size: 0x8, addend: 0x0, symName: __ZNSt3__18functionIFvvEEC2IZmlRKNS_10shared_ptrI5ValueEES8_EUlvE_vEET_, symObjAddr: 0x22950, symBinAddr: 0x100023C1C, symSize: 0x34 }
  - { offset: 0x61764, size: 0x8, addend: 0x0, symName: __ZNSt3__110__function12__value_funcIFvvEEC1B8ne180100IZmlRKNS_10shared_ptrI5ValueEES9_EUlvE_Li0EEEOT_, symObjAddr: 0x22984, symBinAddr: 0x100023C50, symSize: 0x50 }
  - { offset: 0x617AC, size: 0x8, addend: 0x0, symName: __ZNSt3__19allocatorIZmlRKNS_10shared_ptrI5ValueEES5_EUlvE_EC1B8ne180100Ev, symObjAddr: 0x229D4, symBinAddr: 0x100023CA0, symSize: 0x2C }
  - { offset: 0x617D6, size: 0x8, addend: 0x0, symName: __ZNSt3__110__function12__value_funcIFvvEEC1B8ne180100IZmlRKNS_10shared_ptrI5ValueEES9_EUlvE_NS_9allocatorISA_EEEEOT_RKT0_, symObjAddr: 0x22A00, symBinAddr: 0x100023CCC, symSize: 0x3C }
  - { offset: 0x61830, size: 0x8, addend: 0x0, symName: __ZNSt3__19allocatorIZmlRKNS_10shared_ptrI5ValueEES5_EUlvE_EC2B8ne180100Ev, symObjAddr: 0x22A3C, symBinAddr: 0x100023D08, symSize: 0x2C }
  - { offset: 0x6185A, size: 0x8, addend: 0x0, symName: __ZNSt3__116__non_trivial_ifILb1ENS_9allocatorIZmlRKNS_10shared_ptrI5ValueEES6_EUlvE_EEEC2B8ne180100Ev, symObjAddr: 0x22A68, symBinAddr: 0x100023D34, symSize: 0x14 }
  - { offset: 0x61884, size: 0x8, addend: 0x0, symName: __ZNSt3__110__function12__value_funcIFvvEEC2B8ne180100IZmlRKNS_10shared_ptrI5ValueEES9_EUlvE_NS_9allocatorISA_EEEEOT_RKT0_, symObjAddr: 0x22A7C, symBinAddr: 0x100023D48, symSize: 0xF4 }
  - { offset: 0x6193D, size: 0x8, addend: 0x0, symName: __ZNSt3__19allocatorINS_10__function6__funcIZmlRKNS_10shared_ptrI5ValueEES7_EUlvE_NS0_IS8_EEFvvEEEEC1B8ne180100IS8_EERKNS0_IT_EE, symObjAddr: 0x22B88, symBinAddr: 0x100023E54, symSize: 0x34 }
  - { offset: 0x6197A, size: 0x8, addend: 0x0, symName: __ZNSt3__19allocatorINS_10__function6__funcIZmlRKNS_10shared_ptrI5ValueEES7_EUlvE_NS0_IS8_EEFvvEEEE8allocateB8ne180100Em, symObjAddr: 0x22BBC, symBinAddr: 0x100023E88, symSize: 0x5C }
  - { offset: 0x619C0, size: 0x8, addend: 0x0, symName: __ZNSt3__122__allocator_destructorINS_9allocatorINS_10__function6__funcIZmlRKNS_10shared_ptrI5ValueEES8_EUlvE_NS1_IS9_EEFvvEEEEEEC1B8ne180100ERSD_m, symObjAddr: 0x22C18, symBinAddr: 0x100023EE4, symSize: 0x3C }
  - { offset: 0x61AA7, size: 0x8, addend: 0x0, symName: __ZNSt3__110unique_ptrINS_10__function6__baseIFvvEEENS_22__allocator_destructorINS_9allocatorINS1_6__funcIZmlRKNS_10shared_ptrI5ValueEESC_EUlvE_NS6_ISD_EES3_EEEEEEEC1B8ne180100ILb1EvEEPSF_NS_16__dependent_typeINS_27__unique_ptr_deleter_sfinaeISH_EEXT_EE20__good_rval_ref_typeE, symObjAddr: 0x22C54, symBinAddr: 0x100023F20, symSize: 0x3C }
  - { offset: 0x61AF8, size: 0x8, addend: 0x0, symName: __ZNKSt3__110unique_ptrINS_10__function6__baseIFvvEEENS_22__allocator_destructorINS_9allocatorINS1_6__funcIZmlRKNS_10shared_ptrI5ValueEESC_EUlvE_NS6_ISD_EES3_EEEEEEE3getB8ne180100Ev, symObjAddr: 0x22C90, symBinAddr: 0x100023F5C, symSize: 0x28 }
  - { offset: 0x61B1E, size: 0x8, addend: 0x0, symName: __ZNSt3__110__function6__funcIZmlRKNS_10shared_ptrI5ValueEES6_EUlvE_NS_9allocatorIS7_EEFvvEEC1B8ne180100EOS7_OS9_, symObjAddr: 0x22CB8, symBinAddr: 0x100023F84, symSize: 0x3C }
  - { offset: 0x61B66, size: 0x8, addend: 0x0, symName: __ZNSt3__110unique_ptrINS_10__function6__baseIFvvEEENS_22__allocator_destructorINS_9allocatorINS1_6__funcIZmlRKNS_10shared_ptrI5ValueEESC_EUlvE_NS6_ISD_EES3_EEEEEEE7releaseB8ne180100Ev, symObjAddr: 0x22CF4, symBinAddr: 0x100023FC0, symSize: 0x44 }
  - { offset: 0x61B9B, size: 0x8, addend: 0x0, symName: __ZNSt3__110unique_ptrINS_10__function6__baseIFvvEEENS_22__allocator_destructorINS_9allocatorINS1_6__funcIZmlRKNS_10shared_ptrI5ValueEESC_EUlvE_NS6_ISD_EES3_EEEEEEED1B8ne180100Ev, symObjAddr: 0x22D38, symBinAddr: 0x100024004, symSize: 0x2C }
